
c:/Users/chris/Desktop/TML/akkorddata/tmlprojekt/target/5.6.0/p2/tmlprojekt.elf:     file format elf32-littlearm

Sections:
Idx Name          Size      VMA       LMA       File off  Algn
  0 .module_info  00000018  085f5000  085f5000  00005000  2**0
                  CONTENTS, ALLOC, LOAD, READONLY, DATA
  1 .text         0000008c  085f5018  085f5018  00005018  2**2
                  CONTENTS, ALLOC, LOAD, READONLY, CODE
  2 .dynalib      00000008  023f6090  085f50a8  00006090  2**3
                  CONTENTS, ALLOC, LOAD, READONLY, DATA
  3 .psram_text   00009f58  023f6098  085f50b0  00006098  2**3
                  CONTENTS, ALLOC, LOAD, READONLY, CODE
  4 .data_alt     00000000  023ffff0  023ffff0  00020000  2**0
                  CONTENTS
  5 .bss_alt      00000000  023ffff0  023ffff0  00020000  2**0
                  CONTENTS
  6 .data         00000088  1006196c  085ff008  0001196c  2**2
                  CONTENTS, ALLOC, LOAD, DATA
  7 .bss          000195f4  10061a00  10061a00  00021a00  2**5
                  ALLOC
  8 .secure_ram_text 00000000  1007e000  1007e000  00020000  2**0
                  CONTENTS
  9 .backup       00000004  1007b400  085ff090  0001b400  2**2
                  CONTENTS, ALLOC, LOAD, DATA
 10 .module_info_suffix_align 00000f24  085ff094  085ff094  0001f094  2**0
                  ALLOC
 11 .module_info_product 00000006  085fffb8  085fffb8  0001f094  2**0
                  ALLOC
 12 .module_info_suffix 0000003e  085fffbe  085fffbe  0001ffbe  2**0
                  CONTENTS, ALLOC, LOAD, READONLY, DATA
 13 .module_info_crc 00000004  085ffffc  085ffffc  0001fffc  2**0
                  CONTENTS, ALLOC, LOAD, READONLY, DATA
 14 .debug_info   0012de9f  00000000  00000000  00020000  2**0
                  CONTENTS, READONLY, DEBUGGING, OCTETS
 15 .debug_abbrev 00013dc2  00000000  00000000  0014de9f  2**0
                  CONTENTS, READONLY, DEBUGGING, OCTETS
 16 .debug_loc    0003d52b  00000000  00000000  00161c61  2**0
                  CONTENTS, READONLY, DEBUGGING, OCTETS
 17 .debug_aranges 00002bb8  00000000  00000000  0019f18c  2**0
                  CONTENTS, READONLY, DEBUGGING, OCTETS
 18 .debug_ranges 0000b390  00000000  00000000  001a1d44  2**0
                  CONTENTS, READONLY, DEBUGGING, OCTETS
 19 .debug_macro  0002a0f1  00000000  00000000  001ad0d4  2**0
                  CONTENTS, READONLY, DEBUGGING, OCTETS
 20 .debug_line   00042360  00000000  00000000  001d71c5  2**0
                  CONTENTS, READONLY, DEBUGGING, OCTETS
 21 .debug_str    000ffd5b  00000000  00000000  00219525  2**0
                  CONTENTS, READONLY, DEBUGGING, OCTETS
 22 .debug_frame  000083b4  00000000  00000000  00319280  2**2
                  CONTENTS, READONLY, DEBUGGING, OCTETS

Disassembly of section .text:

085f5018 <module_user_pre_init>:
 * Initializes this user module. Returns the start of the heap.
 */
__attribute__((section(".xip.text"))) void* module_user_pre_init() {
    // NOTE: Must invoke APIs in ROM
    // Copy .data
    if ( (&link_global_data_start != &link_global_data_initial_values) && (link_global_data_size != 0))
 85f5018:	4813      	ldr	r0, [pc, #76]	; (85f5068 <module_user_pre_init+0x50>)
 85f501a:	4914      	ldr	r1, [pc, #80]	; (85f506c <module_user_pre_init+0x54>)
__attribute__((section(".xip.text"))) void* module_user_pre_init() {
 85f501c:	b508      	push	{r3, lr}
    if ( (&link_global_data_start != &link_global_data_initial_values) && (link_global_data_size != 0))
 85f501e:	4288      	cmp	r0, r1
 85f5020:	d005      	beq.n	85f502e <module_user_pre_init+0x16>
 85f5022:	4a13      	ldr	r2, [pc, #76]	; (85f5070 <module_user_pre_init+0x58>)
 85f5024:	4282      	cmp	r2, r0
 85f5026:	d002      	beq.n	85f502e <module_user_pre_init+0x16>
    {
        _memcpy(&link_global_data_start, &link_global_data_initial_values, link_global_data_size);
 85f5028:	4b12      	ldr	r3, [pc, #72]	; (85f5074 <module_user_pre_init+0x5c>)
 85f502a:	1a12      	subs	r2, r2, r0
 85f502c:	4798      	blx	r3
    }

    // Initialize .bss
    _memset(&link_bss_location, 0, link_bss_size );
 85f502e:	4812      	ldr	r0, [pc, #72]	; (85f5078 <module_user_pre_init+0x60>)
 85f5030:	4a12      	ldr	r2, [pc, #72]	; (85f507c <module_user_pre_init+0x64>)
 85f5032:	2100      	movs	r1, #0
 85f5034:	4b12      	ldr	r3, [pc, #72]	; (85f5080 <module_user_pre_init+0x68>)
 85f5036:	1a12      	subs	r2, r2, r0
 85f5038:	4798      	blx	r3

    // Copy .dynalib
    if ( (&link_dynalib_start != &link_dynalib_flash_start) && (link_dynalib_size != 0))
 85f503a:	4812      	ldr	r0, [pc, #72]	; (85f5084 <module_user_pre_init+0x6c>)
 85f503c:	4912      	ldr	r1, [pc, #72]	; (85f5088 <module_user_pre_init+0x70>)
 85f503e:	4288      	cmp	r0, r1
 85f5040:	d005      	beq.n	85f504e <module_user_pre_init+0x36>
 85f5042:	4a12      	ldr	r2, [pc, #72]	; (85f508c <module_user_pre_init+0x74>)
 85f5044:	4282      	cmp	r2, r0
 85f5046:	d002      	beq.n	85f504e <module_user_pre_init+0x36>
    {
        _memcpy(&link_dynalib_start, &link_dynalib_flash_start, link_dynalib_size);
 85f5048:	4b0a      	ldr	r3, [pc, #40]	; (85f5074 <module_user_pre_init+0x5c>)
 85f504a:	1a12      	subs	r2, r2, r0
 85f504c:	4798      	blx	r3
    }

    // Copy .psram_text
    if ( (&link_psram_code_start != &link_psram_code_flash_start) && (link_psram_code_size != 0))
 85f504e:	4810      	ldr	r0, [pc, #64]	; (85f5090 <module_user_pre_init+0x78>)
 85f5050:	4910      	ldr	r1, [pc, #64]	; (85f5094 <module_user_pre_init+0x7c>)
 85f5052:	4288      	cmp	r0, r1
 85f5054:	d005      	beq.n	85f5062 <module_user_pre_init+0x4a>
 85f5056:	4a10      	ldr	r2, [pc, #64]	; (85f5098 <module_user_pre_init+0x80>)
 85f5058:	4282      	cmp	r2, r0
 85f505a:	d002      	beq.n	85f5062 <module_user_pre_init+0x4a>
    {
        _memcpy(&link_psram_code_start, &link_psram_code_flash_start, link_psram_code_size);
 85f505c:	4b05      	ldr	r3, [pc, #20]	; (85f5074 <module_user_pre_init+0x5c>)
 85f505e:	1a12      	subs	r2, r2, r0
 85f5060:	4798      	blx	r3
    }

    return &link_global_data_start;
}
 85f5062:	4801      	ldr	r0, [pc, #4]	; (85f5068 <module_user_pre_init+0x50>)
 85f5064:	bd08      	pop	{r3, pc}
 85f5066:	bf00      	nop
 85f5068:	1006196c 	.word	0x1006196c
 85f506c:	085ff008 	.word	0x085ff008
 85f5070:	100619f4 	.word	0x100619f4
 85f5074:	10110d2d 	.word	0x10110d2d
 85f5078:	10061a00 	.word	0x10061a00
 85f507c:	1007aff4 	.word	0x1007aff4
 85f5080:	10110ea1 	.word	0x10110ea1
 85f5084:	023f6090 	.word	0x023f6090
 85f5088:	085f50a8 	.word	0x085f50a8
 85f508c:	023f6098 	.word	0x023f6098
 85f5090:	023f6098 	.word	0x023f6098
 85f5094:	085f50b0 	.word	0x085f50b0
 85f5098:	023ffff0 	.word	0x023ffff0

085f509c <dynalib_preinit>:
 85f509c:	085f5019 00000000                       .P_.....

Disassembly of section .psram_text:

023f6098 <__aeabi_drsub>:
 23f6098:	f081 4100 	eor.w	r1, r1, #2147483648	; 0x80000000
 23f609c:	e002      	b.n	23f60a4 <__adddf3>
 23f609e:	bf00      	nop

023f60a0 <__aeabi_dsub>:
 23f60a0:	f083 4300 	eor.w	r3, r3, #2147483648	; 0x80000000

023f60a4 <__adddf3>:
 23f60a4:	b530      	push	{r4, r5, lr}
 23f60a6:	ea4f 0441 	mov.w	r4, r1, lsl #1
 23f60aa:	ea4f 0543 	mov.w	r5, r3, lsl #1
 23f60ae:	ea94 0f05 	teq	r4, r5
 23f60b2:	bf08      	it	eq
 23f60b4:	ea90 0f02 	teqeq	r0, r2
 23f60b8:	bf1f      	itttt	ne
 23f60ba:	ea54 0c00 	orrsne.w	ip, r4, r0
 23f60be:	ea55 0c02 	orrsne.w	ip, r5, r2
 23f60c2:	ea7f 5c64 	mvnsne.w	ip, r4, asr #21
 23f60c6:	ea7f 5c65 	mvnsne.w	ip, r5, asr #21
 23f60ca:	f000 80e2 	beq.w	23f6292 <__adddf3+0x1ee>
 23f60ce:	ea4f 5454 	mov.w	r4, r4, lsr #21
 23f60d2:	ebd4 5555 	rsbs	r5, r4, r5, lsr #21
 23f60d6:	bfb8      	it	lt
 23f60d8:	426d      	neglt	r5, r5
 23f60da:	dd0c      	ble.n	23f60f6 <__adddf3+0x52>
 23f60dc:	442c      	add	r4, r5
 23f60de:	ea80 0202 	eor.w	r2, r0, r2
 23f60e2:	ea81 0303 	eor.w	r3, r1, r3
 23f60e6:	ea82 0000 	eor.w	r0, r2, r0
 23f60ea:	ea83 0101 	eor.w	r1, r3, r1
 23f60ee:	ea80 0202 	eor.w	r2, r0, r2
 23f60f2:	ea81 0303 	eor.w	r3, r1, r3
 23f60f6:	2d36      	cmp	r5, #54	; 0x36
 23f60f8:	bf88      	it	hi
 23f60fa:	bd30      	pophi	{r4, r5, pc}
 23f60fc:	f011 4f00 	tst.w	r1, #2147483648	; 0x80000000
 23f6100:	ea4f 3101 	mov.w	r1, r1, lsl #12
 23f6104:	f44f 1c80 	mov.w	ip, #1048576	; 0x100000
 23f6108:	ea4c 3111 	orr.w	r1, ip, r1, lsr #12
 23f610c:	d002      	beq.n	23f6114 <__adddf3+0x70>
 23f610e:	4240      	negs	r0, r0
 23f6110:	eb61 0141 	sbc.w	r1, r1, r1, lsl #1
 23f6114:	f013 4f00 	tst.w	r3, #2147483648	; 0x80000000
 23f6118:	ea4f 3303 	mov.w	r3, r3, lsl #12
 23f611c:	ea4c 3313 	orr.w	r3, ip, r3, lsr #12
 23f6120:	d002      	beq.n	23f6128 <__adddf3+0x84>
 23f6122:	4252      	negs	r2, r2
 23f6124:	eb63 0343 	sbc.w	r3, r3, r3, lsl #1
 23f6128:	ea94 0f05 	teq	r4, r5
 23f612c:	f000 80a7 	beq.w	23f627e <__adddf3+0x1da>
 23f6130:	f1a4 0401 	sub.w	r4, r4, #1
 23f6134:	f1d5 0e20 	rsbs	lr, r5, #32
 23f6138:	db0d      	blt.n	23f6156 <__adddf3+0xb2>
 23f613a:	fa02 fc0e 	lsl.w	ip, r2, lr
 23f613e:	fa22 f205 	lsr.w	r2, r2, r5
 23f6142:	1880      	adds	r0, r0, r2
 23f6144:	f141 0100 	adc.w	r1, r1, #0
 23f6148:	fa03 f20e 	lsl.w	r2, r3, lr
 23f614c:	1880      	adds	r0, r0, r2
 23f614e:	fa43 f305 	asr.w	r3, r3, r5
 23f6152:	4159      	adcs	r1, r3
 23f6154:	e00e      	b.n	23f6174 <__adddf3+0xd0>
 23f6156:	f1a5 0520 	sub.w	r5, r5, #32
 23f615a:	f10e 0e20 	add.w	lr, lr, #32
 23f615e:	2a01      	cmp	r2, #1
 23f6160:	fa03 fc0e 	lsl.w	ip, r3, lr
 23f6164:	bf28      	it	cs
 23f6166:	f04c 0c02 	orrcs.w	ip, ip, #2
 23f616a:	fa43 f305 	asr.w	r3, r3, r5
 23f616e:	18c0      	adds	r0, r0, r3
 23f6170:	eb51 71e3 	adcs.w	r1, r1, r3, asr #31
 23f6174:	f001 4500 	and.w	r5, r1, #2147483648	; 0x80000000
 23f6178:	d507      	bpl.n	23f618a <__adddf3+0xe6>
 23f617a:	f04f 0e00 	mov.w	lr, #0
 23f617e:	f1dc 0c00 	rsbs	ip, ip, #0
 23f6182:	eb7e 0000 	sbcs.w	r0, lr, r0
 23f6186:	eb6e 0101 	sbc.w	r1, lr, r1
 23f618a:	f5b1 1f80 	cmp.w	r1, #1048576	; 0x100000
 23f618e:	d31b      	bcc.n	23f61c8 <__adddf3+0x124>
 23f6190:	f5b1 1f00 	cmp.w	r1, #2097152	; 0x200000
 23f6194:	d30c      	bcc.n	23f61b0 <__adddf3+0x10c>
 23f6196:	0849      	lsrs	r1, r1, #1
 23f6198:	ea5f 0030 	movs.w	r0, r0, rrx
 23f619c:	ea4f 0c3c 	mov.w	ip, ip, rrx
 23f61a0:	f104 0401 	add.w	r4, r4, #1
 23f61a4:	ea4f 5244 	mov.w	r2, r4, lsl #21
 23f61a8:	f512 0f80 	cmn.w	r2, #4194304	; 0x400000
 23f61ac:	f080 809a 	bcs.w	23f62e4 <__adddf3+0x240>
 23f61b0:	f1bc 4f00 	cmp.w	ip, #2147483648	; 0x80000000
 23f61b4:	bf08      	it	eq
 23f61b6:	ea5f 0c50 	movseq.w	ip, r0, lsr #1
 23f61ba:	f150 0000 	adcs.w	r0, r0, #0
 23f61be:	eb41 5104 	adc.w	r1, r1, r4, lsl #20
 23f61c2:	ea41 0105 	orr.w	r1, r1, r5
 23f61c6:	bd30      	pop	{r4, r5, pc}
 23f61c8:	ea5f 0c4c 	movs.w	ip, ip, lsl #1
 23f61cc:	4140      	adcs	r0, r0
 23f61ce:	eb41 0101 	adc.w	r1, r1, r1
 23f61d2:	3c01      	subs	r4, #1
 23f61d4:	bf28      	it	cs
 23f61d6:	f5b1 1f80 	cmpcs.w	r1, #1048576	; 0x100000
 23f61da:	d2e9      	bcs.n	23f61b0 <__adddf3+0x10c>
 23f61dc:	f091 0f00 	teq	r1, #0
 23f61e0:	bf04      	itt	eq
 23f61e2:	4601      	moveq	r1, r0
 23f61e4:	2000      	moveq	r0, #0
 23f61e6:	fab1 f381 	clz	r3, r1
 23f61ea:	bf08      	it	eq
 23f61ec:	3320      	addeq	r3, #32
 23f61ee:	f1a3 030b 	sub.w	r3, r3, #11
 23f61f2:	f1b3 0220 	subs.w	r2, r3, #32
 23f61f6:	da0c      	bge.n	23f6212 <__adddf3+0x16e>
 23f61f8:	320c      	adds	r2, #12
 23f61fa:	dd08      	ble.n	23f620e <__adddf3+0x16a>
 23f61fc:	f102 0c14 	add.w	ip, r2, #20
 23f6200:	f1c2 020c 	rsb	r2, r2, #12
 23f6204:	fa01 f00c 	lsl.w	r0, r1, ip
 23f6208:	fa21 f102 	lsr.w	r1, r1, r2
 23f620c:	e00c      	b.n	23f6228 <__adddf3+0x184>
 23f620e:	f102 0214 	add.w	r2, r2, #20
 23f6212:	bfd8      	it	le
 23f6214:	f1c2 0c20 	rsble	ip, r2, #32
 23f6218:	fa01 f102 	lsl.w	r1, r1, r2
 23f621c:	fa20 fc0c 	lsr.w	ip, r0, ip
 23f6220:	bfdc      	itt	le
 23f6222:	ea41 010c 	orrle.w	r1, r1, ip
 23f6226:	4090      	lslle	r0, r2
 23f6228:	1ae4      	subs	r4, r4, r3
 23f622a:	bfa2      	ittt	ge
 23f622c:	eb01 5104 	addge.w	r1, r1, r4, lsl #20
 23f6230:	4329      	orrge	r1, r5
 23f6232:	bd30      	popge	{r4, r5, pc}
 23f6234:	ea6f 0404 	mvn.w	r4, r4
 23f6238:	3c1f      	subs	r4, #31
 23f623a:	da1c      	bge.n	23f6276 <__adddf3+0x1d2>
 23f623c:	340c      	adds	r4, #12
 23f623e:	dc0e      	bgt.n	23f625e <__adddf3+0x1ba>
 23f6240:	f104 0414 	add.w	r4, r4, #20
 23f6244:	f1c4 0220 	rsb	r2, r4, #32
 23f6248:	fa20 f004 	lsr.w	r0, r0, r4
 23f624c:	fa01 f302 	lsl.w	r3, r1, r2
 23f6250:	ea40 0003 	orr.w	r0, r0, r3
 23f6254:	fa21 f304 	lsr.w	r3, r1, r4
 23f6258:	ea45 0103 	orr.w	r1, r5, r3
 23f625c:	bd30      	pop	{r4, r5, pc}
 23f625e:	f1c4 040c 	rsb	r4, r4, #12
 23f6262:	f1c4 0220 	rsb	r2, r4, #32
 23f6266:	fa20 f002 	lsr.w	r0, r0, r2
 23f626a:	fa01 f304 	lsl.w	r3, r1, r4
 23f626e:	ea40 0003 	orr.w	r0, r0, r3
 23f6272:	4629      	mov	r1, r5
 23f6274:	bd30      	pop	{r4, r5, pc}
 23f6276:	fa21 f004 	lsr.w	r0, r1, r4
 23f627a:	4629      	mov	r1, r5
 23f627c:	bd30      	pop	{r4, r5, pc}
 23f627e:	f094 0f00 	teq	r4, #0
 23f6282:	f483 1380 	eor.w	r3, r3, #1048576	; 0x100000
 23f6286:	bf06      	itte	eq
 23f6288:	f481 1180 	eoreq.w	r1, r1, #1048576	; 0x100000
 23f628c:	3401      	addeq	r4, #1
 23f628e:	3d01      	subne	r5, #1
 23f6290:	e74e      	b.n	23f6130 <__adddf3+0x8c>
 23f6292:	ea7f 5c64 	mvns.w	ip, r4, asr #21
 23f6296:	bf18      	it	ne
 23f6298:	ea7f 5c65 	mvnsne.w	ip, r5, asr #21
 23f629c:	d029      	beq.n	23f62f2 <__adddf3+0x24e>
 23f629e:	ea94 0f05 	teq	r4, r5
 23f62a2:	bf08      	it	eq
 23f62a4:	ea90 0f02 	teqeq	r0, r2
 23f62a8:	d005      	beq.n	23f62b6 <__adddf3+0x212>
 23f62aa:	ea54 0c00 	orrs.w	ip, r4, r0
 23f62ae:	bf04      	itt	eq
 23f62b0:	4619      	moveq	r1, r3
 23f62b2:	4610      	moveq	r0, r2
 23f62b4:	bd30      	pop	{r4, r5, pc}
 23f62b6:	ea91 0f03 	teq	r1, r3
 23f62ba:	bf1e      	ittt	ne
 23f62bc:	2100      	movne	r1, #0
 23f62be:	2000      	movne	r0, #0
 23f62c0:	bd30      	popne	{r4, r5, pc}
 23f62c2:	ea5f 5c54 	movs.w	ip, r4, lsr #21
 23f62c6:	d105      	bne.n	23f62d4 <__adddf3+0x230>
 23f62c8:	0040      	lsls	r0, r0, #1
 23f62ca:	4149      	adcs	r1, r1
 23f62cc:	bf28      	it	cs
 23f62ce:	f041 4100 	orrcs.w	r1, r1, #2147483648	; 0x80000000
 23f62d2:	bd30      	pop	{r4, r5, pc}
 23f62d4:	f514 0480 	adds.w	r4, r4, #4194304	; 0x400000
 23f62d8:	bf3c      	itt	cc
 23f62da:	f501 1180 	addcc.w	r1, r1, #1048576	; 0x100000
 23f62de:	bd30      	popcc	{r4, r5, pc}
 23f62e0:	f001 4500 	and.w	r5, r1, #2147483648	; 0x80000000
 23f62e4:	f045 41fe 	orr.w	r1, r5, #2130706432	; 0x7f000000
 23f62e8:	f441 0170 	orr.w	r1, r1, #15728640	; 0xf00000
 23f62ec:	f04f 0000 	mov.w	r0, #0
 23f62f0:	bd30      	pop	{r4, r5, pc}
 23f62f2:	ea7f 5c64 	mvns.w	ip, r4, asr #21
 23f62f6:	bf1a      	itte	ne
 23f62f8:	4619      	movne	r1, r3
 23f62fa:	4610      	movne	r0, r2
 23f62fc:	ea7f 5c65 	mvnseq.w	ip, r5, asr #21
 23f6300:	bf1c      	itt	ne
 23f6302:	460b      	movne	r3, r1
 23f6304:	4602      	movne	r2, r0
 23f6306:	ea50 3401 	orrs.w	r4, r0, r1, lsl #12
 23f630a:	bf06      	itte	eq
 23f630c:	ea52 3503 	orrseq.w	r5, r2, r3, lsl #12
 23f6310:	ea91 0f03 	teqeq	r1, r3
 23f6314:	f441 2100 	orrne.w	r1, r1, #524288	; 0x80000
 23f6318:	bd30      	pop	{r4, r5, pc}
 23f631a:	bf00      	nop

023f631c <__aeabi_ui2d>:
 23f631c:	f090 0f00 	teq	r0, #0
 23f6320:	bf04      	itt	eq
 23f6322:	2100      	moveq	r1, #0
 23f6324:	4770      	bxeq	lr
 23f6326:	b530      	push	{r4, r5, lr}
 23f6328:	f44f 6480 	mov.w	r4, #1024	; 0x400
 23f632c:	f104 0432 	add.w	r4, r4, #50	; 0x32
 23f6330:	f04f 0500 	mov.w	r5, #0
 23f6334:	f04f 0100 	mov.w	r1, #0
 23f6338:	e750      	b.n	23f61dc <__adddf3+0x138>
 23f633a:	bf00      	nop

023f633c <__aeabi_i2d>:
 23f633c:	f090 0f00 	teq	r0, #0
 23f6340:	bf04      	itt	eq
 23f6342:	2100      	moveq	r1, #0
 23f6344:	4770      	bxeq	lr
 23f6346:	b530      	push	{r4, r5, lr}
 23f6348:	f44f 6480 	mov.w	r4, #1024	; 0x400
 23f634c:	f104 0432 	add.w	r4, r4, #50	; 0x32
 23f6350:	f010 4500 	ands.w	r5, r0, #2147483648	; 0x80000000
 23f6354:	bf48      	it	mi
 23f6356:	4240      	negmi	r0, r0
 23f6358:	f04f 0100 	mov.w	r1, #0
 23f635c:	e73e      	b.n	23f61dc <__adddf3+0x138>
 23f635e:	bf00      	nop

023f6360 <__aeabi_f2d>:
 23f6360:	0042      	lsls	r2, r0, #1
 23f6362:	ea4f 01e2 	mov.w	r1, r2, asr #3
 23f6366:	ea4f 0131 	mov.w	r1, r1, rrx
 23f636a:	ea4f 7002 	mov.w	r0, r2, lsl #28
 23f636e:	bf1f      	itttt	ne
 23f6370:	f012 437f 	andsne.w	r3, r2, #4278190080	; 0xff000000
 23f6374:	f093 4f7f 	teqne	r3, #4278190080	; 0xff000000
 23f6378:	f081 5160 	eorne.w	r1, r1, #939524096	; 0x38000000
 23f637c:	4770      	bxne	lr
 23f637e:	f032 427f 	bics.w	r2, r2, #4278190080	; 0xff000000
 23f6382:	bf08      	it	eq
 23f6384:	4770      	bxeq	lr
 23f6386:	f093 4f7f 	teq	r3, #4278190080	; 0xff000000
 23f638a:	bf04      	itt	eq
 23f638c:	f441 2100 	orreq.w	r1, r1, #524288	; 0x80000
 23f6390:	4770      	bxeq	lr
 23f6392:	b530      	push	{r4, r5, lr}
 23f6394:	f44f 7460 	mov.w	r4, #896	; 0x380
 23f6398:	f001 4500 	and.w	r5, r1, #2147483648	; 0x80000000
 23f639c:	f021 4100 	bic.w	r1, r1, #2147483648	; 0x80000000
 23f63a0:	e71c      	b.n	23f61dc <__adddf3+0x138>
 23f63a2:	bf00      	nop

023f63a4 <__aeabi_ul2d>:
 23f63a4:	ea50 0201 	orrs.w	r2, r0, r1
 23f63a8:	bf08      	it	eq
 23f63aa:	4770      	bxeq	lr
 23f63ac:	b530      	push	{r4, r5, lr}
 23f63ae:	f04f 0500 	mov.w	r5, #0
 23f63b2:	e00a      	b.n	23f63ca <__aeabi_l2d+0x16>

023f63b4 <__aeabi_l2d>:
 23f63b4:	ea50 0201 	orrs.w	r2, r0, r1
 23f63b8:	bf08      	it	eq
 23f63ba:	4770      	bxeq	lr
 23f63bc:	b530      	push	{r4, r5, lr}
 23f63be:	f011 4500 	ands.w	r5, r1, #2147483648	; 0x80000000
 23f63c2:	d502      	bpl.n	23f63ca <__aeabi_l2d+0x16>
 23f63c4:	4240      	negs	r0, r0
 23f63c6:	eb61 0141 	sbc.w	r1, r1, r1, lsl #1
 23f63ca:	f44f 6480 	mov.w	r4, #1024	; 0x400
 23f63ce:	f104 0432 	add.w	r4, r4, #50	; 0x32
 23f63d2:	ea5f 5c91 	movs.w	ip, r1, lsr #22
 23f63d6:	f43f aed8 	beq.w	23f618a <__adddf3+0xe6>
 23f63da:	f04f 0203 	mov.w	r2, #3
 23f63de:	ea5f 0cdc 	movs.w	ip, ip, lsr #3
 23f63e2:	bf18      	it	ne
 23f63e4:	3203      	addne	r2, #3
 23f63e6:	ea5f 0cdc 	movs.w	ip, ip, lsr #3
 23f63ea:	bf18      	it	ne
 23f63ec:	3203      	addne	r2, #3
 23f63ee:	eb02 02dc 	add.w	r2, r2, ip, lsr #3
 23f63f2:	f1c2 0320 	rsb	r3, r2, #32
 23f63f6:	fa00 fc03 	lsl.w	ip, r0, r3
 23f63fa:	fa20 f002 	lsr.w	r0, r0, r2
 23f63fe:	fa01 fe03 	lsl.w	lr, r1, r3
 23f6402:	ea40 000e 	orr.w	r0, r0, lr
 23f6406:	fa21 f102 	lsr.w	r1, r1, r2
 23f640a:	4414      	add	r4, r2
 23f640c:	e6bd      	b.n	23f618a <__adddf3+0xe6>
 23f640e:	bf00      	nop

023f6410 <__aeabi_dmul>:
 23f6410:	b570      	push	{r4, r5, r6, lr}
 23f6412:	f04f 0cff 	mov.w	ip, #255	; 0xff
 23f6416:	f44c 6ce0 	orr.w	ip, ip, #1792	; 0x700
 23f641a:	ea1c 5411 	ands.w	r4, ip, r1, lsr #20
 23f641e:	bf1d      	ittte	ne
 23f6420:	ea1c 5513 	andsne.w	r5, ip, r3, lsr #20
 23f6424:	ea94 0f0c 	teqne	r4, ip
 23f6428:	ea95 0f0c 	teqne	r5, ip
 23f642c:	f000 f8de 	bleq	23f65ec <__aeabi_dmul+0x1dc>
 23f6430:	442c      	add	r4, r5
 23f6432:	ea81 0603 	eor.w	r6, r1, r3
 23f6436:	ea21 514c 	bic.w	r1, r1, ip, lsl #21
 23f643a:	ea23 534c 	bic.w	r3, r3, ip, lsl #21
 23f643e:	ea50 3501 	orrs.w	r5, r0, r1, lsl #12
 23f6442:	bf18      	it	ne
 23f6444:	ea52 3503 	orrsne.w	r5, r2, r3, lsl #12
 23f6448:	f441 1180 	orr.w	r1, r1, #1048576	; 0x100000
 23f644c:	f443 1380 	orr.w	r3, r3, #1048576	; 0x100000
 23f6450:	d038      	beq.n	23f64c4 <__aeabi_dmul+0xb4>
 23f6452:	fba0 ce02 	umull	ip, lr, r0, r2
 23f6456:	f04f 0500 	mov.w	r5, #0
 23f645a:	fbe1 e502 	umlal	lr, r5, r1, r2
 23f645e:	f006 4200 	and.w	r2, r6, #2147483648	; 0x80000000
 23f6462:	fbe0 e503 	umlal	lr, r5, r0, r3
 23f6466:	f04f 0600 	mov.w	r6, #0
 23f646a:	fbe1 5603 	umlal	r5, r6, r1, r3
 23f646e:	f09c 0f00 	teq	ip, #0
 23f6472:	bf18      	it	ne
 23f6474:	f04e 0e01 	orrne.w	lr, lr, #1
 23f6478:	f1a4 04ff 	sub.w	r4, r4, #255	; 0xff
 23f647c:	f5b6 7f00 	cmp.w	r6, #512	; 0x200
 23f6480:	f564 7440 	sbc.w	r4, r4, #768	; 0x300
 23f6484:	d204      	bcs.n	23f6490 <__aeabi_dmul+0x80>
 23f6486:	ea5f 0e4e 	movs.w	lr, lr, lsl #1
 23f648a:	416d      	adcs	r5, r5
 23f648c:	eb46 0606 	adc.w	r6, r6, r6
 23f6490:	ea42 21c6 	orr.w	r1, r2, r6, lsl #11
 23f6494:	ea41 5155 	orr.w	r1, r1, r5, lsr #21
 23f6498:	ea4f 20c5 	mov.w	r0, r5, lsl #11
 23f649c:	ea40 505e 	orr.w	r0, r0, lr, lsr #21
 23f64a0:	ea4f 2ece 	mov.w	lr, lr, lsl #11
 23f64a4:	f1b4 0cfd 	subs.w	ip, r4, #253	; 0xfd
 23f64a8:	bf88      	it	hi
 23f64aa:	f5bc 6fe0 	cmphi.w	ip, #1792	; 0x700
 23f64ae:	d81e      	bhi.n	23f64ee <__aeabi_dmul+0xde>
 23f64b0:	f1be 4f00 	cmp.w	lr, #2147483648	; 0x80000000
 23f64b4:	bf08      	it	eq
 23f64b6:	ea5f 0e50 	movseq.w	lr, r0, lsr #1
 23f64ba:	f150 0000 	adcs.w	r0, r0, #0
 23f64be:	eb41 5104 	adc.w	r1, r1, r4, lsl #20
 23f64c2:	bd70      	pop	{r4, r5, r6, pc}
 23f64c4:	f006 4600 	and.w	r6, r6, #2147483648	; 0x80000000
 23f64c8:	ea46 0101 	orr.w	r1, r6, r1
 23f64cc:	ea40 0002 	orr.w	r0, r0, r2
 23f64d0:	ea81 0103 	eor.w	r1, r1, r3
 23f64d4:	ebb4 045c 	subs.w	r4, r4, ip, lsr #1
 23f64d8:	bfc2      	ittt	gt
 23f64da:	ebd4 050c 	rsbsgt	r5, r4, ip
 23f64de:	ea41 5104 	orrgt.w	r1, r1, r4, lsl #20
 23f64e2:	bd70      	popgt	{r4, r5, r6, pc}
 23f64e4:	f441 1180 	orr.w	r1, r1, #1048576	; 0x100000
 23f64e8:	f04f 0e00 	mov.w	lr, #0
 23f64ec:	3c01      	subs	r4, #1
 23f64ee:	f300 80ab 	bgt.w	23f6648 <__aeabi_dmul+0x238>
 23f64f2:	f114 0f36 	cmn.w	r4, #54	; 0x36
 23f64f6:	bfde      	ittt	le
 23f64f8:	2000      	movle	r0, #0
 23f64fa:	f001 4100 	andle.w	r1, r1, #2147483648	; 0x80000000
 23f64fe:	bd70      	pople	{r4, r5, r6, pc}
 23f6500:	f1c4 0400 	rsb	r4, r4, #0
 23f6504:	3c20      	subs	r4, #32
 23f6506:	da35      	bge.n	23f6574 <__aeabi_dmul+0x164>
 23f6508:	340c      	adds	r4, #12
 23f650a:	dc1b      	bgt.n	23f6544 <__aeabi_dmul+0x134>
 23f650c:	f104 0414 	add.w	r4, r4, #20
 23f6510:	f1c4 0520 	rsb	r5, r4, #32
 23f6514:	fa00 f305 	lsl.w	r3, r0, r5
 23f6518:	fa20 f004 	lsr.w	r0, r0, r4
 23f651c:	fa01 f205 	lsl.w	r2, r1, r5
 23f6520:	ea40 0002 	orr.w	r0, r0, r2
 23f6524:	f001 4200 	and.w	r2, r1, #2147483648	; 0x80000000
 23f6528:	f021 4100 	bic.w	r1, r1, #2147483648	; 0x80000000
 23f652c:	eb10 70d3 	adds.w	r0, r0, r3, lsr #31
 23f6530:	fa21 f604 	lsr.w	r6, r1, r4
 23f6534:	eb42 0106 	adc.w	r1, r2, r6
 23f6538:	ea5e 0e43 	orrs.w	lr, lr, r3, lsl #1
 23f653c:	bf08      	it	eq
 23f653e:	ea20 70d3 	biceq.w	r0, r0, r3, lsr #31
 23f6542:	bd70      	pop	{r4, r5, r6, pc}
 23f6544:	f1c4 040c 	rsb	r4, r4, #12
 23f6548:	f1c4 0520 	rsb	r5, r4, #32
 23f654c:	fa00 f304 	lsl.w	r3, r0, r4
 23f6550:	fa20 f005 	lsr.w	r0, r0, r5
 23f6554:	fa01 f204 	lsl.w	r2, r1, r4
 23f6558:	ea40 0002 	orr.w	r0, r0, r2
 23f655c:	f001 4100 	and.w	r1, r1, #2147483648	; 0x80000000
 23f6560:	eb10 70d3 	adds.w	r0, r0, r3, lsr #31
 23f6564:	f141 0100 	adc.w	r1, r1, #0
 23f6568:	ea5e 0e43 	orrs.w	lr, lr, r3, lsl #1
 23f656c:	bf08      	it	eq
 23f656e:	ea20 70d3 	biceq.w	r0, r0, r3, lsr #31
 23f6572:	bd70      	pop	{r4, r5, r6, pc}
 23f6574:	f1c4 0520 	rsb	r5, r4, #32
 23f6578:	fa00 f205 	lsl.w	r2, r0, r5
 23f657c:	ea4e 0e02 	orr.w	lr, lr, r2
 23f6580:	fa20 f304 	lsr.w	r3, r0, r4
 23f6584:	fa01 f205 	lsl.w	r2, r1, r5
 23f6588:	ea43 0302 	orr.w	r3, r3, r2
 23f658c:	fa21 f004 	lsr.w	r0, r1, r4
 23f6590:	f001 4100 	and.w	r1, r1, #2147483648	; 0x80000000
 23f6594:	fa21 f204 	lsr.w	r2, r1, r4
 23f6598:	ea20 0002 	bic.w	r0, r0, r2
 23f659c:	eb00 70d3 	add.w	r0, r0, r3, lsr #31
 23f65a0:	ea5e 0e43 	orrs.w	lr, lr, r3, lsl #1
 23f65a4:	bf08      	it	eq
 23f65a6:	ea20 70d3 	biceq.w	r0, r0, r3, lsr #31
 23f65aa:	bd70      	pop	{r4, r5, r6, pc}
 23f65ac:	f094 0f00 	teq	r4, #0
 23f65b0:	d10f      	bne.n	23f65d2 <__aeabi_dmul+0x1c2>
 23f65b2:	f001 4600 	and.w	r6, r1, #2147483648	; 0x80000000
 23f65b6:	0040      	lsls	r0, r0, #1
 23f65b8:	eb41 0101 	adc.w	r1, r1, r1
 23f65bc:	f411 1f80 	tst.w	r1, #1048576	; 0x100000
 23f65c0:	bf08      	it	eq
 23f65c2:	3c01      	subeq	r4, #1
 23f65c4:	d0f7      	beq.n	23f65b6 <__aeabi_dmul+0x1a6>
 23f65c6:	ea41 0106 	orr.w	r1, r1, r6
 23f65ca:	f095 0f00 	teq	r5, #0
 23f65ce:	bf18      	it	ne
 23f65d0:	4770      	bxne	lr
 23f65d2:	f003 4600 	and.w	r6, r3, #2147483648	; 0x80000000
 23f65d6:	0052      	lsls	r2, r2, #1
 23f65d8:	eb43 0303 	adc.w	r3, r3, r3
 23f65dc:	f413 1f80 	tst.w	r3, #1048576	; 0x100000
 23f65e0:	bf08      	it	eq
 23f65e2:	3d01      	subeq	r5, #1
 23f65e4:	d0f7      	beq.n	23f65d6 <__aeabi_dmul+0x1c6>
 23f65e6:	ea43 0306 	orr.w	r3, r3, r6
 23f65ea:	4770      	bx	lr
 23f65ec:	ea94 0f0c 	teq	r4, ip
 23f65f0:	ea0c 5513 	and.w	r5, ip, r3, lsr #20
 23f65f4:	bf18      	it	ne
 23f65f6:	ea95 0f0c 	teqne	r5, ip
 23f65fa:	d00c      	beq.n	23f6616 <__aeabi_dmul+0x206>
 23f65fc:	ea50 0641 	orrs.w	r6, r0, r1, lsl #1
 23f6600:	bf18      	it	ne
 23f6602:	ea52 0643 	orrsne.w	r6, r2, r3, lsl #1
 23f6606:	d1d1      	bne.n	23f65ac <__aeabi_dmul+0x19c>
 23f6608:	ea81 0103 	eor.w	r1, r1, r3
 23f660c:	f001 4100 	and.w	r1, r1, #2147483648	; 0x80000000
 23f6610:	f04f 0000 	mov.w	r0, #0
 23f6614:	bd70      	pop	{r4, r5, r6, pc}
 23f6616:	ea50 0641 	orrs.w	r6, r0, r1, lsl #1
 23f661a:	bf06      	itte	eq
 23f661c:	4610      	moveq	r0, r2
 23f661e:	4619      	moveq	r1, r3
 23f6620:	ea52 0643 	orrsne.w	r6, r2, r3, lsl #1
 23f6624:	d019      	beq.n	23f665a <__aeabi_dmul+0x24a>
 23f6626:	ea94 0f0c 	teq	r4, ip
 23f662a:	d102      	bne.n	23f6632 <__aeabi_dmul+0x222>
 23f662c:	ea50 3601 	orrs.w	r6, r0, r1, lsl #12
 23f6630:	d113      	bne.n	23f665a <__aeabi_dmul+0x24a>
 23f6632:	ea95 0f0c 	teq	r5, ip
 23f6636:	d105      	bne.n	23f6644 <__aeabi_dmul+0x234>
 23f6638:	ea52 3603 	orrs.w	r6, r2, r3, lsl #12
 23f663c:	bf1c      	itt	ne
 23f663e:	4610      	movne	r0, r2
 23f6640:	4619      	movne	r1, r3
 23f6642:	d10a      	bne.n	23f665a <__aeabi_dmul+0x24a>
 23f6644:	ea81 0103 	eor.w	r1, r1, r3
 23f6648:	f001 4100 	and.w	r1, r1, #2147483648	; 0x80000000
 23f664c:	f041 41fe 	orr.w	r1, r1, #2130706432	; 0x7f000000
 23f6650:	f441 0170 	orr.w	r1, r1, #15728640	; 0xf00000
 23f6654:	f04f 0000 	mov.w	r0, #0
 23f6658:	bd70      	pop	{r4, r5, r6, pc}
 23f665a:	f041 41fe 	orr.w	r1, r1, #2130706432	; 0x7f000000
 23f665e:	f441 0178 	orr.w	r1, r1, #16252928	; 0xf80000
 23f6662:	bd70      	pop	{r4, r5, r6, pc}

023f6664 <__aeabi_ddiv>:
 23f6664:	b570      	push	{r4, r5, r6, lr}
 23f6666:	f04f 0cff 	mov.w	ip, #255	; 0xff
 23f666a:	f44c 6ce0 	orr.w	ip, ip, #1792	; 0x700
 23f666e:	ea1c 5411 	ands.w	r4, ip, r1, lsr #20
 23f6672:	bf1d      	ittte	ne
 23f6674:	ea1c 5513 	andsne.w	r5, ip, r3, lsr #20
 23f6678:	ea94 0f0c 	teqne	r4, ip
 23f667c:	ea95 0f0c 	teqne	r5, ip
 23f6680:	f000 f8a7 	bleq	23f67d2 <__aeabi_ddiv+0x16e>
 23f6684:	eba4 0405 	sub.w	r4, r4, r5
 23f6688:	ea81 0e03 	eor.w	lr, r1, r3
 23f668c:	ea52 3503 	orrs.w	r5, r2, r3, lsl #12
 23f6690:	ea4f 3101 	mov.w	r1, r1, lsl #12
 23f6694:	f000 8088 	beq.w	23f67a8 <__aeabi_ddiv+0x144>
 23f6698:	ea4f 3303 	mov.w	r3, r3, lsl #12
 23f669c:	f04f 5580 	mov.w	r5, #268435456	; 0x10000000
 23f66a0:	ea45 1313 	orr.w	r3, r5, r3, lsr #4
 23f66a4:	ea43 6312 	orr.w	r3, r3, r2, lsr #24
 23f66a8:	ea4f 2202 	mov.w	r2, r2, lsl #8
 23f66ac:	ea45 1511 	orr.w	r5, r5, r1, lsr #4
 23f66b0:	ea45 6510 	orr.w	r5, r5, r0, lsr #24
 23f66b4:	ea4f 2600 	mov.w	r6, r0, lsl #8
 23f66b8:	f00e 4100 	and.w	r1, lr, #2147483648	; 0x80000000
 23f66bc:	429d      	cmp	r5, r3
 23f66be:	bf08      	it	eq
 23f66c0:	4296      	cmpeq	r6, r2
 23f66c2:	f144 04fd 	adc.w	r4, r4, #253	; 0xfd
 23f66c6:	f504 7440 	add.w	r4, r4, #768	; 0x300
 23f66ca:	d202      	bcs.n	23f66d2 <__aeabi_ddiv+0x6e>
 23f66cc:	085b      	lsrs	r3, r3, #1
 23f66ce:	ea4f 0232 	mov.w	r2, r2, rrx
 23f66d2:	1ab6      	subs	r6, r6, r2
 23f66d4:	eb65 0503 	sbc.w	r5, r5, r3
 23f66d8:	085b      	lsrs	r3, r3, #1
 23f66da:	ea4f 0232 	mov.w	r2, r2, rrx
 23f66de:	f44f 1080 	mov.w	r0, #1048576	; 0x100000
 23f66e2:	f44f 2c00 	mov.w	ip, #524288	; 0x80000
 23f66e6:	ebb6 0e02 	subs.w	lr, r6, r2
 23f66ea:	eb75 0e03 	sbcs.w	lr, r5, r3
 23f66ee:	bf22      	ittt	cs
 23f66f0:	1ab6      	subcs	r6, r6, r2
 23f66f2:	4675      	movcs	r5, lr
 23f66f4:	ea40 000c 	orrcs.w	r0, r0, ip
 23f66f8:	085b      	lsrs	r3, r3, #1
 23f66fa:	ea4f 0232 	mov.w	r2, r2, rrx
 23f66fe:	ebb6 0e02 	subs.w	lr, r6, r2
 23f6702:	eb75 0e03 	sbcs.w	lr, r5, r3
 23f6706:	bf22      	ittt	cs
 23f6708:	1ab6      	subcs	r6, r6, r2
 23f670a:	4675      	movcs	r5, lr
 23f670c:	ea40 005c 	orrcs.w	r0, r0, ip, lsr #1
 23f6710:	085b      	lsrs	r3, r3, #1
 23f6712:	ea4f 0232 	mov.w	r2, r2, rrx
 23f6716:	ebb6 0e02 	subs.w	lr, r6, r2
 23f671a:	eb75 0e03 	sbcs.w	lr, r5, r3
 23f671e:	bf22      	ittt	cs
 23f6720:	1ab6      	subcs	r6, r6, r2
 23f6722:	4675      	movcs	r5, lr
 23f6724:	ea40 009c 	orrcs.w	r0, r0, ip, lsr #2
 23f6728:	085b      	lsrs	r3, r3, #1
 23f672a:	ea4f 0232 	mov.w	r2, r2, rrx
 23f672e:	ebb6 0e02 	subs.w	lr, r6, r2
 23f6732:	eb75 0e03 	sbcs.w	lr, r5, r3
 23f6736:	bf22      	ittt	cs
 23f6738:	1ab6      	subcs	r6, r6, r2
 23f673a:	4675      	movcs	r5, lr
 23f673c:	ea40 00dc 	orrcs.w	r0, r0, ip, lsr #3
 23f6740:	ea55 0e06 	orrs.w	lr, r5, r6
 23f6744:	d018      	beq.n	23f6778 <__aeabi_ddiv+0x114>
 23f6746:	ea4f 1505 	mov.w	r5, r5, lsl #4
 23f674a:	ea45 7516 	orr.w	r5, r5, r6, lsr #28
 23f674e:	ea4f 1606 	mov.w	r6, r6, lsl #4
 23f6752:	ea4f 03c3 	mov.w	r3, r3, lsl #3
 23f6756:	ea43 7352 	orr.w	r3, r3, r2, lsr #29
 23f675a:	ea4f 02c2 	mov.w	r2, r2, lsl #3
 23f675e:	ea5f 1c1c 	movs.w	ip, ip, lsr #4
 23f6762:	d1c0      	bne.n	23f66e6 <__aeabi_ddiv+0x82>
 23f6764:	f411 1f80 	tst.w	r1, #1048576	; 0x100000
 23f6768:	d10b      	bne.n	23f6782 <__aeabi_ddiv+0x11e>
 23f676a:	ea41 0100 	orr.w	r1, r1, r0
 23f676e:	f04f 0000 	mov.w	r0, #0
 23f6772:	f04f 4c00 	mov.w	ip, #2147483648	; 0x80000000
 23f6776:	e7b6      	b.n	23f66e6 <__aeabi_ddiv+0x82>
 23f6778:	f411 1f80 	tst.w	r1, #1048576	; 0x100000
 23f677c:	bf04      	itt	eq
 23f677e:	4301      	orreq	r1, r0
 23f6780:	2000      	moveq	r0, #0
 23f6782:	f1b4 0cfd 	subs.w	ip, r4, #253	; 0xfd
 23f6786:	bf88      	it	hi
 23f6788:	f5bc 6fe0 	cmphi.w	ip, #1792	; 0x700
 23f678c:	f63f aeaf 	bhi.w	23f64ee <__aeabi_dmul+0xde>
 23f6790:	ebb5 0c03 	subs.w	ip, r5, r3
 23f6794:	bf04      	itt	eq
 23f6796:	ebb6 0c02 	subseq.w	ip, r6, r2
 23f679a:	ea5f 0c50 	movseq.w	ip, r0, lsr #1
 23f679e:	f150 0000 	adcs.w	r0, r0, #0
 23f67a2:	eb41 5104 	adc.w	r1, r1, r4, lsl #20
 23f67a6:	bd70      	pop	{r4, r5, r6, pc}
 23f67a8:	f00e 4e00 	and.w	lr, lr, #2147483648	; 0x80000000
 23f67ac:	ea4e 3111 	orr.w	r1, lr, r1, lsr #12
 23f67b0:	eb14 045c 	adds.w	r4, r4, ip, lsr #1
 23f67b4:	bfc2      	ittt	gt
 23f67b6:	ebd4 050c 	rsbsgt	r5, r4, ip
 23f67ba:	ea41 5104 	orrgt.w	r1, r1, r4, lsl #20
 23f67be:	bd70      	popgt	{r4, r5, r6, pc}
 23f67c0:	f441 1180 	orr.w	r1, r1, #1048576	; 0x100000
 23f67c4:	f04f 0e00 	mov.w	lr, #0
 23f67c8:	3c01      	subs	r4, #1
 23f67ca:	e690      	b.n	23f64ee <__aeabi_dmul+0xde>
 23f67cc:	ea45 0e06 	orr.w	lr, r5, r6
 23f67d0:	e68d      	b.n	23f64ee <__aeabi_dmul+0xde>
 23f67d2:	ea0c 5513 	and.w	r5, ip, r3, lsr #20
 23f67d6:	ea94 0f0c 	teq	r4, ip
 23f67da:	bf08      	it	eq
 23f67dc:	ea95 0f0c 	teqeq	r5, ip
 23f67e0:	f43f af3b 	beq.w	23f665a <__aeabi_dmul+0x24a>
 23f67e4:	ea94 0f0c 	teq	r4, ip
 23f67e8:	d10a      	bne.n	23f6800 <__aeabi_ddiv+0x19c>
 23f67ea:	ea50 3401 	orrs.w	r4, r0, r1, lsl #12
 23f67ee:	f47f af34 	bne.w	23f665a <__aeabi_dmul+0x24a>
 23f67f2:	ea95 0f0c 	teq	r5, ip
 23f67f6:	f47f af25 	bne.w	23f6644 <__aeabi_dmul+0x234>
 23f67fa:	4610      	mov	r0, r2
 23f67fc:	4619      	mov	r1, r3
 23f67fe:	e72c      	b.n	23f665a <__aeabi_dmul+0x24a>
 23f6800:	ea95 0f0c 	teq	r5, ip
 23f6804:	d106      	bne.n	23f6814 <__aeabi_ddiv+0x1b0>
 23f6806:	ea52 3503 	orrs.w	r5, r2, r3, lsl #12
 23f680a:	f43f aefd 	beq.w	23f6608 <__aeabi_dmul+0x1f8>
 23f680e:	4610      	mov	r0, r2
 23f6810:	4619      	mov	r1, r3
 23f6812:	e722      	b.n	23f665a <__aeabi_dmul+0x24a>
 23f6814:	ea50 0641 	orrs.w	r6, r0, r1, lsl #1
 23f6818:	bf18      	it	ne
 23f681a:	ea52 0643 	orrsne.w	r6, r2, r3, lsl #1
 23f681e:	f47f aec5 	bne.w	23f65ac <__aeabi_dmul+0x19c>
 23f6822:	ea50 0441 	orrs.w	r4, r0, r1, lsl #1
 23f6826:	f47f af0d 	bne.w	23f6644 <__aeabi_dmul+0x234>
 23f682a:	ea52 0543 	orrs.w	r5, r2, r3, lsl #1
 23f682e:	f47f aeeb 	bne.w	23f6608 <__aeabi_dmul+0x1f8>
 23f6832:	e712      	b.n	23f665a <__aeabi_dmul+0x24a>

023f6834 <__gedf2>:
 23f6834:	f04f 3cff 	mov.w	ip, #4294967295
 23f6838:	e006      	b.n	23f6848 <__cmpdf2+0x4>
 23f683a:	bf00      	nop

023f683c <__ledf2>:
 23f683c:	f04f 0c01 	mov.w	ip, #1
 23f6840:	e002      	b.n	23f6848 <__cmpdf2+0x4>
 23f6842:	bf00      	nop

023f6844 <__cmpdf2>:
 23f6844:	f04f 0c01 	mov.w	ip, #1
 23f6848:	f84d cd04 	str.w	ip, [sp, #-4]!
 23f684c:	ea4f 0c41 	mov.w	ip, r1, lsl #1
 23f6850:	ea7f 5c6c 	mvns.w	ip, ip, asr #21
 23f6854:	ea4f 0c43 	mov.w	ip, r3, lsl #1
 23f6858:	bf18      	it	ne
 23f685a:	ea7f 5c6c 	mvnsne.w	ip, ip, asr #21
 23f685e:	d01b      	beq.n	23f6898 <__cmpdf2+0x54>
 23f6860:	b001      	add	sp, #4
 23f6862:	ea50 0c41 	orrs.w	ip, r0, r1, lsl #1
 23f6866:	bf0c      	ite	eq
 23f6868:	ea52 0c43 	orrseq.w	ip, r2, r3, lsl #1
 23f686c:	ea91 0f03 	teqne	r1, r3
 23f6870:	bf02      	ittt	eq
 23f6872:	ea90 0f02 	teqeq	r0, r2
 23f6876:	2000      	moveq	r0, #0
 23f6878:	4770      	bxeq	lr
 23f687a:	f110 0f00 	cmn.w	r0, #0
 23f687e:	ea91 0f03 	teq	r1, r3
 23f6882:	bf58      	it	pl
 23f6884:	4299      	cmppl	r1, r3
 23f6886:	bf08      	it	eq
 23f6888:	4290      	cmpeq	r0, r2
 23f688a:	bf2c      	ite	cs
 23f688c:	17d8      	asrcs	r0, r3, #31
 23f688e:	ea6f 70e3 	mvncc.w	r0, r3, asr #31
 23f6892:	f040 0001 	orr.w	r0, r0, #1
 23f6896:	4770      	bx	lr
 23f6898:	ea4f 0c41 	mov.w	ip, r1, lsl #1
 23f689c:	ea7f 5c6c 	mvns.w	ip, ip, asr #21
 23f68a0:	d102      	bne.n	23f68a8 <__cmpdf2+0x64>
 23f68a2:	ea50 3c01 	orrs.w	ip, r0, r1, lsl #12
 23f68a6:	d107      	bne.n	23f68b8 <__cmpdf2+0x74>
 23f68a8:	ea4f 0c43 	mov.w	ip, r3, lsl #1
 23f68ac:	ea7f 5c6c 	mvns.w	ip, ip, asr #21
 23f68b0:	d1d6      	bne.n	23f6860 <__cmpdf2+0x1c>
 23f68b2:	ea52 3c03 	orrs.w	ip, r2, r3, lsl #12
 23f68b6:	d0d3      	beq.n	23f6860 <__cmpdf2+0x1c>
 23f68b8:	f85d 0b04 	ldr.w	r0, [sp], #4
 23f68bc:	4770      	bx	lr
 23f68be:	bf00      	nop

023f68c0 <__aeabi_cdrcmple>:
 23f68c0:	4684      	mov	ip, r0
 23f68c2:	4610      	mov	r0, r2
 23f68c4:	4662      	mov	r2, ip
 23f68c6:	468c      	mov	ip, r1
 23f68c8:	4619      	mov	r1, r3
 23f68ca:	4663      	mov	r3, ip
 23f68cc:	e000      	b.n	23f68d0 <__aeabi_cdcmpeq>
 23f68ce:	bf00      	nop

023f68d0 <__aeabi_cdcmpeq>:
 23f68d0:	b501      	push	{r0, lr}
 23f68d2:	f7ff ffb7 	bl	23f6844 <__cmpdf2>
 23f68d6:	2800      	cmp	r0, #0
 23f68d8:	bf48      	it	mi
 23f68da:	f110 0f00 	cmnmi.w	r0, #0
 23f68de:	bd01      	pop	{r0, pc}

023f68e0 <__aeabi_dcmpeq>:
 23f68e0:	f84d ed08 	str.w	lr, [sp, #-8]!
 23f68e4:	f7ff fff4 	bl	23f68d0 <__aeabi_cdcmpeq>
 23f68e8:	bf0c      	ite	eq
 23f68ea:	2001      	moveq	r0, #1
 23f68ec:	2000      	movne	r0, #0
 23f68ee:	f85d fb08 	ldr.w	pc, [sp], #8
 23f68f2:	bf00      	nop

023f68f4 <__aeabi_dcmplt>:
 23f68f4:	f84d ed08 	str.w	lr, [sp, #-8]!
 23f68f8:	f7ff ffea 	bl	23f68d0 <__aeabi_cdcmpeq>
 23f68fc:	bf34      	ite	cc
 23f68fe:	2001      	movcc	r0, #1
 23f6900:	2000      	movcs	r0, #0
 23f6902:	f85d fb08 	ldr.w	pc, [sp], #8
 23f6906:	bf00      	nop

023f6908 <__aeabi_dcmple>:
 23f6908:	f84d ed08 	str.w	lr, [sp, #-8]!
 23f690c:	f7ff ffe0 	bl	23f68d0 <__aeabi_cdcmpeq>
 23f6910:	bf94      	ite	ls
 23f6912:	2001      	movls	r0, #1
 23f6914:	2000      	movhi	r0, #0
 23f6916:	f85d fb08 	ldr.w	pc, [sp], #8
 23f691a:	bf00      	nop

023f691c <__aeabi_dcmpge>:
 23f691c:	f84d ed08 	str.w	lr, [sp, #-8]!
 23f6920:	f7ff ffce 	bl	23f68c0 <__aeabi_cdrcmple>
 23f6924:	bf94      	ite	ls
 23f6926:	2001      	movls	r0, #1
 23f6928:	2000      	movhi	r0, #0
 23f692a:	f85d fb08 	ldr.w	pc, [sp], #8
 23f692e:	bf00      	nop

023f6930 <__aeabi_dcmpgt>:
 23f6930:	f84d ed08 	str.w	lr, [sp, #-8]!
 23f6934:	f7ff ffc4 	bl	23f68c0 <__aeabi_cdrcmple>
 23f6938:	bf34      	ite	cc
 23f693a:	2001      	movcc	r0, #1
 23f693c:	2000      	movcs	r0, #0
 23f693e:	f85d fb08 	ldr.w	pc, [sp], #8
 23f6942:	bf00      	nop

023f6944 <__aeabi_dcmpun>:
 23f6944:	ea4f 0c41 	mov.w	ip, r1, lsl #1
 23f6948:	ea7f 5c6c 	mvns.w	ip, ip, asr #21
 23f694c:	d102      	bne.n	23f6954 <__aeabi_dcmpun+0x10>
 23f694e:	ea50 3c01 	orrs.w	ip, r0, r1, lsl #12
 23f6952:	d10a      	bne.n	23f696a <__aeabi_dcmpun+0x26>
 23f6954:	ea4f 0c43 	mov.w	ip, r3, lsl #1
 23f6958:	ea7f 5c6c 	mvns.w	ip, ip, asr #21
 23f695c:	d102      	bne.n	23f6964 <__aeabi_dcmpun+0x20>
 23f695e:	ea52 3c03 	orrs.w	ip, r2, r3, lsl #12
 23f6962:	d102      	bne.n	23f696a <__aeabi_dcmpun+0x26>
 23f6964:	f04f 0000 	mov.w	r0, #0
 23f6968:	4770      	bx	lr
 23f696a:	f04f 0001 	mov.w	r0, #1
 23f696e:	4770      	bx	lr

023f6970 <__aeabi_d2iz>:
 23f6970:	ea4f 0241 	mov.w	r2, r1, lsl #1
 23f6974:	f512 1200 	adds.w	r2, r2, #2097152	; 0x200000
 23f6978:	d215      	bcs.n	23f69a6 <__aeabi_d2iz+0x36>
 23f697a:	d511      	bpl.n	23f69a0 <__aeabi_d2iz+0x30>
 23f697c:	f46f 7378 	mvn.w	r3, #992	; 0x3e0
 23f6980:	ebb3 5262 	subs.w	r2, r3, r2, asr #21
 23f6984:	d912      	bls.n	23f69ac <__aeabi_d2iz+0x3c>
 23f6986:	ea4f 23c1 	mov.w	r3, r1, lsl #11
 23f698a:	f043 4300 	orr.w	r3, r3, #2147483648	; 0x80000000
 23f698e:	ea43 5350 	orr.w	r3, r3, r0, lsr #21
 23f6992:	f011 4f00 	tst.w	r1, #2147483648	; 0x80000000
 23f6996:	fa23 f002 	lsr.w	r0, r3, r2
 23f699a:	bf18      	it	ne
 23f699c:	4240      	negne	r0, r0
 23f699e:	4770      	bx	lr
 23f69a0:	f04f 0000 	mov.w	r0, #0
 23f69a4:	4770      	bx	lr
 23f69a6:	ea50 3001 	orrs.w	r0, r0, r1, lsl #12
 23f69aa:	d105      	bne.n	23f69b8 <__aeabi_d2iz+0x48>
 23f69ac:	f011 4000 	ands.w	r0, r1, #2147483648	; 0x80000000
 23f69b0:	bf08      	it	eq
 23f69b2:	f06f 4000 	mvneq.w	r0, #2147483648	; 0x80000000
 23f69b6:	4770      	bx	lr
 23f69b8:	f04f 0000 	mov.w	r0, #0
 23f69bc:	4770      	bx	lr
 23f69be:	bf00      	nop

023f69c0 <__aeabi_d2f>:
 23f69c0:	ea4f 0241 	mov.w	r2, r1, lsl #1
 23f69c4:	f1b2 43e0 	subs.w	r3, r2, #1879048192	; 0x70000000
 23f69c8:	bf24      	itt	cs
 23f69ca:	f5b3 1c00 	subscs.w	ip, r3, #2097152	; 0x200000
 23f69ce:	f1dc 5cfe 	rsbscs	ip, ip, #532676608	; 0x1fc00000
 23f69d2:	d90d      	bls.n	23f69f0 <__aeabi_d2f+0x30>
 23f69d4:	f001 4c00 	and.w	ip, r1, #2147483648	; 0x80000000
 23f69d8:	ea4f 02c0 	mov.w	r2, r0, lsl #3
 23f69dc:	ea4c 7050 	orr.w	r0, ip, r0, lsr #29
 23f69e0:	f1b2 4f00 	cmp.w	r2, #2147483648	; 0x80000000
 23f69e4:	eb40 0083 	adc.w	r0, r0, r3, lsl #2
 23f69e8:	bf08      	it	eq
 23f69ea:	f020 0001 	biceq.w	r0, r0, #1
 23f69ee:	4770      	bx	lr
 23f69f0:	f011 4f80 	tst.w	r1, #1073741824	; 0x40000000
 23f69f4:	d121      	bne.n	23f6a3a <__aeabi_d2f+0x7a>
 23f69f6:	f113 7238 	adds.w	r2, r3, #48234496	; 0x2e00000
 23f69fa:	bfbc      	itt	lt
 23f69fc:	f001 4000 	andlt.w	r0, r1, #2147483648	; 0x80000000
 23f6a00:	4770      	bxlt	lr
 23f6a02:	f441 1180 	orr.w	r1, r1, #1048576	; 0x100000
 23f6a06:	ea4f 5252 	mov.w	r2, r2, lsr #21
 23f6a0a:	f1c2 0218 	rsb	r2, r2, #24
 23f6a0e:	f1c2 0c20 	rsb	ip, r2, #32
 23f6a12:	fa10 f30c 	lsls.w	r3, r0, ip
 23f6a16:	fa20 f002 	lsr.w	r0, r0, r2
 23f6a1a:	bf18      	it	ne
 23f6a1c:	f040 0001 	orrne.w	r0, r0, #1
 23f6a20:	ea4f 23c1 	mov.w	r3, r1, lsl #11
 23f6a24:	ea4f 23d3 	mov.w	r3, r3, lsr #11
 23f6a28:	fa03 fc0c 	lsl.w	ip, r3, ip
 23f6a2c:	ea40 000c 	orr.w	r0, r0, ip
 23f6a30:	fa23 f302 	lsr.w	r3, r3, r2
 23f6a34:	ea4f 0343 	mov.w	r3, r3, lsl #1
 23f6a38:	e7cc      	b.n	23f69d4 <__aeabi_d2f+0x14>
 23f6a3a:	ea7f 5362 	mvns.w	r3, r2, asr #21
 23f6a3e:	d107      	bne.n	23f6a50 <__aeabi_d2f+0x90>
 23f6a40:	ea50 3301 	orrs.w	r3, r0, r1, lsl #12
 23f6a44:	bf1e      	ittt	ne
 23f6a46:	f04f 40fe 	movne.w	r0, #2130706432	; 0x7f000000
 23f6a4a:	f440 0040 	orrne.w	r0, r0, #12582912	; 0xc00000
 23f6a4e:	4770      	bxne	lr
 23f6a50:	f001 4000 	and.w	r0, r1, #2147483648	; 0x80000000
 23f6a54:	f040 40fe 	orr.w	r0, r0, #2130706432	; 0x7f000000
 23f6a58:	f440 0000 	orr.w	r0, r0, #8388608	; 0x800000
 23f6a5c:	4770      	bx	lr
 23f6a5e:	bf00      	nop

023f6a60 <strlen>:
 23f6a60:	4603      	mov	r3, r0
 23f6a62:	f813 2b01 	ldrb.w	r2, [r3], #1
 23f6a66:	2a00      	cmp	r2, #0
 23f6a68:	d1fb      	bne.n	23f6a62 <strlen+0x2>
 23f6a6a:	1a18      	subs	r0, r3, r0
 23f6a6c:	3801      	subs	r0, #1
 23f6a6e:	4770      	bx	lr

023f6a70 <module_user_init>:
extern constructor_ptr_t link_constructors_location[];
extern constructor_ptr_t link_constructors_end;
#define link_constructors_size   ((unsigned long)&link_constructors_end  -  (unsigned long)&link_constructors_location )

void module_user_init()
{
 23f6a70:	b570      	push	{r4, r5, r6, lr}
    module_user_init_hook();
 23f6a72:	f002 fba3 	bl	23f91bc <module_user_init_hook>

    // invoke constructors
    unsigned ctor_num;
    for (ctor_num=0; ctor_num < link_constructors_size/sizeof(constructor_ptr_t); ctor_num++ )
 23f6a76:	2500      	movs	r5, #0
 23f6a78:	4e05      	ldr	r6, [pc, #20]	; (23f6a90 <module_user_init+0x20>)
 23f6a7a:	4c06      	ldr	r4, [pc, #24]	; (23f6a94 <module_user_init+0x24>)
 23f6a7c:	1ba4      	subs	r4, r4, r6
 23f6a7e:	08a4      	lsrs	r4, r4, #2
 23f6a80:	42ac      	cmp	r4, r5
 23f6a82:	d100      	bne.n	23f6a86 <module_user_init+0x16>
    {
        link_constructors_location[ctor_num]();
    }
}
 23f6a84:	bd70      	pop	{r4, r5, r6, pc}
        link_constructors_location[ctor_num]();
 23f6a86:	f856 3b04 	ldr.w	r3, [r6], #4
 23f6a8a:	4798      	blx	r3
    for (ctor_num=0; ctor_num < link_constructors_size/sizeof(constructor_ptr_t); ctor_num++ )
 23f6a8c:	3501      	adds	r5, #1
 23f6a8e:	e7f7      	b.n	23f6a80 <module_user_init+0x10>
 23f6a90:	023fffcc 	.word	0x023fffcc
 23f6a94:	023ffff0 	.word	0x023ffff0

023f6a98 <module_user_setup>:

/**
 * Export these functions with a fuller name so they don't clash with the setup/loop wrappers in the system module.
 */
void module_user_setup() {
    setup();
 23f6a98:	f001 bc36 	b.w	23f8308 <setup>

023f6a9c <module_user_loop>:
}

void module_user_loop() {
 23f6a9c:	b508      	push	{r3, lr}
    loop();
 23f6a9e:	f001 fd0f 	bl	23f84c0 <loop>
    _post_loop();
}
 23f6aa2:	e8bd 4008 	ldmia.w	sp!, {r3, lr}
    _post_loop();
 23f6aa6:	f002 bb41 	b.w	23f912c <_post_loop>

023f6aaa <_Znwj>:
 * Implement C++ new/delete operators using the heap
 */

void *operator new(size_t size)
{
	return malloc(size);
 23f6aaa:	f002 b9db 	b.w	23f8e64 <malloc>

023f6aae <_Znaj>:
 23f6aae:	f002 b9d9 	b.w	23f8e64 <malloc>

023f6ab2 <_ZdlPvj>:
	free(p);
}

void operator delete(void *p, size_t size)
{
	free(p);
 23f6ab2:	f002 b9e5 	b.w	23f8e80 <free>

023f6ab6 <__cxa_guard_acquire>:

/* Provide default implemenation for __cxa_guard_acquire() and
 * __cxa_guard_release(). Note: these must be revisited if a multitasking
 * OS is ported to this platform. */
__extension__ typedef int __guard __attribute__((mode (__DI__)));
int __cxa_guard_acquire(__guard *g) {return !*(char *)(g);};
 23f6ab6:	7800      	ldrb	r0, [r0, #0]
 23f6ab8:	fab0 f080 	clz	r0, r0
 23f6abc:	0940      	lsrs	r0, r0, #5
 23f6abe:	4770      	bx	lr

023f6ac0 <__cxa_guard_release>:
void __cxa_guard_release (__guard *g) {*(char *)g = 1;};
 23f6ac0:	2301      	movs	r3, #1
 23f6ac2:	7003      	strb	r3, [r0, #0]
 23f6ac4:	4770      	bx	lr

023f6ac6 <feature2_vector_zero>:
    return 700.0 * (pow(10.0, mel / 2595.0) - 1.0);
}

void feature2_vector_zero(Feature2Vector *fv)
{
    if (fv != NULL)
 23f6ac6:	b118      	cbz	r0, 23f6ad0 <feature2_vector_zero+0xa>
    {
        memset(fv, 0, sizeof(Feature2Vector));
 23f6ac8:	2290      	movs	r2, #144	; 0x90
 23f6aca:	2100      	movs	r1, #0
 23f6acc:	f005 bf75 	b.w	23fc9ba <memset>
    }
}
 23f6ad0:	4770      	bx	lr
 23f6ad2:	0000      	movs	r0, r0
 23f6ad4:	0000      	movs	r0, r0
	...

023f6ad8 <feature2_extract_segment.part.0>:
            chroma_out[i] /= max_val;
        }
    }
}

bool feature2_extract_segment(
 23f6ad8:	e92d 4ff0 	stmdb	sp!, {r4, r5, r6, r7, r8, r9, sl, fp, lr}
 23f6adc:	ed2d 8b10 	vpush	{d8-d15}
 23f6ae0:	4683      	mov	fp, r0
 23f6ae2:	b0f9      	sub	sp, #484	; 0x1e4
    if (!fx->initialized || num_samples == 0)
    {
        return false;
    }

    feature2_vector_zero(out_features);
 23f6ae4:	4618      	mov	r0, r3
bool feature2_extract_segment(
 23f6ae6:	9306      	str	r3, [sp, #24]
 23f6ae8:	9116      	str	r1, [sp, #88]	; 0x58
 23f6aea:	9203      	str	r2, [sp, #12]
    feature2_vector_zero(out_features);
 23f6aec:	f7ff ffeb 	bl	23f6ac6 <feature2_vector_zero>

    double centroid_sum = 0.0;
    double mfcc_sums[F2_NUM_MFCC] = {0};
 23f6af0:	2228      	movs	r2, #40	; 0x28
 23f6af2:	2100      	movs	r1, #0
 23f6af4:	a818      	add	r0, sp, #96	; 0x60
 23f6af6:	f005 ff60 	bl	23fc9ba <memset>
    double chroma_sums[F2_NUM_CHROMA] = {0};
 23f6afa:	2260      	movs	r2, #96	; 0x60
 23f6afc:	2100      	movs	r1, #0
 23f6afe:	a82c      	add	r0, sp, #176	; 0xb0
 23f6b00:	f005 ff5b 	bl	23fc9ba <memset>
    double centroid_sum = 0.0;
 23f6b04:	ed9f 7b5a 	vldr	d7, [pc, #360]	; 23f6c70 <feature2_extract_segment.part.0+0x198>

    uint32_t n_frames = 0;
 23f6b08:	2300      	movs	r3, #0
    double centroid_sum = 0.0;
 23f6b0a:	ed8d 7b04 	vstr	d7, [sp, #16]
 23f6b0e:	eeb0 aa47 	vmov.f32	s20, s14
 23f6b12:	eef0 aa67 	vmov.f32	s21, s15
        double x = 0.0;
 23f6b16:	eeb0 8a47 	vmov.f32	s16, s14
 23f6b1a:	eef0 8a67 	vmov.f32	s17, s15
            double w_im = 0.0;
 23f6b1e:	eeb0 ba47 	vmov.f32	s22, s14
 23f6b22:	eef0 ba67 	vmov.f32	s23, s15
    uint32_t n_frames = 0;
 23f6b26:	9302      	str	r3, [sp, #8]
 23f6b28:	9b02      	ldr	r3, [sp, #8]
 23f6b2a:	9a02      	ldr	r2, [sp, #8]
 23f6b2c:	025b      	lsls	r3, r3, #9
 23f6b2e:	930e      	str	r3, [sp, #56]	; 0x38
    for (int n = 0; n < F2_FRAME_LEN; n++)
 23f6b30:	9b16      	ldr	r3, [sp, #88]	; 0x58
 23f6b32:	f50b 4980 	add.w	r9, fp, #16384	; 0x4000
 23f6b36:	eb03 3502 	add.w	r5, r3, r2, lsl #12
 23f6b3a:	f50b 4300 	add.w	r3, fp, #32768	; 0x8000
 23f6b3e:	3308      	adds	r3, #8
 23f6b40:	f109 0908 	add.w	r9, r9, #8
    double centroid_sum = 0.0;
 23f6b44:	461e      	mov	r6, r3
 23f6b46:	464f      	mov	r7, r9
    for (int n = 0; n < F2_FRAME_LEN; n++)
 23f6b48:	2400      	movs	r4, #0
 23f6b4a:	f10b 0808 	add.w	r8, fp, #8
 23f6b4e:	9300      	str	r3, [sp, #0]
        if (idx < num_samples)
 23f6b50:	9b0e      	ldr	r3, [sp, #56]	; 0x38
 23f6b52:	9a03      	ldr	r2, [sp, #12]
 23f6b54:	18e3      	adds	r3, r4, r3
 23f6b56:	429a      	cmp	r2, r3
 23f6b58:	d91a      	bls.n	23f6b90 <feature2_extract_segment.part.0+0xb8>
            x = samples[idx];
 23f6b5a:	e9d5 2300 	ldrd	r2, r3, [r5]
        fx->fft_re[n] = x * fx->window[n];
 23f6b5e:	e8f8 0102 	ldrd	r0, r1, [r8], #8
 23f6b62:	f7ff fc55 	bl	23f6410 <__aeabi_dmul>
    for (int n = 0; n < F2_FRAME_LEN; n++)
 23f6b66:	3401      	adds	r4, #1
 23f6b68:	f5b4 6f00 	cmp.w	r4, #2048	; 0x800
        fx->fft_re[n] = x * fx->window[n];
 23f6b6c:	e8e7 0102 	strd	r0, r1, [r7], #8
    for (int n = 0; n < F2_FRAME_LEN; n++)
 23f6b70:	f105 0508 	add.w	r5, r5, #8
        fx->fft_im[n] = 0.0;
 23f6b74:	eca6 ab02 	vstmia	r6!, {d10}
    for (int n = 0; n < F2_FRAME_LEN; n++)
 23f6b78:	d1ea      	bne.n	23f6b50 <feature2_extract_segment.part.0+0x78>
    uint32_t j = 0;
 23f6b7a:	2300      	movs	r3, #0
    for (uint32_t i = 1; i < n; i++)
 23f6b7c:	2401      	movs	r4, #1
 23f6b7e:	f50b 4280 	add.w	r2, fp, #16384	; 0x4000
 23f6b82:	f50b 4100 	add.w	r1, fp, #32768	; 0x8000
 23f6b86:	3210      	adds	r2, #16
 23f6b88:	3110      	adds	r1, #16
        uint32_t bit = n >> 1;
 23f6b8a:	f44f 6080 	mov.w	r0, #1024	; 0x400
 23f6b8e:	e003      	b.n	23f6b98 <feature2_extract_segment.part.0+0xc0>
        double x = 0.0;
 23f6b90:	ec53 2b18 	vmov	r2, r3, d8
 23f6b94:	e7e3      	b.n	23f6b5e <feature2_extract_segment.part.0+0x86>
            bit >>= 1;
 23f6b96:	0840      	lsrs	r0, r0, #1
        while (j & bit)
 23f6b98:	ea03 0500 	and.w	r5, r3, r0
            j ^= bit;
 23f6b9c:	4043      	eors	r3, r0
        while (j & bit)
 23f6b9e:	2d00      	cmp	r5, #0
 23f6ba0:	d1f9      	bne.n	23f6b96 <feature2_extract_segment.part.0+0xbe>
        if (i < j)
 23f6ba2:	42a3      	cmp	r3, r4
 23f6ba4:	d914      	bls.n	23f6bd0 <feature2_extract_segment.part.0+0xf8>
            double ti = im[i];
 23f6ba6:	e9d1 6700 	ldrd	r6, r7, [r1]
            re[i] = re[j];
 23f6baa:	eb09 05c3 	add.w	r5, r9, r3, lsl #3
 23f6bae:	ed95 6b00 	vldr	d6, [r5]
            double tr = re[i];
 23f6bb2:	ed92 7b00 	vldr	d7, [r2]
            re[i] = re[j];
 23f6bb6:	ed82 6b00 	vstr	d6, [r2]
            im[i] = im[j];
 23f6bba:	9800      	ldr	r0, [sp, #0]
 23f6bbc:	eb00 00c3 	add.w	r0, r0, r3, lsl #3
 23f6bc0:	ed90 6b00 	vldr	d6, [r0]
 23f6bc4:	ed81 6b00 	vstr	d6, [r1]
            re[j] = tr;
 23f6bc8:	ed85 7b00 	vstr	d7, [r5]
            im[j] = ti;
 23f6bcc:	e9c0 6700 	strd	r6, r7, [r0]
    for (uint32_t i = 1; i < n; i++)
 23f6bd0:	3401      	adds	r4, #1
 23f6bd2:	f5b4 6f00 	cmp.w	r4, #2048	; 0x800
 23f6bd6:	f102 0208 	add.w	r2, r2, #8
 23f6bda:	f101 0108 	add.w	r1, r1, #8
 23f6bde:	d1d4      	bne.n	23f6b8a <feature2_extract_segment.part.0+0xb2>
 23f6be0:	230b      	movs	r3, #11
    for (uint32_t length = 2; length <= n; length <<= 1)
 23f6be2:	2702      	movs	r7, #2
            double w_re = 1.0;
 23f6be4:	ed9f cb1e 	vldr	d12, [pc, #120]	; 23f6c60 <feature2_extract_segment.part.0+0x188>
 23f6be8:	930f      	str	r3, [sp, #60]	; 0x3c
        double angle = -2.0 * (double)M_PI / (double)length;
 23f6bea:	4638      	mov	r0, r7
 23f6bec:	f7ff fb96 	bl	23f631c <__aeabi_ui2d>
 23f6bf0:	460b      	mov	r3, r1
 23f6bf2:	4602      	mov	r2, r0
 23f6bf4:	a11c      	add	r1, pc, #112	; (adr r1, 23f6c68 <feature2_extract_segment.part.0+0x190>)
 23f6bf6:	e9d1 0100 	ldrd	r0, r1, [r1]
 23f6bfa:	f7ff fd33 	bl	23f6664 <__aeabi_ddiv>
        double wlen_re = cos(angle);
 23f6bfe:	ec41 0b10 	vmov	d0, r0, r1
        double angle = -2.0 * (double)M_PI / (double)length;
 23f6c02:	ec41 0b19 	vmov	d9, r0, r1
        double wlen_re = cos(angle);
 23f6c06:	f003 f93b 	bl	23f9e80 <cos>
 23f6c0a:	eeb0 fa40 	vmov.f32	s30, s0
 23f6c0e:	eef0 fa60 	vmov.f32	s31, s1
        double wlen_im = sin(angle);
 23f6c12:	eeb0 0a49 	vmov.f32	s0, s18
 23f6c16:	eef0 0a69 	vmov.f32	s1, s19
 23f6c1a:	f003 fa09 	bl	23fa030 <sin>
        uint32_t half = length >> 1;
 23f6c1e:	464e      	mov	r6, r9
        double wlen_im = sin(angle);
 23f6c20:	ed8d 0b0a 	vstr	d0, [sp, #40]	; 0x28
        for (uint32_t start = 0; start < n; start += length)
 23f6c24:	2500      	movs	r5, #0
        uint32_t half = length >> 1;
 23f6c26:	087b      	lsrs	r3, r7, #1
 23f6c28:	9315      	str	r3, [sp, #84]	; 0x54
        for (uint32_t start = 0; start < n; start += length)
 23f6c2a:	00fb      	lsls	r3, r7, #3
 23f6c2c:	9314      	str	r3, [sp, #80]	; 0x50
 23f6c2e:	087b      	lsrs	r3, r7, #1
 23f6c30:	f603 0401 	addw	r4, r3, #2049	; 0x801
 23f6c34:	eb0b 04c4 	add.w	r4, fp, r4, lsl #3
 23f6c38:	f504 4380 	add.w	r3, r4, #16384	; 0x4000
 23f6c3c:	9309      	str	r3, [sp, #36]	; 0x24
            for (uint32_t k = start; k < start + half; k++)
 23f6c3e:	9b15      	ldr	r3, [sp, #84]	; 0x54
                w_re = next_re;
 23f6c40:	46a0      	mov	r8, r4
            for (uint32_t k = start; k < start + half; k++)
 23f6c42:	442b      	add	r3, r5
            double w_im = 0.0;
 23f6c44:	eeb0 ea4b 	vmov.f32	s28, s22
 23f6c48:	eef0 ea6b 	vmov.f32	s29, s23
            double w_re = 1.0;
 23f6c4c:	eeb0 da4c 	vmov.f32	s26, s24
 23f6c50:	eef0 da6c 	vmov.f32	s27, s25
 23f6c54:	f506 4a80 	add.w	sl, r6, #16384	; 0x4000
                w_re = next_re;
 23f6c58:	9608      	str	r6, [sp, #32]
 23f6c5a:	9507      	str	r5, [sp, #28]
            for (uint32_t k = start; k < start + half; k++)
 23f6c5c:	9317      	str	r3, [sp, #92]	; 0x5c
 23f6c5e:	e0a4      	b.n	23f6daa <feature2_extract_segment.part.0+0x2d2>
 23f6c60:	00000000 	.word	0x00000000
 23f6c64:	3ff00000 	.word	0x3ff00000
 23f6c68:	54442d18 	.word	0x54442d18
 23f6c6c:	c01921fb 	.word	0xc01921fb
	...
                double v_re = re[j] * w_re - im[j] * w_im;
 23f6c78:	ed98 7b00 	vldr	d7, [r8]
 23f6c7c:	9b09      	ldr	r3, [sp, #36]	; 0x24
 23f6c7e:	eeb0 9a47 	vmov.f32	s18, s14
 23f6c82:	eef0 9a67 	vmov.f32	s19, s15
 23f6c86:	ed93 7b00 	vldr	d7, [r3]
 23f6c8a:	ec51 0b19 	vmov	r0, r1, d9
 23f6c8e:	ec53 2b1d 	vmov	r2, r3, d13
 23f6c92:	ed8d 7b0c 	vstr	d7, [sp, #48]	; 0x30
 23f6c96:	f7ff fbbb 	bl	23f6410 <__aeabi_dmul>
 23f6c9a:	ec53 2b1e 	vmov	r2, r3, d14
 23f6c9e:	e9cd 0110 	strd	r0, r1, [sp, #64]	; 0x40
 23f6ca2:	e9dd 010c 	ldrd	r0, r1, [sp, #48]	; 0x30
 23f6ca6:	f7ff fbb3 	bl	23f6410 <__aeabi_dmul>
 23f6caa:	4602      	mov	r2, r0
 23f6cac:	460b      	mov	r3, r1
 23f6cae:	e9dd 0110 	ldrd	r0, r1, [sp, #64]	; 0x40
 23f6cb2:	f7ff f9f5 	bl	23f60a0 <__aeabi_dsub>
                double v_im = re[j] * w_im + im[j] * w_re;
 23f6cb6:	ec53 2b1e 	vmov	r2, r3, d14
                double v_re = re[j] * w_re - im[j] * w_im;
 23f6cba:	e9cd 0110 	strd	r0, r1, [sp, #64]	; 0x40
                double v_im = re[j] * w_im + im[j] * w_re;
 23f6cbe:	ec51 0b19 	vmov	r0, r1, d9
 23f6cc2:	f7ff fba5 	bl	23f6410 <__aeabi_dmul>
 23f6cc6:	e9dd 230c 	ldrd	r2, r3, [sp, #48]	; 0x30
 23f6cca:	ec41 0b19 	vmov	d9, r0, r1
 23f6cce:	ec51 0b1d 	vmov	r0, r1, d13
 23f6cd2:	f7ff fb9d 	bl	23f6410 <__aeabi_dmul>
 23f6cd6:	4602      	mov	r2, r0
 23f6cd8:	460b      	mov	r3, r1
 23f6cda:	ec51 0b19 	vmov	r0, r1, d9
 23f6cde:	f7ff f9e1 	bl	23f60a4 <__adddf3>
                double u_re = re[k];
 23f6ce2:	9b08      	ldr	r3, [sp, #32]
                double v_im = re[j] * w_im + im[j] * w_re;
 23f6ce4:	e9cd 0112 	strd	r0, r1, [sp, #72]	; 0x48
                re[k] = u_re + v_re;
 23f6ce8:	e9dd 0110 	ldrd	r0, r1, [sp, #64]	; 0x40
                double u_re = re[k];
 23f6cec:	ed93 7b00 	vldr	d7, [r3]
 23f6cf0:	eeb0 9a47 	vmov.f32	s18, s14
 23f6cf4:	eef0 9a67 	vmov.f32	s19, s15
                double u_im = im[k];
 23f6cf8:	ed9a 7b00 	vldr	d7, [sl]
                re[k] = u_re + v_re;
 23f6cfc:	ec53 2b19 	vmov	r2, r3, d9
                double u_im = im[k];
 23f6d00:	ed8d 7b0c 	vstr	d7, [sp, #48]	; 0x30
                re[k] = u_re + v_re;
 23f6d04:	f7ff f9ce 	bl	23f60a4 <__adddf3>
 23f6d08:	9b08      	ldr	r3, [sp, #32]
 23f6d0a:	e8e3 0102 	strd	r0, r1, [r3], #8
                im[k] = u_im + v_im;
 23f6d0e:	e9dd 0112 	ldrd	r0, r1, [sp, #72]	; 0x48
                re[k] = u_re + v_re;
 23f6d12:	9308      	str	r3, [sp, #32]
                im[k] = u_im + v_im;
 23f6d14:	e9dd 230c 	ldrd	r2, r3, [sp, #48]	; 0x30
 23f6d18:	f7ff f9c4 	bl	23f60a4 <__adddf3>
                re[j] = u_re - v_re;
 23f6d1c:	e9dd 2310 	ldrd	r2, r3, [sp, #64]	; 0x40
                im[k] = u_im + v_im;
 23f6d20:	e8ea 0102 	strd	r0, r1, [sl], #8
                re[j] = u_re - v_re;
 23f6d24:	ec51 0b19 	vmov	r0, r1, d9
 23f6d28:	f7ff f9ba 	bl	23f60a0 <__aeabi_dsub>
                im[j] = u_im - v_im;
 23f6d2c:	e9dd 2312 	ldrd	r2, r3, [sp, #72]	; 0x48
                re[j] = u_re - v_re;
 23f6d30:	e8e8 0102 	strd	r0, r1, [r8], #8
                im[j] = u_im - v_im;
 23f6d34:	e9dd 010c 	ldrd	r0, r1, [sp, #48]	; 0x30
 23f6d38:	f7ff f9b2 	bl	23f60a0 <__aeabi_dsub>
 23f6d3c:	9b09      	ldr	r3, [sp, #36]	; 0x24
 23f6d3e:	e8e3 0102 	strd	r0, r1, [r3], #8
                double next_re = w_re * wlen_re - w_im * wlen_im;
 23f6d42:	ec51 0b1f 	vmov	r0, r1, d15
                im[j] = u_im - v_im;
 23f6d46:	9309      	str	r3, [sp, #36]	; 0x24
                double next_re = w_re * wlen_re - w_im * wlen_im;
 23f6d48:	ec53 2b1d 	vmov	r2, r3, d13
 23f6d4c:	f7ff fb60 	bl	23f6410 <__aeabi_dmul>
 23f6d50:	ec53 2b1e 	vmov	r2, r3, d14
 23f6d54:	ec41 0b19 	vmov	d9, r0, r1
 23f6d58:	e9dd 010a 	ldrd	r0, r1, [sp, #40]	; 0x28
 23f6d5c:	f7ff fb58 	bl	23f6410 <__aeabi_dmul>
 23f6d60:	4602      	mov	r2, r0
 23f6d62:	460b      	mov	r3, r1
 23f6d64:	ec51 0b19 	vmov	r0, r1, d9
 23f6d68:	f7ff f99a 	bl	23f60a0 <__aeabi_dsub>
                double next_im = w_re * wlen_im + w_im * wlen_re;
 23f6d6c:	ec53 2b1d 	vmov	r2, r3, d13
                double next_re = w_re * wlen_re - w_im * wlen_im;
 23f6d70:	ec41 0b19 	vmov	d9, r0, r1
                double next_im = w_re * wlen_im + w_im * wlen_re;
 23f6d74:	e9dd 010a 	ldrd	r0, r1, [sp, #40]	; 0x28
 23f6d78:	f7ff fb4a 	bl	23f6410 <__aeabi_dmul>
 23f6d7c:	ec53 2b1e 	vmov	r2, r3, d14
 23f6d80:	ec41 0b1d 	vmov	d13, r0, r1
 23f6d84:	ec51 0b1f 	vmov	r0, r1, d15
 23f6d88:	f7ff fb42 	bl	23f6410 <__aeabi_dmul>
 23f6d8c:	460b      	mov	r3, r1
 23f6d8e:	4602      	mov	r2, r0
 23f6d90:	ec51 0b1d 	vmov	r0, r1, d13
 23f6d94:	f7ff f986 	bl	23f60a4 <__adddf3>
                w_re = next_re;
 23f6d98:	eeb0 da49 	vmov.f32	s26, s18
 23f6d9c:	eef0 da69 	vmov.f32	s27, s19
                double next_im = w_re * wlen_im + w_im * wlen_re;
 23f6da0:	ec41 0b1e 	vmov	d14, r0, r1
            for (uint32_t k = start; k < start + half; k++)
 23f6da4:	9b07      	ldr	r3, [sp, #28]
 23f6da6:	3301      	adds	r3, #1
 23f6da8:	9307      	str	r3, [sp, #28]
 23f6daa:	9b07      	ldr	r3, [sp, #28]
 23f6dac:	9a17      	ldr	r2, [sp, #92]	; 0x5c
 23f6dae:	4293      	cmp	r3, r2
 23f6db0:	f4ff af62 	bcc.w	23f6c78 <feature2_extract_segment.part.0+0x1a0>
        for (uint32_t start = 0; start < n; start += length)
 23f6db4:	9b14      	ldr	r3, [sp, #80]	; 0x50
 23f6db6:	443d      	add	r5, r7
 23f6db8:	f5b5 6f00 	cmp.w	r5, #2048	; 0x800
 23f6dbc:	441c      	add	r4, r3
 23f6dbe:	441e      	add	r6, r3
 23f6dc0:	f4ff af3a 	bcc.w	23f6c38 <feature2_extract_segment.part.0+0x160>
    for (uint32_t length = 2; length <= n; length <<= 1)
 23f6dc4:	9b0f      	ldr	r3, [sp, #60]	; 0x3c
 23f6dc6:	007f      	lsls	r7, r7, #1
 23f6dc8:	3b01      	subs	r3, #1
 23f6dca:	930f      	str	r3, [sp, #60]	; 0x3c
 23f6dcc:	f47f af0d 	bne.w	23f6bea <feature2_extract_segment.part.0+0x112>
 23f6dd0:	f50b 4640 	add.w	r6, fp, #49152	; 0xc000
 23f6dd4:	3608      	adds	r6, #8
 23f6dd6:	46b2      	mov	sl, r6
 23f6dd8:	f50b 47c0 	add.w	r7, fp, #24576	; 0x6000
 23f6ddc:	3710      	adds	r7, #16
        double im = fx->fft_im[k];
 23f6dde:	9900      	ldr	r1, [sp, #0]
        double re = fx->fft_re[k];
 23f6de0:	e8f9 2302 	ldrd	r2, r3, [r9], #8
        double im = fx->fft_im[k];
 23f6de4:	ecb1 7b02 	vldmia	r1!, {d7}
 23f6de8:	eeb0 9a47 	vmov.f32	s18, s14
 23f6dec:	eef0 9a67 	vmov.f32	s19, s15
        double p = re * re + im * im;
 23f6df0:	4610      	mov	r0, r2
        double im = fx->fft_im[k];
 23f6df2:	9100      	str	r1, [sp, #0]
        double p = re * re + im * im;
 23f6df4:	4619      	mov	r1, r3
 23f6df6:	f7ff fb0b 	bl	23f6410 <__aeabi_dmul>
 23f6dfa:	ec53 2b19 	vmov	r2, r3, d9
 23f6dfe:	4604      	mov	r4, r0
 23f6e00:	460d      	mov	r5, r1
 23f6e02:	ee19 0a10 	vmov	r0, s18
 23f6e06:	4619      	mov	r1, r3
 23f6e08:	f7ff fb02 	bl	23f6410 <__aeabi_dmul>
 23f6e0c:	4602      	mov	r2, r0
 23f6e0e:	460b      	mov	r3, r1
 23f6e10:	4620      	mov	r0, r4
 23f6e12:	4629      	mov	r1, r5
 23f6e14:	f7ff f946 	bl	23f60a4 <__adddf3>
        fx->power[k] = p;
 23f6e18:	f509 4320 	add.w	r3, r9, #40960	; 0xa000
        double p = re * re + im * im;
 23f6e1c:	ec41 0b10 	vmov	d0, r0, r1
        fx->power[k] = p;
 23f6e20:	e9c3 0100 	strd	r0, r1, [r3]
        fx->magnitude[k] = sqrt(p);
 23f6e24:	f003 faba 	bl	23fa39c <sqrt>
    for (int k = 0; k < F2_SPEC_BINS; k++)
 23f6e28:	45b9      	cmp	r9, r7
        fx->magnitude[k] = sqrt(p);
 23f6e2a:	ecaa 0b02 	vstmia	sl!, {d0}
    for (int k = 0; k < F2_SPEC_BINS; k++)
 23f6e2e:	d1d6      	bne.n	23f6dde <feature2_extract_segment.part.0+0x306>
        compute_spectrum_for_frame(fx, samples, start, num_samples);

        double frame_mfcc[F2_NUM_MFCC];
        double frame_chroma[F2_NUM_CHROMA];

        centroid_sum += compute_centroid(fx->magnitude, fx->sample_rate);
 23f6e30:	ed9b 7b00 	vldr	d7, [fp]
 23f6e34:	eeb0 9a47 	vmov.f32	s18, s14
 23f6e38:	eef0 9a67 	vmov.f32	s19, s15
    double denominator = 0.0;
 23f6e3c:	ed1f 7b74 	vldr	d7, [pc, #-464]	; 23f6c70 <feature2_extract_segment.part.0+0x198>
    double numerator = 0.0;
 23f6e40:	ec55 4b18 	vmov	r4, r5, d8
    double denominator = 0.0;
 23f6e44:	ed8d 7b00 	vstr	d7, [sp]
    for (int k = 0; k < F2_SPEC_BINS; k++)
 23f6e48:	2700      	movs	r7, #0
 23f6e4a:	f240 4a01 	movw	sl, #1025	; 0x401
        numerator += freq * mag[k];
 23f6e4e:	e8f6 8902 	ldrd	r8, r9, [r6], #8
        double freq = ((double)k * sample_rate) / (double)F2_FRAME_LEN;
 23f6e52:	4638      	mov	r0, r7
 23f6e54:	f7ff fa72 	bl	23f633c <__aeabi_i2d>
 23f6e58:	ec53 2b19 	vmov	r2, r3, d9
 23f6e5c:	f7ff fad8 	bl	23f6410 <__aeabi_dmul>
 23f6e60:	2200      	movs	r2, #0
 23f6e62:	f04f 537d 	mov.w	r3, #1061158912	; 0x3f400000
 23f6e66:	f7ff fad3 	bl	23f6410 <__aeabi_dmul>
        numerator += freq * mag[k];
 23f6e6a:	4642      	mov	r2, r8
 23f6e6c:	464b      	mov	r3, r9
 23f6e6e:	f7ff facf 	bl	23f6410 <__aeabi_dmul>
 23f6e72:	4602      	mov	r2, r0
 23f6e74:	460b      	mov	r3, r1
 23f6e76:	4620      	mov	r0, r4
 23f6e78:	4629      	mov	r1, r5
 23f6e7a:	f7ff f913 	bl	23f60a4 <__adddf3>
        denominator += mag[k];
 23f6e7e:	4642      	mov	r2, r8
 23f6e80:	464b      	mov	r3, r9
        numerator += freq * mag[k];
 23f6e82:	4604      	mov	r4, r0
 23f6e84:	460d      	mov	r5, r1
        denominator += mag[k];
 23f6e86:	e9dd 0100 	ldrd	r0, r1, [sp]
 23f6e8a:	f7ff f90b 	bl	23f60a4 <__adddf3>
 23f6e8e:	4602      	mov	r2, r0
 23f6e90:	460b      	mov	r3, r1
    for (int k = 0; k < F2_SPEC_BINS; k++)
 23f6e92:	3701      	adds	r7, #1
 23f6e94:	4557      	cmp	r7, sl
        denominator += mag[k];
 23f6e96:	e9cd 2300 	strd	r2, r3, [sp]
    for (int k = 0; k < F2_SPEC_BINS; k++)
 23f6e9a:	d1d8      	bne.n	23f6e4e <feature2_extract_segment.part.0+0x376>
    return numerator / (denominator + F2_EPS);
 23f6e9c:	a3fc      	add	r3, pc, #1008	; (adr r3, 23f7290 <feature2_extract_segment.part.0+0x7b8>)
 23f6e9e:	e9d3 2300 	ldrd	r2, r3, [r3]
 23f6ea2:	f7ff f8ff 	bl	23f60a4 <__adddf3>
 23f6ea6:	4602      	mov	r2, r0
 23f6ea8:	460b      	mov	r3, r1
 23f6eaa:	4620      	mov	r0, r4
 23f6eac:	4629      	mov	r1, r5
 23f6eae:	f7ff fbd9 	bl	23f6664 <__aeabi_ddiv>
 23f6eb2:	460b      	mov	r3, r1
 23f6eb4:	4602      	mov	r2, r0
        centroid_sum += compute_centroid(fx->magnitude, fx->sample_rate);
 23f6eb6:	e9dd 0104 	ldrd	r0, r1, [sp, #16]
 23f6eba:	f7ff f8f3 	bl	23f60a4 <__adddf3>
 23f6ebe:	f50b 3380 	add.w	r3, fp, #65536	; 0x10000
 23f6ec2:	f103 0618 	add.w	r6, r3, #24
 23f6ec6:	e9cd 0104 	strd	r0, r1, [sp, #16]
    for (int m = 0; m < F2_NUM_MEL_BANDS; m++)
 23f6eca:	3380      	adds	r3, #128	; 0x80
 23f6ecc:	9308      	str	r3, [sp, #32]
        centroid_sum += compute_centroid(fx->magnitude, fx->sample_rate);
 23f6ece:	ab44      	add	r3, sp, #272	; 0x110
 23f6ed0:	9307      	str	r3, [sp, #28]
        int left = mel_bin_points[m];
 23f6ed2:	f8d6 a000 	ldr.w	sl, [r6]
        int center = mel_bin_points[m + 1];
 23f6ed6:	f856 4f04 	ldr.w	r4, [r6, #4]!
        if (center > left)
 23f6eda:	45a2      	cmp	sl, r4
        int right = mel_bin_points[m + 2];
 23f6edc:	6877      	ldr	r7, [r6, #4]
        if (center > left)
 23f6ede:	f280 81b8 	bge.w	23f7252 <feature2_extract_segment.part.0+0x77a>
 23f6ee2:	f24e 0310 	movw	r3, #57360	; 0xe010
 23f6ee6:	eb03 03ca 	add.w	r3, r3, sl, lsl #3
 23f6eea:	445b      	add	r3, fp
 23f6eec:	9300      	str	r3, [sp, #0]
                double w = (double)(k - left) / (double)(center - left);
 23f6eee:	eba4 030a 	sub.w	r3, r4, sl
        if (center > left)
 23f6ef2:	4655      	mov	r5, sl
        double e = 0.0;
 23f6ef4:	ec59 8b18 	vmov	r8, r9, d8
                double w = (double)(k - left) / (double)(center - left);
 23f6ef8:	ee0d 3a10 	vmov	s26, r3
            for (int k = left; k < center && k < F2_SPEC_BINS; k++)
 23f6efc:	f5b5 6f80 	cmp.w	r5, #1024	; 0x400
 23f6f00:	dc26      	bgt.n	23f6f50 <feature2_extract_segment.part.0+0x478>
                e += power[k] * w;
 23f6f02:	9b00      	ldr	r3, [sp, #0]
                double w = (double)(k - left) / (double)(center - left);
 23f6f04:	eba5 000a 	sub.w	r0, r5, sl
                e += power[k] * w;
 23f6f08:	ecb3 7b02 	vldmia	r3!, {d7}
 23f6f0c:	eeb0 9a47 	vmov.f32	s18, s14
 23f6f10:	eef0 9a67 	vmov.f32	s19, s15
 23f6f14:	9300      	str	r3, [sp, #0]
                double w = (double)(k - left) / (double)(center - left);
 23f6f16:	f7ff fa11 	bl	23f633c <__aeabi_i2d>
 23f6f1a:	ec41 0b1c 	vmov	d12, r0, r1
 23f6f1e:	ee1d 0a10 	vmov	r0, s26
 23f6f22:	f7ff fa0b 	bl	23f633c <__aeabi_i2d>
 23f6f26:	4602      	mov	r2, r0
 23f6f28:	460b      	mov	r3, r1
 23f6f2a:	ec51 0b1c 	vmov	r0, r1, d12
 23f6f2e:	f7ff fb99 	bl	23f6664 <__aeabi_ddiv>
                e += power[k] * w;
 23f6f32:	ec53 2b19 	vmov	r2, r3, d9
 23f6f36:	f7ff fa6b 	bl	23f6410 <__aeabi_dmul>
 23f6f3a:	4602      	mov	r2, r0
 23f6f3c:	460b      	mov	r3, r1
 23f6f3e:	4640      	mov	r0, r8
 23f6f40:	4649      	mov	r1, r9
 23f6f42:	f7ff f8af 	bl	23f60a4 <__adddf3>
            for (int k = left; k < center && k < F2_SPEC_BINS; k++)
 23f6f46:	3501      	adds	r5, #1
 23f6f48:	42ac      	cmp	r4, r5
                e += power[k] * w;
 23f6f4a:	4680      	mov	r8, r0
 23f6f4c:	4689      	mov	r9, r1
            for (int k = left; k < center && k < F2_SPEC_BINS; k++)
 23f6f4e:	d1d5      	bne.n	23f6efc <feature2_extract_segment.part.0+0x424>
        if (right > center)
 23f6f50:	42bc      	cmp	r4, r7
 23f6f52:	da2b      	bge.n	23f6fac <feature2_extract_segment.part.0+0x4d4>
 23f6f54:	f24e 0310 	movw	r3, #57360	; 0xe010
 23f6f58:	eb03 0ac4 	add.w	sl, r3, r4, lsl #3
 23f6f5c:	44da      	add	sl, fp
                double w = (double)(right - k) / (double)(right - center);
 23f6f5e:	1b3d      	subs	r5, r7, r4
            for (int k = center; k < right && k < F2_SPEC_BINS; k++)
 23f6f60:	f5b4 6f80 	cmp.w	r4, #1024	; 0x400
 23f6f64:	dc22      	bgt.n	23f6fac <feature2_extract_segment.part.0+0x4d4>
                e += power[k] * w;
 23f6f66:	ecba 7b02 	vldmia	sl!, {d7}
                double w = (double)(right - k) / (double)(right - center);
 23f6f6a:	1b38      	subs	r0, r7, r4
                e += power[k] * w;
 23f6f6c:	eeb0 9a47 	vmov.f32	s18, s14
 23f6f70:	eef0 9a67 	vmov.f32	s19, s15
                double w = (double)(right - k) / (double)(right - center);
 23f6f74:	f7ff f9e2 	bl	23f633c <__aeabi_i2d>
 23f6f78:	ec41 0b1c 	vmov	d12, r0, r1
 23f6f7c:	4628      	mov	r0, r5
 23f6f7e:	f7ff f9dd 	bl	23f633c <__aeabi_i2d>
 23f6f82:	4602      	mov	r2, r0
 23f6f84:	460b      	mov	r3, r1
 23f6f86:	ec51 0b1c 	vmov	r0, r1, d12
 23f6f8a:	f7ff fb6b 	bl	23f6664 <__aeabi_ddiv>
                e += power[k] * w;
 23f6f8e:	ec53 2b19 	vmov	r2, r3, d9
 23f6f92:	f7ff fa3d 	bl	23f6410 <__aeabi_dmul>
 23f6f96:	4602      	mov	r2, r0
 23f6f98:	460b      	mov	r3, r1
 23f6f9a:	4640      	mov	r0, r8
 23f6f9c:	4649      	mov	r1, r9
 23f6f9e:	f7ff f881 	bl	23f60a4 <__adddf3>
            for (int k = center; k < right && k < F2_SPEC_BINS; k++)
 23f6fa2:	3401      	adds	r4, #1
 23f6fa4:	42a7      	cmp	r7, r4
                e += power[k] * w;
 23f6fa6:	4680      	mov	r8, r0
 23f6fa8:	4689      	mov	r9, r1
            for (int k = center; k < right && k < F2_SPEC_BINS; k++)
 23f6faa:	d1d9      	bne.n	23f6f60 <feature2_extract_segment.part.0+0x488>
        log_mel[m] = log(e + F2_EPS);
 23f6fac:	a3b8      	add	r3, pc, #736	; (adr r3, 23f7290 <feature2_extract_segment.part.0+0x7b8>)
 23f6fae:	e9d3 2300 	ldrd	r2, r3, [r3]
 23f6fb2:	4640      	mov	r0, r8
 23f6fb4:	4649      	mov	r1, r9
 23f6fb6:	f7ff f875 	bl	23f60a4 <__adddf3>
 23f6fba:	ec41 0b10 	vmov	d0, r0, r1
 23f6fbe:	f003 f88b 	bl	23fa0d8 <log>
 23f6fc2:	9b07      	ldr	r3, [sp, #28]
 23f6fc4:	eca3 0b02 	vstmia	r3!, {d0}
 23f6fc8:	9307      	str	r3, [sp, #28]
    for (int m = 0; m < F2_NUM_MEL_BANDS; m++)
 23f6fca:	9b08      	ldr	r3, [sp, #32]
 23f6fcc:	429e      	cmp	r6, r3
 23f6fce:	d180      	bne.n	23f6ed2 <feature2_extract_segment.part.0+0x3fa>
 23f6fd0:	ab22      	add	r3, sp, #136	; 0x88
 23f6fd2:	4698      	mov	r8, r3
    for (int k = 0; k < F2_NUM_MFCC; k++)
 23f6fd4:	2700      	movs	r7, #0
 23f6fd6:	9300      	str	r3, [sp, #0]
            double angle = (double)M_PI * (double)k * (2.0 * (double)i + 1.0) /
 23f6fd8:	4638      	mov	r0, r7
 23f6fda:	f7ff f9af 	bl	23f633c <__aeabi_i2d>
 23f6fde:	a3b4      	add	r3, pc, #720	; (adr r3, 23f72b0 <feature2_extract_segment.part.0+0x7d8>)
 23f6fe0:	e9d3 2300 	ldrd	r2, r3, [r3]
 23f6fe4:	f7ff fa14 	bl	23f6410 <__aeabi_dmul>
        double s = 0.0;
 23f6fe8:	ec55 4b18 	vmov	r4, r5, d8
            double angle = (double)M_PI * (double)k * (2.0 * (double)i + 1.0) /
 23f6fec:	ec41 0b19 	vmov	d9, r0, r1
        for (int i = 0; i < F2_NUM_MEL_BANDS; i++)
 23f6ff0:	2600      	movs	r6, #0
            double angle = (double)M_PI * (double)k * (2.0 * (double)i + 1.0) /
 23f6ff2:	f50d 7a88 	add.w	sl, sp, #272	; 0x110
            s += log_mel[i] * cos(angle);
 23f6ff6:	ecba 7b02 	vldmia	sl!, {d7}
            double angle = (double)M_PI * (double)k * (2.0 * (double)i + 1.0) /
 23f6ffa:	4630      	mov	r0, r6
            s += log_mel[i] * cos(angle);
 23f6ffc:	eeb0 ca47 	vmov.f32	s24, s14
 23f7000:	eef0 ca67 	vmov.f32	s25, s15
            double angle = (double)M_PI * (double)k * (2.0 * (double)i + 1.0) /
 23f7004:	f7ff f99a 	bl	23f633c <__aeabi_i2d>
 23f7008:	4602      	mov	r2, r0
 23f700a:	460b      	mov	r3, r1
 23f700c:	f7ff f84a 	bl	23f60a4 <__adddf3>
 23f7010:	2200      	movs	r2, #0
 23f7012:	4ba1      	ldr	r3, [pc, #644]	; (23f7298 <feature2_extract_segment.part.0+0x7c0>)
 23f7014:	f7ff f846 	bl	23f60a4 <__adddf3>
 23f7018:	ec53 2b19 	vmov	r2, r3, d9
 23f701c:	f7ff f9f8 	bl	23f6410 <__aeabi_dmul>
 23f7020:	2200      	movs	r2, #0
 23f7022:	4b9e      	ldr	r3, [pc, #632]	; (23f729c <feature2_extract_segment.part.0+0x7c4>)
 23f7024:	f7ff fb1e 	bl	23f6664 <__aeabi_ddiv>
            s += log_mel[i] * cos(angle);
 23f7028:	ec41 0b10 	vmov	d0, r0, r1
 23f702c:	f002 ff28 	bl	23f9e80 <cos>
 23f7030:	ec51 0b1c 	vmov	r0, r1, d12
 23f7034:	ec53 2b10 	vmov	r2, r3, d0
 23f7038:	f7ff f9ea 	bl	23f6410 <__aeabi_dmul>
 23f703c:	4602      	mov	r2, r0
 23f703e:	460b      	mov	r3, r1
 23f7040:	4620      	mov	r0, r4
 23f7042:	4629      	mov	r1, r5
 23f7044:	f7ff f82e 	bl	23f60a4 <__adddf3>
        for (int i = 0; i < F2_NUM_MEL_BANDS; i++)
 23f7048:	3601      	adds	r6, #1
 23f704a:	2e1a      	cmp	r6, #26
            s += log_mel[i] * cos(angle);
 23f704c:	4604      	mov	r4, r0
 23f704e:	460d      	mov	r5, r1
        for (int i = 0; i < F2_NUM_MEL_BANDS; i++)
 23f7050:	d1d1      	bne.n	23f6ff6 <feature2_extract_segment.part.0+0x51e>
    for (int k = 0; k < F2_NUM_MFCC; k++)
 23f7052:	3701      	adds	r7, #1
 23f7054:	2f05      	cmp	r7, #5
        mfcc_out[k] = s;
 23f7056:	e8e8 4502 	strd	r4, r5, [r8], #8
    for (int k = 0; k < F2_NUM_MFCC; k++)
 23f705a:	d1bd      	bne.n	23f6fd8 <feature2_extract_segment.part.0+0x500>

        compute_mfcc(fx->power, fx->mel_bin_points, frame_mfcc);
        compute_chroma_from_magnitude(fx->magnitude, fx->sample_rate, frame_chroma);
 23f705c:	ed9b 7b00 	vldr	d7, [fp]
        chroma_out[i] = 0.0;
 23f7060:	2260      	movs	r2, #96	; 0x60
 23f7062:	2100      	movs	r1, #0
 23f7064:	a844      	add	r0, sp, #272	; 0x110
        compute_chroma_from_magnitude(fx->magnitude, fx->sample_rate, frame_chroma);
 23f7066:	eeb0 9a47 	vmov.f32	s18, s14
 23f706a:	eef0 9a67 	vmov.f32	s19, s15
    for (int k = 1; k < F2_SPEC_BINS; k++)
 23f706e:	2501      	movs	r5, #1
        chroma_out[i] = 0.0;
 23f7070:	f005 fca3 	bl	23fc9ba <memset>
    double midi = 69.0 + 12.0 * log2(freq / 440.0);
 23f7074:	f04f 0800 	mov.w	r8, #0
 23f7078:	f50b 4440 	add.w	r4, fp, #49152	; 0xc000
 23f707c:	f8df 9238 	ldr.w	r9, [pc, #568]	; 23f72b8 <feature2_extract_segment.part.0+0x7e0>
 23f7080:	3410      	adds	r4, #16
        double freq = ((double)k * sample_rate) / (double)F2_FRAME_LEN;
 23f7082:	4628      	mov	r0, r5
 23f7084:	f7ff f95a 	bl	23f633c <__aeabi_i2d>
 23f7088:	ec53 2b19 	vmov	r2, r3, d9
 23f708c:	f7ff f9c0 	bl	23f6410 <__aeabi_dmul>
 23f7090:	2200      	movs	r2, #0
 23f7092:	f04f 537d 	mov.w	r3, #1061158912	; 0x3f400000
 23f7096:	f7ff f9bb 	bl	23f6410 <__aeabi_dmul>
        if (freq < 50.0)
 23f709a:	2200      	movs	r2, #0
 23f709c:	4b80      	ldr	r3, [pc, #512]	; (23f72a0 <feature2_extract_segment.part.0+0x7c8>)
        double freq = ((double)k * sample_rate) / (double)F2_FRAME_LEN;
 23f709e:	4606      	mov	r6, r0
 23f70a0:	460f      	mov	r7, r1
        if (freq < 50.0)
 23f70a2:	f7ff fc27 	bl	23f68f4 <__aeabi_dcmplt>
 23f70a6:	2800      	cmp	r0, #0
 23f70a8:	d142      	bne.n	23f7130 <feature2_extract_segment.part.0+0x658>
    double midi = 69.0 + 12.0 * log2(freq / 440.0);
 23f70aa:	4642      	mov	r2, r8
 23f70ac:	464b      	mov	r3, r9
 23f70ae:	4630      	mov	r0, r6
 23f70b0:	4639      	mov	r1, r7
 23f70b2:	f7ff fad7 	bl	23f6664 <__aeabi_ddiv>
 23f70b6:	ec41 0b10 	vmov	d0, r0, r1
 23f70ba:	f003 f80d 	bl	23fa0d8 <log>
 23f70be:	a372      	add	r3, pc, #456	; (adr r3, 23f7288 <feature2_extract_segment.part.0+0x7b0>)
 23f70c0:	e9d3 2300 	ldrd	r2, r3, [r3]
 23f70c4:	ec51 0b10 	vmov	r0, r1, d0
 23f70c8:	f7ff facc 	bl	23f6664 <__aeabi_ddiv>
 23f70cc:	2200      	movs	r2, #0
 23f70ce:	4b75      	ldr	r3, [pc, #468]	; (23f72a4 <feature2_extract_segment.part.0+0x7cc>)
 23f70d0:	f7ff f99e 	bl	23f6410 <__aeabi_dmul>
 23f70d4:	2200      	movs	r2, #0
 23f70d6:	4b74      	ldr	r3, [pc, #464]	; (23f72a8 <feature2_extract_segment.part.0+0x7d0>)
 23f70d8:	f7fe ffe4 	bl	23f60a4 <__adddf3>
    if (midi >= 0.0)
 23f70dc:	2200      	movs	r2, #0
 23f70de:	2300      	movs	r3, #0
    double midi = 69.0 + 12.0 * log2(freq / 440.0);
 23f70e0:	4606      	mov	r6, r0
 23f70e2:	460f      	mov	r7, r1
    if (midi >= 0.0)
 23f70e4:	f7ff fc1a 	bl	23f691c <__aeabi_dcmpge>
        return (int)floor(midi + 0.5);
 23f70e8:	2200      	movs	r2, #0
 23f70ea:	4b70      	ldr	r3, [pc, #448]	; (23f72ac <feature2_extract_segment.part.0+0x7d4>)
    if (midi >= 0.0)
 23f70ec:	2800      	cmp	r0, #0
 23f70ee:	f000 80b3 	beq.w	23f7258 <feature2_extract_segment.part.0+0x780>
        return (int)floor(midi + 0.5);
 23f70f2:	4630      	mov	r0, r6
 23f70f4:	4639      	mov	r1, r7
 23f70f6:	f7fe ffd5 	bl	23f60a4 <__adddf3>
 23f70fa:	ec41 0b10 	vmov	d0, r0, r1
 23f70fe:	f002 ff13 	bl	23f9f28 <floor>
        return (int)ceil(midi - 0.5);
 23f7102:	ec51 0b10 	vmov	r0, r1, d0
 23f7106:	f7ff fc33 	bl	23f6970 <__aeabi_d2iz>
        int pitch_class = midi % 12;
 23f710a:	230c      	movs	r3, #12
 23f710c:	fb90 f6f3 	sdiv	r6, r0, r3
 23f7110:	fb03 0016 	mls	r0, r3, r6, r0
        if (pitch_class < 0)
 23f7114:	2800      	cmp	r0, #0
            pitch_class += 12;
 23f7116:	bfb8      	it	lt
 23f7118:	18c0      	addlt	r0, r0, r3
        chroma_out[pitch_class] += magnitude[k];
 23f711a:	ab44      	add	r3, sp, #272	; 0x110
 23f711c:	eb03 06c0 	add.w	r6, r3, r0, lsl #3
 23f7120:	e9d6 0100 	ldrd	r0, r1, [r6]
 23f7124:	e9d4 2300 	ldrd	r2, r3, [r4]
 23f7128:	f7fe ffbc 	bl	23f60a4 <__adddf3>
 23f712c:	e9c6 0100 	strd	r0, r1, [r6]
    for (int k = 1; k < F2_SPEC_BINS; k++)
 23f7130:	f240 4301 	movw	r3, #1025	; 0x401
 23f7134:	3501      	adds	r5, #1
 23f7136:	429d      	cmp	r5, r3
 23f7138:	f104 0408 	add.w	r4, r4, #8
 23f713c:	d1a1      	bne.n	23f7082 <feature2_extract_segment.part.0+0x5aa>
 23f713e:	f50d 7888 	add.w	r8, sp, #272	; 0x110
 23f7142:	46c2      	mov	sl, r8
 23f7144:	f04f 090c 	mov.w	r9, #12
    double max_val = 0.0;
 23f7148:	2400      	movs	r4, #0
 23f714a:	2500      	movs	r5, #0
        if (chroma_out[i] > max_val)
 23f714c:	e8fa 6702 	ldrd	r6, r7, [sl], #8
 23f7150:	4622      	mov	r2, r4
 23f7152:	462b      	mov	r3, r5
 23f7154:	4630      	mov	r0, r6
 23f7156:	4639      	mov	r1, r7
 23f7158:	f7ff fbea 	bl	23f6930 <__aeabi_dcmpgt>
 23f715c:	b108      	cbz	r0, 23f7162 <feature2_extract_segment.part.0+0x68a>
            max_val = chroma_out[i];
 23f715e:	4634      	mov	r4, r6
 23f7160:	463d      	mov	r5, r7
    for (int i = 0; i < F2_NUM_CHROMA; i++)
 23f7162:	f1b9 0901 	subs.w	r9, r9, #1
 23f7166:	d1f1      	bne.n	23f714c <feature2_extract_segment.part.0+0x674>
    if (max_val > F2_EPS)
 23f7168:	4620      	mov	r0, r4
 23f716a:	a349      	add	r3, pc, #292	; (adr r3, 23f7290 <feature2_extract_segment.part.0+0x7b8>)
 23f716c:	e9d3 2300 	ldrd	r2, r3, [r3]
 23f7170:	4629      	mov	r1, r5
 23f7172:	f7ff fbdd 	bl	23f6930 <__aeabi_dcmpgt>
 23f7176:	2800      	cmp	r0, #0
 23f7178:	d177      	bne.n	23f726a <feature2_extract_segment.part.0+0x792>
 23f717a:	ad18      	add	r5, sp, #96	; 0x60
 23f717c:	462e      	mov	r6, r5
 23f717e:	2405      	movs	r4, #5

        for (int i = 0; i < F2_NUM_MFCC; i++)
        {
            mfcc_sums[i] += frame_mfcc[i];
 23f7180:	9900      	ldr	r1, [sp, #0]
 23f7182:	e8f1 2302 	ldrd	r2, r3, [r1], #8
 23f7186:	9100      	str	r1, [sp, #0]
 23f7188:	e9d6 0100 	ldrd	r0, r1, [r6]
 23f718c:	f7fe ff8a 	bl	23f60a4 <__adddf3>
        for (int i = 0; i < F2_NUM_MFCC; i++)
 23f7190:	3c01      	subs	r4, #1
            mfcc_sums[i] += frame_mfcc[i];
 23f7192:	e8e6 0102 	strd	r0, r1, [r6], #8
        for (int i = 0; i < F2_NUM_MFCC; i++)
 23f7196:	d1f3      	bne.n	23f7180 <feature2_extract_segment.part.0+0x6a8>
 23f7198:	ac2c      	add	r4, sp, #176	; 0xb0
 23f719a:	4627      	mov	r7, r4
 23f719c:	260c      	movs	r6, #12
        }

        for (int i = 0; i < F2_NUM_CHROMA; i++)
        {
            chroma_sums[i] += frame_chroma[i];
 23f719e:	e9d7 0100 	ldrd	r0, r1, [r7]
 23f71a2:	e8f8 2302 	ldrd	r2, r3, [r8], #8
 23f71a6:	f7fe ff7d 	bl	23f60a4 <__adddf3>
        for (int i = 0; i < F2_NUM_CHROMA; i++)
 23f71aa:	3e01      	subs	r6, #1
            chroma_sums[i] += frame_chroma[i];
 23f71ac:	e8e7 0102 	strd	r0, r1, [r7], #8
        for (int i = 0; i < F2_NUM_CHROMA; i++)
 23f71b0:	d1f5      	bne.n	23f719e <feature2_extract_segment.part.0+0x6c6>
        }

        n_frames++;
 23f71b2:	9b02      	ldr	r3, [sp, #8]
 23f71b4:	3301      	adds	r3, #1
 23f71b6:	9302      	str	r3, [sp, #8]

        if (num_samples <= F2_FRAME_LEN)
 23f71b8:	9b03      	ldr	r3, [sp, #12]
 23f71ba:	f5b3 6f00 	cmp.w	r3, #2048	; 0x800
 23f71be:	d911      	bls.n	23f71e4 <feature2_extract_segment.part.0+0x70c>
            break;
        }

        start += F2_HOP_LEN;

        if (start >= num_samples)
 23f71c0:	9b0e      	ldr	r3, [sp, #56]	; 0x38
 23f71c2:	9a03      	ldr	r2, [sp, #12]
 23f71c4:	f503 7300 	add.w	r3, r3, #512	; 0x200
 23f71c8:	429a      	cmp	r2, r3
 23f71ca:	d90b      	bls.n	23f71e4 <feature2_extract_segment.part.0+0x70c>
        {
            break;
        }

        if (start + F2_FRAME_LEN > num_samples && num_samples - start < F2_HOP_LEN)
 23f71cc:	9a0e      	ldr	r2, [sp, #56]	; 0x38
 23f71ce:	9903      	ldr	r1, [sp, #12]
 23f71d0:	f502 6220 	add.w	r2, r2, #2560	; 0xa00
 23f71d4:	4291      	cmp	r1, r2
 23f71d6:	f4bf aca7 	bcs.w	23f6b28 <feature2_extract_segment.part.0+0x50>
 23f71da:	1acb      	subs	r3, r1, r3
 23f71dc:	f5b3 7f00 	cmp.w	r3, #512	; 0x200
 23f71e0:	f4bf aca2 	bcs.w	23f6b28 <feature2_extract_segment.part.0+0x50>
    if (n_frames == 0)
    {
        n_frames = 1;
    }

    double inv_frames = 1.0 / (double)n_frames;
 23f71e4:	9802      	ldr	r0, [sp, #8]
 23f71e6:	2801      	cmp	r0, #1
 23f71e8:	bf38      	it	cc
 23f71ea:	2001      	movcc	r0, #1
 23f71ec:	f7ff f896 	bl	23f631c <__aeabi_ui2d>
 23f71f0:	4602      	mov	r2, r0
 23f71f2:	460b      	mov	r3, r1
 23f71f4:	2000      	movs	r0, #0
 23f71f6:	4928      	ldr	r1, [pc, #160]	; (23f7298 <feature2_extract_segment.part.0+0x7c0>)
 23f71f8:	f7ff fa34 	bl	23f6664 <__aeabi_ddiv>

    out_features->spectral_centroid = centroid_sum * inv_frames;
 23f71fc:	460b      	mov	r3, r1
 23f71fe:	4602      	mov	r2, r0
    double inv_frames = 1.0 / (double)n_frames;
 23f7200:	4606      	mov	r6, r0
 23f7202:	460f      	mov	r7, r1
    out_features->spectral_centroid = centroid_sum * inv_frames;
 23f7204:	e9dd 0104 	ldrd	r0, r1, [sp, #16]
 23f7208:	f7ff f902 	bl	23f6410 <__aeabi_dmul>
 23f720c:	f8dd 9018 	ldr.w	r9, [sp, #24]
 23f7210:	9b06      	ldr	r3, [sp, #24]
 23f7212:	e8e9 0102 	strd	r0, r1, [r9], #8

    for (int i = 0; i < F2_NUM_MFCC; i++)
 23f7216:	f103 0830 	add.w	r8, r3, #48	; 0x30
    {
        out_features->mfcc[i] = mfcc_sums[i] * inv_frames;
 23f721a:	4630      	mov	r0, r6
 23f721c:	e8f5 2302 	ldrd	r2, r3, [r5], #8
 23f7220:	4639      	mov	r1, r7
 23f7222:	f7ff f8f5 	bl	23f6410 <__aeabi_dmul>
 23f7226:	e8e9 0102 	strd	r0, r1, [r9], #8
    for (int i = 0; i < F2_NUM_MFCC; i++)
 23f722a:	45c8      	cmp	r8, r9
 23f722c:	d1f5      	bne.n	23f721a <feature2_extract_segment.part.0+0x742>
 23f722e:	9d06      	ldr	r5, [sp, #24]
 23f7230:	3590      	adds	r5, #144	; 0x90
    }

    for (int i = 0; i < F2_NUM_CHROMA; i++)
    {
        out_features->chroma_stft[i] = chroma_sums[i] * inv_frames;
 23f7232:	4630      	mov	r0, r6
 23f7234:	e8f4 2302 	ldrd	r2, r3, [r4], #8
 23f7238:	4639      	mov	r1, r7
 23f723a:	f7ff f8e9 	bl	23f6410 <__aeabi_dmul>
 23f723e:	e8e8 0102 	strd	r0, r1, [r8], #8
    for (int i = 0; i < F2_NUM_CHROMA; i++)
 23f7242:	45a8      	cmp	r8, r5
 23f7244:	d1f5      	bne.n	23f7232 <feature2_extract_segment.part.0+0x75a>
    }

    return true;
}
 23f7246:	2001      	movs	r0, #1
 23f7248:	b079      	add	sp, #484	; 0x1e4
 23f724a:	ecbd 8b10 	vpop	{d8-d15}
 23f724e:	e8bd 8ff0 	ldmia.w	sp!, {r4, r5, r6, r7, r8, r9, sl, fp, pc}
        double e = 0.0;
 23f7252:	ec59 8b18 	vmov	r8, r9, d8
 23f7256:	e67b      	b.n	23f6f50 <feature2_extract_segment.part.0+0x478>
        return (int)ceil(midi - 0.5);
 23f7258:	4630      	mov	r0, r6
 23f725a:	4639      	mov	r1, r7
 23f725c:	f7fe ff20 	bl	23f60a0 <__aeabi_dsub>
 23f7260:	ec41 0b10 	vmov	d0, r0, r1
 23f7264:	f002 fd8c 	bl	23f9d80 <ceil>
 23f7268:	e74b      	b.n	23f7102 <feature2_extract_segment.part.0+0x62a>
 23f726a:	4647      	mov	r7, r8
 23f726c:	260c      	movs	r6, #12
            chroma_out[i] /= max_val;
 23f726e:	e9d7 0100 	ldrd	r0, r1, [r7]
 23f7272:	4622      	mov	r2, r4
 23f7274:	462b      	mov	r3, r5
 23f7276:	f7ff f9f5 	bl	23f6664 <__aeabi_ddiv>
        for (int i = 0; i < F2_NUM_CHROMA; i++)
 23f727a:	3e01      	subs	r6, #1
            chroma_out[i] /= max_val;
 23f727c:	e8e7 0102 	strd	r0, r1, [r7], #8
        for (int i = 0; i < F2_NUM_CHROMA; i++)
 23f7280:	d1f5      	bne.n	23f726e <feature2_extract_segment.part.0+0x796>
 23f7282:	e77a      	b.n	23f717a <feature2_extract_segment.part.0+0x6a2>
 23f7284:	f3af 8000 	nop.w
 23f7288:	fefa39ef 	.word	0xfefa39ef
 23f728c:	3fe62e42 	.word	0x3fe62e42
 23f7290:	812dea11 	.word	0x812dea11
 23f7294:	3d719799 	.word	0x3d719799
 23f7298:	3ff00000 	.word	0x3ff00000
 23f729c:	404a0000 	.word	0x404a0000
 23f72a0:	40490000 	.word	0x40490000
 23f72a4:	40280000 	.word	0x40280000
 23f72a8:	40514000 	.word	0x40514000
 23f72ac:	3fe00000 	.word	0x3fe00000
 23f72b0:	54442d18 	.word	0x54442d18
 23f72b4:	400921fb 	.word	0x400921fb
 23f72b8:	407b8000 	.word	0x407b8000
 23f72bc:	00000000 	.word	0x00000000

023f72c0 <feature2_extractor_init>:
{
 23f72c0:	e92d 4ff8 	stmdb	sp!, {r3, r4, r5, r6, r7, r8, r9, sl, fp, lr}
    if (fx == NULL)
 23f72c4:	4604      	mov	r4, r0
{
 23f72c6:	ed2d 8b02 	vpush	{d8}
 23f72ca:	eeb0 8a40 	vmov.f32	s16, s0
 23f72ce:	eef0 8a60 	vmov.f32	s17, s1
    if (fx == NULL)
 23f72d2:	2800      	cmp	r0, #0
 23f72d4:	f000 8098 	beq.w	23f7408 <feature2_extractor_init+0x148>
        w[i] = 0.5 - 0.5 * cos((2.0 * (double)M_PI * (double)i) / (double)(n - 1));
 23f72d8:	f20f 1964 	addw	r9, pc, #356	; 0x164
 23f72dc:	e9d9 8900 	ldrd	r8, r9, [r9]
    fx->sample_rate = sample_rate;
 23f72e0:	46a2      	mov	sl, r4
    memset(fx, 0, sizeof(Feature2Extractor));
 23f72e2:	2100      	movs	r1, #0
 23f72e4:	4a52      	ldr	r2, [pc, #328]	; (23f7430 <feature2_extractor_init+0x170>)
 23f72e6:	f005 fb68 	bl	23fc9ba <memset>
    for (int i = 0; i < n; i++)
 23f72ea:	2500      	movs	r5, #0
    fx->sample_rate = sample_rate;
 23f72ec:	ecaa 8b02 	vstmia	sl!, {d8}
        w[i] = 0.5 - 0.5 * cos((2.0 * (double)M_PI * (double)i) / (double)(n - 1));
 23f72f0:	2600      	movs	r6, #0
 23f72f2:	4f50      	ldr	r7, [pc, #320]	; (23f7434 <feature2_extractor_init+0x174>)
 23f72f4:	4628      	mov	r0, r5
 23f72f6:	f7ff f821 	bl	23f633c <__aeabi_i2d>
 23f72fa:	4642      	mov	r2, r8
 23f72fc:	464b      	mov	r3, r9
 23f72fe:	f7ff f887 	bl	23f6410 <__aeabi_dmul>
 23f7302:	a343      	add	r3, pc, #268	; (adr r3, 23f7410 <feature2_extractor_init+0x150>)
 23f7304:	e9d3 2300 	ldrd	r2, r3, [r3]
 23f7308:	f7ff f9ac 	bl	23f6664 <__aeabi_ddiv>
 23f730c:	ec41 0b10 	vmov	d0, r0, r1
 23f7310:	f002 fdb6 	bl	23f9e80 <cos>
 23f7314:	4632      	mov	r2, r6
 23f7316:	ec51 0b10 	vmov	r0, r1, d0
 23f731a:	463b      	mov	r3, r7
 23f731c:	f7ff f878 	bl	23f6410 <__aeabi_dmul>
 23f7320:	4602      	mov	r2, r0
 23f7322:	460b      	mov	r3, r1
 23f7324:	4630      	mov	r0, r6
 23f7326:	4639      	mov	r1, r7
 23f7328:	f7fe feba 	bl	23f60a0 <__aeabi_dsub>
    for (int i = 0; i < n; i++)
 23f732c:	3501      	adds	r5, #1
 23f732e:	f5b5 6f00 	cmp.w	r5, #2048	; 0x800
        w[i] = 0.5 - 0.5 * cos((2.0 * (double)M_PI * (double)i) / (double)(n - 1));
 23f7332:	e8ea 0102 	strd	r0, r1, [sl], #8
    for (int i = 0; i < n; i++)
 23f7336:	d1dd      	bne.n	23f72f4 <feature2_extractor_init+0x34>
    double mel_max = hz_to_mel(fx->sample_rate * 0.5);
 23f7338:	e9d4 0100 	ldrd	r0, r1, [r4]
 23f733c:	2200      	movs	r2, #0
 23f733e:	4b3d      	ldr	r3, [pc, #244]	; (23f7434 <feature2_extractor_init+0x174>)
 23f7340:	f7ff f866 	bl	23f6410 <__aeabi_dmul>
    return 2595.0 * log10(1.0 + hz / 700.0);
 23f7344:	2200      	movs	r2, #0
 23f7346:	4b3c      	ldr	r3, [pc, #240]	; (23f7438 <feature2_extractor_init+0x178>)
 23f7348:	f7ff f98c 	bl	23f6664 <__aeabi_ddiv>
 23f734c:	2200      	movs	r2, #0
 23f734e:	4b3b      	ldr	r3, [pc, #236]	; (23f743c <feature2_extractor_init+0x17c>)
 23f7350:	f7fe fea8 	bl	23f60a4 <__adddf3>
 23f7354:	ec41 0b10 	vmov	d0, r0, r1
 23f7358:	f002 ff06 	bl	23fa168 <log10>
 23f735c:	a32e      	add	r3, pc, #184	; (adr r3, 23f7418 <feature2_extractor_init+0x158>)
 23f735e:	e9d3 2300 	ldrd	r2, r3, [r3]
 23f7362:	ec51 0b10 	vmov	r0, r1, d0
 23f7366:	f7ff f853 	bl	23f6410 <__aeabi_dmul>
    for (int i = 0; i < F2_NUM_MEL_BANDS + 2; i++)
 23f736a:	2500      	movs	r5, #0
    return 2595.0 * log10(1.0 + hz / 700.0);
 23f736c:	4606      	mov	r6, r0
 23f736e:	460f      	mov	r7, r1
                     (double)i * (mel_max - mel_min) /
 23f7370:	f04f 0800 	mov.w	r8, #0
 23f7374:	f504 3a80 	add.w	sl, r4, #65536	; 0x10000
 23f7378:	f8df 90cc 	ldr.w	r9, [pc, #204]	; 23f7448 <feature2_extractor_init+0x188>
 23f737c:	f10a 0b18 	add.w	fp, sl, #24
 23f7380:	4628      	mov	r0, r5
 23f7382:	f7fe ffdb 	bl	23f633c <__aeabi_i2d>
 23f7386:	4632      	mov	r2, r6
 23f7388:	463b      	mov	r3, r7
 23f738a:	f7ff f841 	bl	23f6410 <__aeabi_dmul>
 23f738e:	4642      	mov	r2, r8
 23f7390:	464b      	mov	r3, r9
 23f7392:	f7ff f967 	bl	23f6664 <__aeabi_ddiv>
        double mel = mel_min +
 23f7396:	2200      	movs	r2, #0
 23f7398:	2300      	movs	r3, #0
 23f739a:	f7fe fe83 	bl	23f60a4 <__adddf3>
    return 700.0 * (pow(10.0, mel / 2595.0) - 1.0);
 23f739e:	a31e      	add	r3, pc, #120	; (adr r3, 23f7418 <feature2_extractor_init+0x158>)
 23f73a0:	e9d3 2300 	ldrd	r2, r3, [r3]
 23f73a4:	f7ff f95e 	bl	23f6664 <__aeabi_ddiv>
 23f73a8:	ed9f 0b1d 	vldr	d0, [pc, #116]	; 23f7420 <feature2_extractor_init+0x160>
 23f73ac:	ec41 0b11 	vmov	d1, r0, r1
 23f73b0:	f002 ff22 	bl	23fa1f8 <pow>
 23f73b4:	2200      	movs	r2, #0
 23f73b6:	ec51 0b10 	vmov	r0, r1, d0
 23f73ba:	4b20      	ldr	r3, [pc, #128]	; (23f743c <feature2_extractor_init+0x17c>)
 23f73bc:	f7fe fe70 	bl	23f60a0 <__aeabi_dsub>
 23f73c0:	2200      	movs	r2, #0
 23f73c2:	4b1d      	ldr	r3, [pc, #116]	; (23f7438 <feature2_extractor_init+0x178>)
 23f73c4:	f7ff f824 	bl	23f6410 <__aeabi_dmul>
        int b = (int)floor(((double)F2_FRAME_LEN + 1.0) * hz / fx->sample_rate);
 23f73c8:	a317      	add	r3, pc, #92	; (adr r3, 23f7428 <feature2_extractor_init+0x168>)
 23f73ca:	e9d3 2300 	ldrd	r2, r3, [r3]
 23f73ce:	f7ff f81f 	bl	23f6410 <__aeabi_dmul>
 23f73d2:	e9d4 2300 	ldrd	r2, r3, [r4]
 23f73d6:	f7ff f945 	bl	23f6664 <__aeabi_ddiv>
 23f73da:	ec41 0b10 	vmov	d0, r0, r1
 23f73de:	f002 fda3 	bl	23f9f28 <floor>
 23f73e2:	ec51 0b10 	vmov	r0, r1, d0
 23f73e6:	f7ff fac3 	bl	23f6970 <__aeabi_d2iz>
 23f73ea:	f5b0 6f80 	cmp.w	r0, #1024	; 0x400
 23f73ee:	bfa8      	it	ge
 23f73f0:	f44f 6080 	movge.w	r0, #1024	; 0x400
    for (int i = 0; i < F2_NUM_MEL_BANDS + 2; i++)
 23f73f4:	3501      	adds	r5, #1
        fx->mel_bin_points[i] = b;
 23f73f6:	ea20 70e0 	bic.w	r0, r0, r0, asr #31
    for (int i = 0; i < F2_NUM_MEL_BANDS + 2; i++)
 23f73fa:	2d1c      	cmp	r5, #28
        fx->mel_bin_points[i] = b;
 23f73fc:	f84b 0b04 	str.w	r0, [fp], #4
    for (int i = 0; i < F2_NUM_MEL_BANDS + 2; i++)
 23f7400:	d1be      	bne.n	23f7380 <feature2_extractor_init+0xc0>
    fx->initialized = 1;
 23f7402:	2001      	movs	r0, #1
 23f7404:	f8ca 0088 	str.w	r0, [sl, #136]	; 0x88
}
 23f7408:	ecbd 8b02 	vpop	{d8}
 23f740c:	e8bd 8ff8 	ldmia.w	sp!, {r3, r4, r5, r6, r7, r8, r9, sl, fp, pc}
 23f7410:	00000000 	.word	0x00000000
 23f7414:	409ffc00 	.word	0x409ffc00
 23f7418:	00000000 	.word	0x00000000
 23f741c:	40a44600 	.word	0x40a44600
 23f7420:	00000000 	.word	0x00000000
 23f7424:	40240000 	.word	0x40240000
 23f7428:	00000000 	.word	0x00000000
 23f742c:	40a00200 	.word	0x40a00200
 23f7430:	00010090 	.word	0x00010090
 23f7434:	3fe00000 	.word	0x3fe00000
 23f7438:	4085e000 	.word	0x4085e000
 23f743c:	3ff00000 	.word	0x3ff00000
 23f7440:	54442d18 	.word	0x54442d18
 23f7444:	401921fb 	.word	0x401921fb
 23f7448:	403b0000 	.word	0x403b0000

023f744c <feature2_extract_segment>:
{
 23f744c:	b4f0      	push	{r4, r5, r6, r7}
    if (fx == NULL || samples == NULL || out_features == NULL)
 23f744e:	b150      	cbz	r0, 23f7466 <feature2_extract_segment+0x1a>
 23f7450:	b149      	cbz	r1, 23f7466 <feature2_extract_segment+0x1a>
 23f7452:	b143      	cbz	r3, 23f7466 <feature2_extract_segment+0x1a>
    if (!fx->initialized || num_samples == 0)
 23f7454:	f500 3480 	add.w	r4, r0, #65536	; 0x10000
 23f7458:	f8d4 4088 	ldr.w	r4, [r4, #136]	; 0x88
 23f745c:	b11c      	cbz	r4, 23f7466 <feature2_extract_segment+0x1a>
 23f745e:	b112      	cbz	r2, 23f7466 <feature2_extract_segment+0x1a>
}
 23f7460:	bcf0      	pop	{r4, r5, r6, r7}
 23f7462:	f7ff bb39 	b.w	23f6ad8 <feature2_extract_segment.part.0>
 23f7466:	2000      	movs	r0, #0
 23f7468:	bcf0      	pop	{r4, r5, r6, r7}
 23f746a:	4770      	bx	lr

023f746c <sp_get_ready_rx_page>:

u8 *sp_get_ready_rx_page(void)
{
	pRX_BLOCK prx_block = &(sp_rx_info.rx_block[sp_rx_info.rx_usr_cnt]);
	
	if (prx_block->rx_gdma_own)
 23f746c:	210c      	movs	r1, #12
	pRX_BLOCK prx_block = &(sp_rx_info.rx_block[sp_rx_info.rx_usr_cnt]);
 23f746e:	4a05      	ldr	r2, [pc, #20]	; (23f7484 <sp_get_ready_rx_page+0x18>)
 23f7470:	f892 303d 	ldrb.w	r3, [r2, #61]	; 0x3d
	if (prx_block->rx_gdma_own)
 23f7474:	434b      	muls	r3, r1
 23f7476:	18d1      	adds	r1, r2, r3
 23f7478:	5cd3      	ldrb	r3, [r2, r3]
 23f747a:	b90b      	cbnz	r3, 23f7480 <sp_get_ready_rx_page+0x14>
		return NULL;
	else{
		return (u8*)prx_block->rx_addr;
 23f747c:	6848      	ldr	r0, [r1, #4]
 23f747e:	4770      	bx	lr
		return NULL;
 23f7480:	2000      	movs	r0, #0
	}
}
 23f7482:	4770      	bx	lr
 23f7484:	10062300 	.word	0x10062300

023f7488 <sp_read_rx_page>:

void sp_read_rx_page(u8 *dst, u32 length)
{
 23f7488:	b538      	push	{r3, r4, r5, lr}
	pRX_BLOCK prx_block = &(sp_rx_info.rx_block[sp_rx_info.rx_usr_cnt]);
 23f748a:	4d0c      	ldr	r5, [pc, #48]	; (23f74bc <sp_read_rx_page+0x34>)
{
 23f748c:	460a      	mov	r2, r1
	pRX_BLOCK prx_block = &(sp_rx_info.rx_block[sp_rx_info.rx_usr_cnt]);
 23f748e:	f895 403d 	ldrb.w	r4, [r5, #61]	; 0x3d
	
	if (dst) {
 23f7492:	b128      	cbz	r0, 23f74a0 <sp_read_rx_page+0x18>
		memcpy(dst, (void const*)prx_block->rx_addr, length);
 23f7494:	230c      	movs	r3, #12
 23f7496:	fb03 5304 	mla	r3, r3, r4, r5
 23f749a:	6859      	ldr	r1, [r3, #4]
 23f749c:	f005 fa66 	bl	23fc96c <memcpy>
	}
	prx_block->rx_gdma_own = 1;
 23f74a0:	230c      	movs	r3, #12
 23f74a2:	2201      	movs	r2, #1
 23f74a4:	4363      	muls	r3, r4
	sp_rx_info.rx_usr_cnt++;
 23f74a6:	4414      	add	r4, r2
 23f74a8:	b2e4      	uxtb	r4, r4
	if (sp_rx_info.rx_usr_cnt == SP_DMA_PAGE_NUM){
 23f74aa:	2c04      	cmp	r4, #4
	prx_block->rx_gdma_own = 1;
 23f74ac:	54ea      	strb	r2, [r5, r3]
		sp_rx_info.rx_usr_cnt = 0;
 23f74ae:	bf0a      	itet	eq
 23f74b0:	2300      	moveq	r3, #0
	sp_rx_info.rx_usr_cnt++;
 23f74b2:	f885 403d 	strbne.w	r4, [r5, #61]	; 0x3d
		sp_rx_info.rx_usr_cnt = 0;
 23f74b6:	f885 303d 	strbeq.w	r3, [r5, #61]	; 0x3d
	}
}
 23f74ba:	bd38      	pop	{r3, r4, r5, pc}
 23f74bc:	10062300 	.word	0x10062300

023f74c0 <sp_release_rx_page>:

void sp_release_rx_page(void)
{
	pRX_BLOCK prx_block = &(sp_rx_info.rx_block[sp_rx_info.rx_gdma_cnt]);
	
	if (sp_rx_info.rx_full_flag){
 23f74c0:	4a09      	ldr	r2, [pc, #36]	; (23f74e8 <sp_release_rx_page+0x28>)
 23f74c2:	f892 103e 	ldrb.w	r1, [r2, #62]	; 0x3e
 23f74c6:	b969      	cbnz	r1, 23f74e4 <sp_release_rx_page+0x24>
	}
	else{
		prx_block->rx_gdma_own = 0;
 23f74c8:	200c      	movs	r0, #12
	pRX_BLOCK prx_block = &(sp_rx_info.rx_block[sp_rx_info.rx_gdma_cnt]);
 23f74ca:	f892 303c 	ldrb.w	r3, [r2, #60]	; 0x3c
		prx_block->rx_gdma_own = 0;
 23f74ce:	4358      	muls	r0, r3
		sp_rx_info.rx_gdma_cnt++;
 23f74d0:	3301      	adds	r3, #1
 23f74d2:	b2db      	uxtb	r3, r3
		if (sp_rx_info.rx_gdma_cnt == SP_DMA_PAGE_NUM){
 23f74d4:	2b04      	cmp	r3, #4
		prx_block->rx_gdma_own = 0;
 23f74d6:	5411      	strb	r1, [r2, r0]
		if (sp_rx_info.rx_gdma_cnt == SP_DMA_PAGE_NUM){
 23f74d8:	d002      	beq.n	23f74e0 <sp_release_rx_page+0x20>
		sp_rx_info.rx_gdma_cnt++;
 23f74da:	f882 303c 	strb.w	r3, [r2, #60]	; 0x3c
 23f74de:	4770      	bx	lr
			sp_rx_info.rx_gdma_cnt = 0;
 23f74e0:	f882 103c 	strb.w	r1, [r2, #60]	; 0x3c
		}
	}
}
 23f74e4:	4770      	bx	lr
 23f74e6:	bf00      	nop
 23f74e8:	10062300 	.word	0x10062300

023f74ec <sp_get_free_rx_page>:

u8 *sp_get_free_rx_page(void)
{
	pRX_BLOCK prx_block = &(sp_rx_info.rx_block[sp_rx_info.rx_gdma_cnt]);
	
	if (prx_block->rx_gdma_own){
 23f74ec:	210c      	movs	r1, #12
	pRX_BLOCK prx_block = &(sp_rx_info.rx_block[sp_rx_info.rx_gdma_cnt]);
 23f74ee:	4b08      	ldr	r3, [pc, #32]	; (23f7510 <sp_get_free_rx_page+0x24>)
 23f74f0:	f893 203c 	ldrb.w	r2, [r3, #60]	; 0x3c
	if (prx_block->rx_gdma_own){
 23f74f4:	434a      	muls	r2, r1
 23f74f6:	1899      	adds	r1, r3, r2
 23f74f8:	5c9a      	ldrb	r2, [r3, r2]
 23f74fa:	b122      	cbz	r2, 23f7506 <sp_get_free_rx_page+0x1a>
		sp_rx_info.rx_full_flag = 0;
 23f74fc:	2200      	movs	r2, #0
		return (u8*)prx_block->rx_addr;
 23f74fe:	6848      	ldr	r0, [r1, #4]
		sp_rx_info.rx_full_flag = 0;
 23f7500:	f883 203e 	strb.w	r2, [r3, #62]	; 0x3e
		return (u8*)prx_block->rx_addr;
 23f7504:	4770      	bx	lr
	}
	else{
		sp_rx_info.rx_full_flag = 1;
 23f7506:	2201      	movs	r2, #1
		return (u8*)sp_rx_info.rx_full_block.rx_addr;	//for audio buffer full case
 23f7508:	6b58      	ldr	r0, [r3, #52]	; 0x34
		sp_rx_info.rx_full_flag = 1;
 23f750a:	f883 203e 	strb.w	r2, [r3, #62]	; 0x3e
	}
}
 23f750e:	4770      	bx	lr
 23f7510:	10062300 	.word	0x10062300

023f7514 <sp_get_free_rx_length>:

u32 sp_get_free_rx_length(void)
{
	pRX_BLOCK prx_block = &(sp_rx_info.rx_block[sp_rx_info.rx_gdma_cnt]);

	if (sp_rx_info.rx_full_flag){
 23f7514:	4b06      	ldr	r3, [pc, #24]	; (23f7530 <sp_get_free_rx_length+0x1c>)
 23f7516:	f893 203e 	ldrb.w	r2, [r3, #62]	; 0x3e
 23f751a:	b10a      	cbz	r2, 23f7520 <sp_get_free_rx_length+0xc>
		return sp_rx_info.rx_full_block.rx_length;
 23f751c:	6b98      	ldr	r0, [r3, #56]	; 0x38
 23f751e:	4770      	bx	lr
	}
	else{
		return prx_block->rx_length;
 23f7520:	210c      	movs	r1, #12
	pRX_BLOCK prx_block = &(sp_rx_info.rx_block[sp_rx_info.rx_gdma_cnt]);
 23f7522:	f893 203c 	ldrb.w	r2, [r3, #60]	; 0x3c
		return prx_block->rx_length;
 23f7526:	fb01 3302 	mla	r3, r1, r2, r3
 23f752a:	6898      	ldr	r0, [r3, #8]
	}
}
 23f752c:	4770      	bx	lr
 23f752e:	bf00      	nop
 23f7530:	10062300 	.word	0x10062300

023f7534 <sp_rx_complete>:


void sp_rx_complete(void *Data)
{
 23f7534:	b537      	push	{r0, r1, r2, r4, r5, lr}
  * @brief  Check DCache Enabled or not.
  */
__STATIC_INLINE
u32 DCache_IsEnabled(void)
{
	return ((SCB->CCR & (u32)SCB_CCR_DC_Msk)?1:0);
 23f7536:	4b21      	ldr	r3, [pc, #132]	; (23f75bc <sp_rx_complete+0x88>)
 23f7538:	4604      	mov	r4, r0
 23f753a:	695b      	ldr	r3, [r3, #20]
__STATIC_INLINE
void DCache_Invalidate(u32 Address, u32 Bytes)
{
	u32 addr = Address, len = Bytes;

	if (DCache_IsEnabled() == 0)
 23f753c:	03d8      	lsls	r0, r3, #15
 23f753e:	d51a      	bpl.n	23f7576 <sp_rx_complete+0x42>
	PGDMA_InitTypeDef GDMA_InitStruct;
	u32 rx_addr;
	u32 rx_length;
	
	GDMA_InitStruct = &(gs->SpRxGdmaInitStruct);
	DCache_Invalidate(GDMA_InitStruct->GDMA_DstAddr, GDMA_InitStruct->GDMA_BlockSize<<2);
 23f7540:	6a63      	ldr	r3, [r4, #36]	; 0x24
 23f7542:	8d22      	ldrh	r2, [r4, #40]	; 0x28
		return;

	if ((Address == 0xFFFFFFFF) && (Bytes == 0xFFFFFFFF)) {
		SCB_InvalidateDCache();
	} else {
		if ((addr & 0x1F) != 0) {
 23f7544:	06d9      	lsls	r1, r3, #27
 23f7546:	ea4f 0282 	mov.w	r2, r2, lsl #2
 23f754a:	d008      	beq.n	23f755e <sp_rx_complete+0x2a>
			addr = (Address >> 5) << 5;   //32-byte aligned
 23f754c:	f023 011f 	bic.w	r1, r3, #31
			len = ((((Address + Bytes -1) >> 5) + 1) << 5) - addr; //next 32-byte aligned
 23f7550:	3b01      	subs	r3, #1
 23f7552:	4413      	add	r3, r2
 23f7554:	f023 031f 	bic.w	r3, r3, #31
 23f7558:	3320      	adds	r3, #32
 23f755a:	1a5a      	subs	r2, r3, r1
			addr = (Address >> 5) << 5;   //32-byte aligned
 23f755c:	460b      	mov	r3, r1
  \details Acts as a special kind of Data Memory Barrier.
           It completes when all explicit memory accesses before this instruction complete.
 */
__attribute__((always_inline)) __STATIC_INLINE void __DSB(void)
{
  __ASM volatile ("dsb 0xF":::"memory");
 23f755e:	f3bf 8f4f 	dsb	sy
     int32_t linesize = 32;                /* in Cortex-M7 size of cache line is fixed to 8 words (32 bytes) */

    __DSB();

    while (op_size > 0) {
      SCB->DCIMVAC = op_addr;
 23f7562:	4816      	ldr	r0, [pc, #88]	; (23f75bc <sp_rx_complete+0x88>)
 23f7564:	4413      	add	r3, r2
    while (op_size > 0) {
 23f7566:	2a00      	cmp	r2, #0
 23f7568:	eba3 0102 	sub.w	r1, r3, r2
 23f756c:	dc21      	bgt.n	23f75b2 <sp_rx_complete+0x7e>
 23f756e:	f3bf 8f4f 	dsb	sy
  __ASM volatile ("isb 0xF":::"memory");
 23f7572:	f3bf 8f6f 	isb	sy
	/* Clear Pending ISR */
	GDMA_ClearINT(GDMA_InitStruct->GDMA_Index, GDMA_InitStruct->GDMA_ChNum);
 23f7576:	7861      	ldrb	r1, [r4, #1]
 23f7578:	4b11      	ldr	r3, [pc, #68]	; (23f75c0 <sp_rx_complete+0x8c>)
 23f757a:	7820      	ldrb	r0, [r4, #0]
 23f757c:	4798      	blx	r3

	sp_release_rx_page();
 23f757e:	f7ff ff9f 	bl	23f74c0 <sp_release_rx_page>
	rx_addr = (u32)sp_get_free_rx_page();
 23f7582:	f7ff ffb3 	bl	23f74ec <sp_get_free_rx_page>
 23f7586:	9001      	str	r0, [sp, #4]
	rx_length = sp_get_free_rx_length();
 23f7588:	f7ff ffc4 	bl	23f7514 <sp_get_free_rx_length>
 23f758c:	4605      	mov	r5, r0
	GDMA_SetDstAddr(GDMA_InitStruct->GDMA_Index, GDMA_InitStruct->GDMA_ChNum, rx_addr);
 23f758e:	9a01      	ldr	r2, [sp, #4]
 23f7590:	7861      	ldrb	r1, [r4, #1]
 23f7592:	7820      	ldrb	r0, [r4, #0]
 23f7594:	4b0b      	ldr	r3, [pc, #44]	; (23f75c4 <sp_rx_complete+0x90>)
 23f7596:	4798      	blx	r3
	GDMA_SetBlkSize(GDMA_InitStruct->GDMA_Index, GDMA_InitStruct->GDMA_ChNum, rx_length>>2);	
 23f7598:	7861      	ldrb	r1, [r4, #1]
 23f759a:	7820      	ldrb	r0, [r4, #0]
 23f759c:	08aa      	lsrs	r2, r5, #2
 23f759e:	4b0a      	ldr	r3, [pc, #40]	; (23f75c8 <sp_rx_complete+0x94>)
 23f75a0:	4798      	blx	r3
	
	GDMA_Cmd(GDMA_InitStruct->GDMA_Index, GDMA_InitStruct->GDMA_ChNum, ENABLE);
 23f75a2:	2201      	movs	r2, #1
 23f75a4:	7861      	ldrb	r1, [r4, #1]
 23f75a6:	7820      	ldrb	r0, [r4, #0]
 23f75a8:	4b08      	ldr	r3, [pc, #32]	; (23f75cc <sp_rx_complete+0x98>)
	//AUDIO_SP_RXGDMA_Restart(GDMA_InitStruct->GDMA_Index, GDMA_InitStruct->GDMA_ChNum, rx_addr, rx_length);
}
 23f75aa:	b003      	add	sp, #12
 23f75ac:	e8bd 4030 	ldmia.w	sp!, {r4, r5, lr}
	GDMA_Cmd(GDMA_InitStruct->GDMA_Index, GDMA_InitStruct->GDMA_ChNum, ENABLE);
 23f75b0:	4718      	bx	r3
      SCB->DCIMVAC = op_addr;
 23f75b2:	f8c0 125c 	str.w	r1, [r0, #604]	; 0x25c
      op_addr += (uint32_t)linesize;
      op_size -=           linesize;
 23f75b6:	3a20      	subs	r2, #32
 23f75b8:	e7d5      	b.n	23f7566 <sp_rx_complete+0x32>
 23f75ba:	bf00      	nop
 23f75bc:	e000ed00 	.word	0xe000ed00
 23f75c0:	1010bda5 	.word	0x1010bda5
 23f75c4:	1010c2b9 	.word	0x1010c2b9
 23f75c8:	1010c309 	.word	0x1010c309
 23f75cc:	1010bf91 	.word	0x1010bf91

023f75d0 <dmic_setup>:
//

void dmic_setup(int sampleRate, bool stereoMode) {
    SP_OBJ sp_obj;

	switch(sampleRate) {
 23f75d0:	f5b0 5ffa 	cmp.w	r0, #8000	; 0x1f40
void dmic_setup(int sampleRate, bool stereoMode) {
 23f75d4:	b5f7      	push	{r0, r1, r2, r4, r5, r6, r7, lr}
	switch(sampleRate) {
 23f75d6:	d01c      	beq.n	23f7612 <dmic_setup+0x42>
		case 8000:
			sp_obj.sample_rate = SR_8K;
			break;

		case 32000:
			sp_obj.sample_rate = SR_32K;
 23f75d8:	f5b0 4ffa 	cmp.w	r0, #32000	; 0x7d00
 23f75dc:	bf14      	ite	ne
 23f75de:	2505      	movne	r5, #5
 23f75e0:	2503      	moveq	r5, #3
	PLL_I2S_Set(ENABLE);		//enable 98.304MHz PLL. needed if fs=8k/16k/32k/48k/96k
 23f75e2:	4b37      	ldr	r3, [pc, #220]	; (23f76c0 <dmic_setup+0xf0>)
 23f75e4:	2001      	movs	r0, #1
			sp_obj.sample_rate = SR_16K;
			break;
	}

	sp_obj.word_len = WL_16;
	sp_obj.mono_stereo = stereoMode ? CH_STEREO : CH_MONO;
 23f75e6:	fab1 f481 	clz	r4, r1
	PLL_I2S_Set(ENABLE);		//enable 98.304MHz PLL. needed if fs=8k/16k/32k/48k/96k
 23f75ea:	4798      	blx	r3
	RCC_PeriphClockCmd(APBPeriph_AUDIOC, APBPeriph_AUDIOC_CLOCK, ENABLE);
 23f75ec:	f04f 4141 	mov.w	r1, #3238002688	; 0xc1000000
 23f75f0:	2201      	movs	r2, #1
 23f75f2:	4608      	mov	r0, r1
 23f75f4:	4f33      	ldr	r7, [pc, #204]	; (23f76c4 <dmic_setup+0xf4>)
 23f75f6:	47b8      	blx	r7
	RCC_PeriphClockCmd(APBPeriph_SPORT, APBPeriph_SPORT_CLOCK, ENABLE);	
 23f75f8:	4933      	ldr	r1, [pc, #204]	; (23f76c8 <dmic_setup+0xf8>)
 23f75fa:	2201      	movs	r2, #1
 23f75fc:	4608      	mov	r0, r1
 23f75fe:	47b8      	blx	r7
 23f7600:	1eeb      	subs	r3, r5, #3
	sp_obj.mono_stereo = stereoMode ? CH_STEREO : CH_MONO;
 23f7602:	0964      	lsrs	r4, r4, #5
	switch(psp_obj->sample_rate){
 23f7604:	2b04      	cmp	r3, #4
 23f7606:	d807      	bhi.n	23f7618 <dmic_setup+0x48>
 23f7608:	e8df f003 	tbb	[pc, r3]
 23f760c:	06560605 	.word	0x06560605
 23f7610:	58          	.byte	0x58
 23f7611:	00          	.byte	0x00
	switch(sampleRate) {
 23f7612:	2507      	movs	r5, #7
 23f7614:	e7e5      	b.n	23f75e2 <dmic_setup+0x12>
			div = 12;
 23f7616:	260c      	movs	r6, #12
	PLL_Div(div);
 23f7618:	4630      	mov	r0, r6
 23f761a:	f002 fa0d 	bl	23f9a38 <PLL_Div>
	CODEC_Init(psp_obj->sample_rate, psp_obj->word_len, psp_obj->mono_stereo, psp_obj->direction);
 23f761e:	2302      	movs	r3, #2
 23f7620:	4622      	mov	r2, r4
 23f7622:	4628      	mov	r0, r5
 23f7624:	2100      	movs	r1, #0
 23f7626:	f000 f89f 	bl	23f7768 <CODEC_Init>
	PAD_CMD(_PB_1, DISABLE);
 23f762a:	4d28      	ldr	r5, [pc, #160]	; (23f76cc <dmic_setup+0xfc>)
 23f762c:	2100      	movs	r1, #0
 23f762e:	2021      	movs	r0, #33	; 0x21
 23f7630:	47a8      	blx	r5
	PAD_CMD(_PB_2, DISABLE);
 23f7632:	2100      	movs	r1, #0
 23f7634:	2022      	movs	r0, #34	; 0x22
 23f7636:	47a8      	blx	r5
	Pinmux_Config(_PB_1, PINMUX_FUNCTION_DMIC); // DMIC_CLK - A0
 23f7638:	4d25      	ldr	r5, [pc, #148]	; (23f76d0 <dmic_setup+0x100>)
 23f763a:	210c      	movs	r1, #12
 23f763c:	2021      	movs	r0, #33	; 0x21
 23f763e:	47a8      	blx	r5
	Pinmux_Config(_PB_2, PINMUX_FUNCTION_DMIC);	// DMIC_DATA - A1
 23f7640:	210c      	movs	r1, #12
 23f7642:	2022      	movs	r0, #34	; 0x22
 23f7644:	47a8      	blx	r5
	sp_rx_info.rx_full_block.rx_addr = (u32)sp_full_buf;
 23f7646:	4b23      	ldr	r3, [pc, #140]	; (23f76d4 <dmic_setup+0x104>)
 23f7648:	4a23      	ldr	r2, [pc, #140]	; (23f76d8 <dmic_setup+0x108>)
		sp_rx_info.rx_block[i].rx_gdma_own = 1;
 23f764a:	2501      	movs	r5, #1
	sp_rx_info.rx_full_block.rx_addr = (u32)sp_full_buf;
 23f764c:	635a      	str	r2, [r3, #52]	; 0x34
	sp_rx_info.rx_full_block.rx_length = (u32)SP_FULL_BUF_SIZE;
 23f764e:	2280      	movs	r2, #128	; 0x80
 23f7650:	639a      	str	r2, [r3, #56]	; 0x38
	sp_rx_info.rx_gdma_cnt = 0;
 23f7652:	2200      	movs	r2, #0
		sp_rx_info.rx_block[i].rx_length = SP_DMA_PAGE_SIZE;
 23f7654:	f44f 7000 	mov.w	r0, #512	; 0x200
 23f7658:	4920      	ldr	r1, [pc, #128]	; (23f76dc <dmic_setup+0x10c>)
	sp_rx_info.rx_gdma_cnt = 0;
 23f765a:	879a      	strh	r2, [r3, #60]	; 0x3c
	sp_rx_info.rx_full_flag = 0;
 23f765c:	f883 203e 	strb.w	r2, [r3, #62]	; 0x3e
	for(i=0; i<SP_DMA_PAGE_NUM; i++){
 23f7660:	3201      	adds	r2, #1
 23f7662:	2a04      	cmp	r2, #4
		sp_rx_info.rx_block[i].rx_length = SP_DMA_PAGE_SIZE;
 23f7664:	e9c3 1001 	strd	r1, r0, [r3, #4]
		sp_rx_info.rx_block[i].rx_gdma_own = 1;
 23f7668:	701d      	strb	r5, [r3, #0]
	for(i=0; i<SP_DMA_PAGE_NUM; i++){
 23f766a:	f501 7100 	add.w	r1, r1, #512	; 0x200
 23f766e:	f103 030c 	add.w	r3, r3, #12
 23f7672:	d1f5      	bne.n	23f7660 <dmic_setup+0x90>
	sp_init_rx_variables();

	/*configure Sport according to the parameters*/
	AUDIO_SP_StructInit(&SP_InitStruct);
	SP_InitStruct.SP_MonoStereo= psp_obj->mono_stereo;
	SP_InitStruct.SP_WordLen = psp_obj->word_len;
 23f7674:	2600      	movs	r6, #0
	AUDIO_SP_StructInit(&SP_InitStruct);
 23f7676:	4d1a      	ldr	r5, [pc, #104]	; (23f76e0 <dmic_setup+0x110>)
 23f7678:	4b1a      	ldr	r3, [pc, #104]	; (23f76e4 <dmic_setup+0x114>)
 23f767a:	4628      	mov	r0, r5
 23f767c:	4798      	blx	r3

	AUDIO_SP_Init(AUDIO_SPORT_DEV, &SP_InitStruct);
 23f767e:	4629      	mov	r1, r5
 23f7680:	4819      	ldr	r0, [pc, #100]	; (23f76e8 <dmic_setup+0x118>)
 23f7682:	4b1a      	ldr	r3, [pc, #104]	; (23f76ec <dmic_setup+0x11c>)
	SP_InitStruct.SP_MonoStereo= psp_obj->mono_stereo;
 23f7684:	60ac      	str	r4, [r5, #8]
	SP_InitStruct.SP_WordLen = psp_obj->word_len;
 23f7686:	602e      	str	r6, [r5, #0]
	AUDIO_SP_Init(AUDIO_SPORT_DEV, &SP_InitStruct);
 23f7688:	4798      	blx	r3
	
	AUDIO_SP_RdmaCmd(AUDIO_SPORT_DEV, ENABLE);
 23f768a:	2101      	movs	r1, #1
 23f768c:	4816      	ldr	r0, [pc, #88]	; (23f76e8 <dmic_setup+0x118>)
 23f768e:	4b18      	ldr	r3, [pc, #96]	; (23f76f0 <dmic_setup+0x120>)
 23f7690:	4798      	blx	r3
	AUDIO_SP_RxStart(AUDIO_SPORT_DEV, ENABLE);	
 23f7692:	2101      	movs	r1, #1
 23f7694:	4b17      	ldr	r3, [pc, #92]	; (23f76f4 <dmic_setup+0x124>)
 23f7696:	4814      	ldr	r0, [pc, #80]	; (23f76e8 <dmic_setup+0x118>)
 23f7698:	4798      	blx	r3

	rx_addr = (u32)sp_get_free_rx_page();
 23f769a:	f7ff ff27 	bl	23f74ec <sp_get_free_rx_page>
 23f769e:	4604      	mov	r4, r0
	rx_length = sp_get_free_rx_length();
 23f76a0:	f7ff ff38 	bl	23f7514 <sp_get_free_rx_length>
	AUDIO_SP_RXGDMA_Init(0, &SPGdmaStruct.SpRxGdmaInitStruct, &SPGdmaStruct, (IRQ_FUN)sp_rx_complete, (u8*)rx_addr, rx_length);	
 23f76a4:	4a14      	ldr	r2, [pc, #80]	; (23f76f8 <dmic_setup+0x128>)
 23f76a6:	e9cd 4000 	strd	r4, r0, [sp]
 23f76aa:	4611      	mov	r1, r2
 23f76ac:	4630      	mov	r0, r6
 23f76ae:	4b13      	ldr	r3, [pc, #76]	; (23f76fc <dmic_setup+0x12c>)
 23f76b0:	4c13      	ldr	r4, [pc, #76]	; (23f7700 <dmic_setup+0x130>)
 23f76b2:	47a0      	blx	r4

    // Particle.connect();
}
 23f76b4:	b003      	add	sp, #12
 23f76b6:	bdf0      	pop	{r4, r5, r6, r7, pc}
			div = 24;
 23f76b8:	2618      	movs	r6, #24
			break;
 23f76ba:	e7ad      	b.n	23f7618 <dmic_setup+0x48>
			div = 48;
 23f76bc:	2630      	movs	r6, #48	; 0x30
			break;
 23f76be:	e7ab      	b.n	23f7618 <dmic_setup+0x48>
 23f76c0:	023f9a51 	.word	0x023f9a51
 23f76c4:	10110039 	.word	0x10110039
 23f76c8:	40080000 	.word	0x40080000
 23f76cc:	1010cf99 	.word	0x1010cf99
 23f76d0:	1010cfb9 	.word	0x1010cfb9
 23f76d4:	10062300 	.word	0x10062300
 23f76d8:	10061a80 	.word	0x10061a80
 23f76dc:	10061b00 	.word	0x10061b00
 23f76e0:	10061a54 	.word	0x10061a54
 23f76e4:	023f9b05 	.word	0x023f9b05
 23f76e8:	40010800 	.word	0x40010800
 23f76ec:	023f9b59 	.word	0x023f9b59
 23f76f0:	023f9bf9 	.word	0x023f9bf9
 23f76f4:	023f9b35 	.word	0x023f9b35
 23f76f8:	10061a00 	.word	0x10061a00
 23f76fc:	023f7535 	.word	0x023f7535
 23f7700:	023f9c1d 	.word	0x023f9c1d

023f7704 <dmic_flush>:


void dmic_flush() {
 23f7704:	b508      	push	{r3, lr}
	while(sp_get_ready_rx_page() != NULL) {
 23f7706:	f7ff feb1 	bl	23f746c <sp_get_ready_rx_page>
 23f770a:	b900      	cbnz	r0, 23f770e <dmic_flush+0xa>
        sp_read_rx_page(NULL, 0);
    }  
}
 23f770c:	bd08      	pop	{r3, pc}
        sp_read_rx_page(NULL, 0);
 23f770e:	2100      	movs	r1, #0
 23f7710:	4608      	mov	r0, r1
 23f7712:	f7ff feb9 	bl	23f7488 <sp_read_rx_page>
 23f7716:	e7f6      	b.n	23f7706 <dmic_flush+0x2>

023f7718 <dmic_ready>:

unsigned char *dmic_ready() {
	return sp_get_ready_rx_page();
 23f7718:	f7ff bea8 	b.w	23f746c <sp_get_ready_rx_page>

023f771c <dmic_read>:
}

void dmic_read(unsigned char *buf, size_t len) {
	sp_read_rx_page(buf, len);
 23f771c:	f7ff beb4 	b.w	23f7488 <sp_read_rx_page>

023f7720 <AUDIO_SI_WriteReg>:
void AUDIO_SI_WriteReg(u32 address, u32 data)
{
	u32 cnt = 0;
	AUDIO_SI_TypeDef *SIx = AUDIO_SI_DEV;

	SIx->SI_CTRLR = (address << 8) | (data << 16) | BIT_CTRLR_SI_WR_START;
 23f7720:	0409      	lsls	r1, r1, #16
 23f7722:	4a06      	ldr	r2, [pc, #24]	; (23f773c <AUDIO_SI_WriteReg+0x1c>)
 23f7724:	ea41 2000 	orr.w	r0, r1, r0, lsl #8
 23f7728:	f040 0001 	orr.w	r0, r0, #1

	while ((SIx->SI_CTRLR & BIT_CTRLR_SI_WR_START) && (++cnt) < 100000);
 23f772c:	4b04      	ldr	r3, [pc, #16]	; (23f7740 <AUDIO_SI_WriteReg+0x20>)
	SIx->SI_CTRLR = (address << 8) | (data << 16) | BIT_CTRLR_SI_WR_START;
 23f772e:	6010      	str	r0, [r2, #0]
	while ((SIx->SI_CTRLR & BIT_CTRLR_SI_WR_START) && (++cnt) < 100000);
 23f7730:	6811      	ldr	r1, [r2, #0]
 23f7732:	07c9      	lsls	r1, r1, #31
 23f7734:	d501      	bpl.n	23f773a <AUDIO_SI_WriteReg+0x1a>
 23f7736:	3b01      	subs	r3, #1
 23f7738:	d1fa      	bne.n	23f7730 <AUDIO_SI_WriteReg+0x10>

	if (cnt == 100000) {
		DBG_8195A("write codec reg fail!!\n");
	}
}
 23f773a:	4770      	bx	lr
 23f773c:	40010000 	.word	0x40010000
 23f7740:	000186a0 	.word	0x000186a0

023f7744 <AUDIO_SI_ReadReg>:
	u32 reg_value = 0;
	u32 cnt = 0;
	AUDIO_SI_TypeDef *SIx = AUDIO_SI_DEV;

	/* Configure Read command */
	SIx->SI_CTRLR = (address << 8) | BIT_CTRLR_SI_RD_START;
 23f7744:	4a06      	ldr	r2, [pc, #24]	; (23f7760 <AUDIO_SI_ReadReg+0x1c>)
 23f7746:	0200      	lsls	r0, r0, #8
 23f7748:	f040 0010 	orr.w	r0, r0, #16
 23f774c:	6010      	str	r0, [r2, #0]
 23f774e:	4805      	ldr	r0, [pc, #20]	; (23f7764 <AUDIO_SI_ReadReg+0x20>)

	do {
		reg_value = SIx->SI_CTRLR;
 23f7750:	6813      	ldr	r3, [r2, #0]
		/* waiting for read done */
	} while ((reg_value & BIT_CTRLR_SI_RD_START) && (++cnt) < 100000);
 23f7752:	06d9      	lsls	r1, r3, #27
 23f7754:	d502      	bpl.n	23f775c <AUDIO_SI_ReadReg+0x18>
 23f7756:	3801      	subs	r0, #1
 23f7758:	d1fa      	bne.n	23f7750 <AUDIO_SI_ReadReg+0xc>
 23f775a:	4770      	bx	lr
	if (cnt == 100000) {
		DBG_8195A("read codec reg fail!!\n");
		return 0;
	}

	return ((reg_value & BIT_CTRLR_SI_DATA) >> 16);
 23f775c:	0c18      	lsrs	r0, r3, #16
}
 23f775e:	4770      	bx	lr
 23f7760:	40010000 	.word	0x40010000
 23f7764:	000186a0 	.word	0x000186a0

023f7768 <CODEC_Init>:
  *            @arg APP_LINE_OUT: line out
  *            @arg APP_DAAD_LPBK: loopback
  * @return  None
  */
void CODEC_Init(u32 sample_rate, u32 word_len, u32 mono_stereo, u32 application)
{
 23f7768:	e92d 47f3 	stmdb	sp!, {r0, r1, r4, r5, r6, r7, r8, r9, sl, lr}
 23f776c:	4617      	mov	r7, r2
	uint32_t reg_value = 0, reg_value2 = 0, reg_value3 = 0;

	reg_value = HAL_READ32(SYSTEM_CTRL_BASE_LP, REG_AUDIO_SHARE_PAD_CTRL);
 23f776e:	f04f 4290 	mov.w	r2, #1207959552	; 0x48000000
{
 23f7772:	461d      	mov	r5, r3
 23f7774:	4688      	mov	r8, r1
	reg_value = HAL_READ32(SYSTEM_CTRL_BASE_LP, REG_AUDIO_SHARE_PAD_CTRL);
 23f7776:	f8d2 3344 	ldr.w	r3, [r2, #836]	; 0x344
#define AUTO_CAL_MAX_ERROR				0x007

static inline u32
is_power_supply18(void)
{
	u32 temp = HAL_READ32(SYSTEM_CTRL_BASE_LP, REG_AON_LDO_CTRL0);
 23f777a:	6911      	ldr	r1, [r2, #16]
	reg_value &= ~(BIT_LSYS_MASK_AC_LDO_REG << BIT_LSYS_SHIFT_AC_LDO_REG);
 23f777c:	f023 03fe 	bic.w	r3, r3, #254	; 0xfe

	if (temp & BIT_AON_V1833_SEL)
 23f7780:	0149      	lsls	r1, r1, #5
	//restore the pad power
	if (is_power_supply18()) {
		reg_value |= ((u32)0x68) << BIT_LSYS_SHIFT_AC_LDO_REG;
	} else {
		reg_value |= ((u32)0x2A) << BIT_LSYS_SHIFT_AC_LDO_REG;
 23f7782:	bf4c      	ite	mi
 23f7784:	f043 0354 	orrmi.w	r3, r3, #84	; 0x54
		reg_value |= ((u32)0x68) << BIT_LSYS_SHIFT_AC_LDO_REG;
 23f7788:	f043 03d0 	orrpl.w	r3, r3, #208	; 0xd0
	}
	HAL_WRITE32(SYSTEM_CTRL_BASE_LP, REG_AUDIO_SHARE_PAD_CTRL, reg_value);

	/* ================= CODEC initialize ======================== */

	if ((application & APP_DAAD_LPBK) == APP_DAAD_LPBK) {
 23f778c:	f015 0410 	ands.w	r4, r5, #16
{
 23f7790:	4606      	mov	r6, r0
	HAL_WRITE32(SYSTEM_CTRL_BASE_LP, REG_AUDIO_SHARE_PAD_CTRL, reg_value);
 23f7792:	f8c2 3344 	str.w	r3, [r2, #836]	; 0x344

		reg_value3 = (1 | 1 << BIT_ASRC_FTK_LOOP_EN | 1 << BIT_ASRC_256FS_SYS_SEL | 1 << BIT_ASRC_EN);
		AUDIO_SI_WriteReg(ASRC_CTRL, reg_value3);
		reg_value3 = 0;

		AUDIO_SI_WriteReg(DAC_ADC_SR_CTRL, (sample_rate << 4) | sample_rate);
 23f7796:	ea40 1900 	orr.w	r9, r0, r0, lsl #4
	if ((application & APP_DAAD_LPBK) == APP_DAAD_LPBK) {
 23f779a:	d059      	beq.n	23f7850 <CODEC_Init+0xe8>
		AUDIO_SI_WriteReg(ADC_L_CTRL, reg_value3);
 23f779c:	f44f 6121 	mov.w	r1, #2576	; 0xa10
 23f77a0:	2012      	movs	r0, #18
 23f77a2:	f7ff ffbd 	bl	23f7720 <AUDIO_SI_WriteReg>
		AUDIO_SI_WriteReg(ADC_R_ADJ_D, reg_value3);
 23f77a6:	f44f 6121 	mov.w	r1, #2576	; 0xa10
 23f77aa:	2015      	movs	r0, #21
 23f77ac:	f7ff ffb8 	bl	23f7720 <AUDIO_SI_WriteReg>
		reg_value = AUDIO_SI_ReadReg(ASRC_CTRL);
 23f77b0:	201b      	movs	r0, #27
 23f77b2:	f7ff ffc7 	bl	23f7744 <AUDIO_SI_ReadReg>
		reg_value |= (1 | 1 << BIT_ASRC_FTK_LOOP_EN | 1 << BIT_ASRC_256FS_SYS_SEL);
 23f77b6:	f040 0007 	orr.w	r0, r0, #7
		AUDIO_SI_WriteReg(ASRC_CTRL, reg_value);
 23f77ba:	b281      	uxth	r1, r0
 23f77bc:	201b      	movs	r0, #27
 23f77be:	f7ff ffaf 	bl	23f7720 <AUDIO_SI_WriteReg>
		reg_value = AUDIO_SI_ReadReg(ASRC_CTRL);
 23f77c2:	201b      	movs	r0, #27
 23f77c4:	f7ff ffbe 	bl	23f7744 <AUDIO_SI_ReadReg>
		reg_value |= (1 << BIT_ASRC_EN);
 23f77c8:	f040 0010 	orr.w	r0, r0, #16
		AUDIO_SI_WriteReg(ASRC_CTRL, reg_value);
 23f77cc:	b281      	uxth	r1, r0
 23f77ce:	201b      	movs	r0, #27
 23f77d0:	f7ff ffa6 	bl	23f7720 <AUDIO_SI_WriteReg>
		AUDIO_SI_WriteReg(DAC_ADC_MIC_CLK_CTRL, reg_value3);
 23f77d4:	f641 71bf 	movw	r1, #8127	; 0x1fbf
 23f77d8:	2018      	movs	r0, #24
 23f77da:	f7ff ffa1 	bl	23f7720 <AUDIO_SI_WriteReg>
		reg_value = AUDIO_SI_ReadReg(DAC_L_MUTE_CTRL);
 23f77de:	20fb      	movs	r0, #251	; 0xfb
 23f77e0:	f7ff ffb0 	bl	23f7744 <AUDIO_SI_ReadReg>
		reg_value |= (1 << BIT_DAAD_LPBK_EN);
 23f77e4:	f040 0002 	orr.w	r0, r0, #2
		AUDIO_SI_WriteReg(DAC_L_MUTE_CTRL, reg_value);
 23f77e8:	b281      	uxth	r1, r0
 23f77ea:	20fb      	movs	r0, #251	; 0xfb
 23f77ec:	f7ff ff98 	bl	23f7720 <AUDIO_SI_WriteReg>
		reg_value = AUDIO_SI_ReadReg(ADC_DMIC_L_FILTER_CTRL);
 23f77f0:	2011      	movs	r0, #17
 23f77f2:	f7ff ffa7 	bl	23f7744 <AUDIO_SI_ReadReg>
		reg_value |= (1 << BIT_ADC_L_AD_MIX_MUTE);
 23f77f6:	f420 5100 	bic.w	r1, r0, #8192	; 0x2000
 23f77fa:	f441 5180 	orr.w	r1, r1, #4096	; 0x1000
 23f77fe:	b289      	uxth	r1, r1
		AUDIO_SI_WriteReg(ADC_DMIC_L_FILTER_CTRL, reg_value);
 23f7800:	2011      	movs	r0, #17
 23f7802:	f7ff ff8d 	bl	23f7720 <AUDIO_SI_WriteReg>
		reg_value = AUDIO_SI_ReadReg(ADC_DMIC_R_FILTER_CTRL);
 23f7806:	2014      	movs	r0, #20
 23f7808:	f7ff ff9c 	bl	23f7744 <AUDIO_SI_ReadReg>
		reg_value |= (1 << BIT_ADC_R_AD_MIX_MUTE);
 23f780c:	f420 5100 	bic.w	r1, r0, #8192	; 0x2000
 23f7810:	f441 5180 	orr.w	r1, r1, #4096	; 0x1000
 23f7814:	b289      	uxth	r1, r1
		AUDIO_SI_WriteReg(ADC_DMIC_R_FILTER_CTRL, reg_value);
 23f7816:	2014      	movs	r0, #20
 23f7818:	f7ff ff82 	bl	23f7720 <AUDIO_SI_WriteReg>
		reg_value = AUDIO_SI_ReadReg(DAC_ADC_MIC_CLK_CTRL);
 23f781c:	2018      	movs	r0, #24
 23f781e:	f7ff ff91 	bl	23f7744 <AUDIO_SI_ReadReg>
		reg_value |= (1 << BIT_DMIC_L_EN | 1 << BIT_DMIC_R_EN | 1 << BIT_DMIC_CLK_EN);
 23f7822:	ea6f 40c0 	mvn.w	r0, r0, lsl #19
 23f7826:	ea6f 40d0 	mvn.w	r0, r0, lsr #19
		AUDIO_SI_WriteReg(DAC_ADC_MIC_CLK_CTRL, reg_value);
 23f782a:	b281      	uxth	r1, r0
 23f782c:	2018      	movs	r0, #24
 23f782e:	f7ff ff77 	bl	23f7720 <AUDIO_SI_WriteReg>
		AUDIO_SI_WriteReg(ASRC_CTRL, reg_value3);
 23f7832:	2117      	movs	r1, #23
 23f7834:	201b      	movs	r0, #27
 23f7836:	f7ff ff73 	bl	23f7720 <AUDIO_SI_WriteReg>
		AUDIO_SI_WriteReg(DAC_ADC_SR_CTRL, (sample_rate << 4) | sample_rate);
 23f783a:	4649      	mov	r1, r9
 23f783c:	2017      	movs	r0, #23
 23f783e:	f7ff ff6f 	bl	23f7720 <AUDIO_SI_WriteReg>

		reg_value3 = (1 << BIT_I2S_RST_N_REG);
		AUDIO_SI_WriteReg(I2S_CTRL, reg_value3);
 23f7842:	2180      	movs	r1, #128	; 0x80
		reg_value &= (0xffff & (~(3 << BIT_ASRC_256FS_SYS_SEL)));
		AUDIO_SI_WriteReg(ASRC_CTRL, reg_value);
	}

	reg_value = ((word_len << 4) | mono_stereo | 0x0080);
	AUDIO_SI_WriteReg(I2S_CTRL, reg_value);
 23f7844:	2010      	movs	r0, #16
}
 23f7846:	b002      	add	sp, #8
 23f7848:	e8bd 47f0 	ldmia.w	sp!, {r4, r5, r6, r7, r8, r9, sl, lr}
	AUDIO_SI_WriteReg(I2S_CTRL, reg_value);
 23f784c:	f7ff bf68 	b.w	23f7720 <AUDIO_SI_WriteReg>
	reg_value = AUDIO_SI_ReadReg(MICBST_CTRL);		//VREF voltage selection
 23f7850:	2003      	movs	r0, #3
 23f7852:	f7ff ff77 	bl	23f7744 <AUDIO_SI_ReadReg>
	reg_value |= (2 << BIT_VREF_VREFSEL);
 23f7856:	f420 6140 	bic.w	r1, r0, #3072	; 0xc00
 23f785a:	f441 6100 	orr.w	r1, r1, #2048	; 0x800
	AUDIO_SI_WriteReg(MICBST_CTRL, reg_value);
 23f785e:	2003      	movs	r0, #3
	reg_value |= (2 << BIT_VREF_VREFSEL);
 23f7860:	b289      	uxth	r1, r1
	AUDIO_SI_WriteReg(MICBST_CTRL, reg_value);
 23f7862:	f7ff ff5d 	bl	23f7720 <AUDIO_SI_WriteReg>
	if ((application & APP_LINE_OUT) == APP_LINE_OUT) {
 23f7866:	f015 0a08 	ands.w	sl, r5, #8
 23f786a:	d04a      	beq.n	23f7902 <CODEC_Init+0x19a>
		reg_value = AUDIO_SI_ReadReg(DAC_ADC_MIC_CLK_CTRL); 	//dac modulation/filter/fifo on
 23f786c:	2018      	movs	r0, #24
 23f786e:	f7ff ff69 	bl	23f7744 <AUDIO_SI_ReadReg>
		reg_value |= (1 << BIT_DA_L_EN | 1 << BIT_DA_R_EN | 1 << BIT_MOD_L_EN | 1 << BIT_MOD_R_EN | 1 << BIT_DA_ANA_CLK_EN | 1 << BIT_DA_FIFO_EN);
 23f7872:	f040 003f 	orr.w	r0, r0, #63	; 0x3f
		AUDIO_SI_WriteReg(DAC_ADC_MIC_CLK_CTRL, reg_value);
 23f7876:	b281      	uxth	r1, r0
 23f7878:	2018      	movs	r0, #24
 23f787a:	f7ff ff51 	bl	23f7720 <AUDIO_SI_WriteReg>
		reg_value = AUDIO_SI_ReadReg(GEN_CTRL);
 23f787e:	4620      	mov	r0, r4
 23f7880:	f7ff ff60 	bl	23f7744 <AUDIO_SI_ReadReg>
		reg_value |= (1 << BIT_DAC_ADDACK_POW | 1 << BIT_DAC_CKXEN | 1 << BIT_DAC_L_POW | 1 << BIT_DAC_R_POW | 1 << BIT_DPRAMP_POW | 1 << BIT_DTSDM_CKXEN);
 23f7884:	f400 6040 	and.w	r0, r0, #3072	; 0xc00
		AUDIO_SI_WriteReg(GEN_CTRL, reg_value);
 23f7888:	f440 7146 	orr.w	r1, r0, #792	; 0x318
 23f788c:	f041 0103 	orr.w	r1, r1, #3
 23f7890:	4620      	mov	r0, r4
 23f7892:	f7ff ff45 	bl	23f7720 <AUDIO_SI_WriteReg>
		AUDIO_SI_WriteReg(HPO_CTRL, reg_value3);
 23f7896:	f240 71fc 	movw	r1, #2044	; 0x7fc
 23f789a:	2001      	movs	r0, #1
 23f789c:	f7ff ff40 	bl	23f7720 <AUDIO_SI_WriteReg>
		reg_value = AUDIO_SI_ReadReg(HPO_MIC_CTRL);
 23f78a0:	2002      	movs	r0, #2
 23f78a2:	f7ff ff4f 	bl	23f7744 <AUDIO_SI_ReadReg>
		reg_value |= (2 << BIT_HPO_ML | 2 << BIT_HPO_MR | 1 << BIT_HPO_R_POW | 1 << BIT_HPO_SEL | 1 << BIT_HPO_SER | 1 << BIT_MBIAS_POW | 1 << BIT_VREF_POW);
 23f78a6:	f400 50e0 	and.w	r0, r0, #7168	; 0x1c00
		AUDIO_SI_WriteReg(HPO_MIC_CTRL, reg_value);
 23f78aa:	f440 4101 	orr.w	r1, r0, #33024	; 0x8100
 23f78ae:	f041 01ea 	orr.w	r1, r1, #234	; 0xea
 23f78b2:	2002      	movs	r0, #2
 23f78b4:	f7ff ff34 	bl	23f7720 <AUDIO_SI_WriteReg>
		AUDIO_SI_WriteReg(CK_DEPOP_MICBIAS, reg_value3);
 23f78b8:	2110      	movs	r1, #16
 23f78ba:	200c      	movs	r0, #12
 23f78bc:	f7ff ff30 	bl	23f7720 <AUDIO_SI_WriteReg>
		AUDIO_SI_WriteReg(HPO_CTRL, reg_value3);
 23f78c0:	f649 71fc 	movw	r1, #40956	; 0x9ffc
 23f78c4:	2001      	movs	r0, #1
 23f78c6:	f7ff ff2b 	bl	23f7720 <AUDIO_SI_WriteReg>
		reg_value = AUDIO_SI_ReadReg(HPO_MIC_CTRL);
 23f78ca:	2002      	movs	r0, #2
 23f78cc:	f7ff ff3a 	bl	23f7744 <AUDIO_SI_ReadReg>
		reg_value |= (2 << BIT_HPO_ML | 2 << BIT_HPO_MR | 1 << BIT_HPO_OPPDPR | 1 << BIT_HPO_R_POW | 1 << BIT_HPO_SEL | 1 << BIT_HPO_SER | 1 << BIT_MBIAS_POW | 1 <<
 23f78d0:	f400 50e0 	and.w	r0, r0, #7168	; 0x1c00
		AUDIO_SI_WriteReg(HPO_MIC_CTRL, reg_value);
 23f78d4:	f440 4101 	orr.w	r1, r0, #33024	; 0x8100
 23f78d8:	f041 01fa 	orr.w	r1, r1, #250	; 0xfa
 23f78dc:	2002      	movs	r0, #2
 23f78de:	f7ff ff1f 	bl	23f7720 <AUDIO_SI_WriteReg>
		reg_value = AUDIO_SI_ReadReg(GEN_CTRL);
 23f78e2:	4620      	mov	r0, r4
 23f78e4:	f7ff ff2e 	bl	23f7744 <AUDIO_SI_ReadReg>
		reg_value |= (1 << BIT_DAC_ADDACK_POW | 1 << BIT_DAC_CKXEN | 1 << BIT_DAC_L_POW | 1 << BIT_DAC_R_POW | 1 << BIT_DPRAMP_ENRAMP | 1 << BIT_DPRAMP_POW | 1 <<
 23f78e8:	f400 6040 	and.w	r0, r0, #3072	; 0xc00
		AUDIO_SI_WriteReg(GEN_CTRL, reg_value);
 23f78ec:	f440 7166 	orr.w	r1, r0, #920	; 0x398
 23f78f0:	f041 0103 	orr.w	r1, r1, #3
 23f78f4:	4620      	mov	r0, r4
 23f78f6:	f7ff ff13 	bl	23f7720 <AUDIO_SI_WriteReg>
		AUDIO_SI_WriteReg(CK_DEPOP_MICBIAS, reg_value3);
 23f78fa:	2118      	movs	r1, #24
 23f78fc:	200c      	movs	r0, #12
 23f78fe:	f7ff ff0f 	bl	23f7720 <AUDIO_SI_WriteReg>
	if (((application & APP_AMIC_IN) == APP_AMIC_IN) || ((application & APP_LINE_IN) == APP_LINE_IN)) {
 23f7902:	f015 0405 	ands.w	r4, r5, #5
 23f7906:	d02f      	beq.n	23f7968 <CODEC_Init+0x200>
		reg_value = AUDIO_SI_ReadReg(HPO_MIC_CTRL);		//vref power on
 23f7908:	2002      	movs	r0, #2
 23f790a:	f7ff ff1b 	bl	23f7744 <AUDIO_SI_ReadReg>
		reg_value |= (1 << BIT_MBIAS_POW | 1 << BIT_VREF_POW);
 23f790e:	f420 41c0 	bic.w	r1, r0, #24576	; 0x6000
 23f7912:	f441 4101 	orr.w	r1, r1, #33024	; 0x8100
		AUDIO_SI_WriteReg(HPO_MIC_CTRL, reg_value);
 23f7916:	2002      	movs	r0, #2
		reg_value |= (1 << BIT_MBIAS_POW | 1 << BIT_VREF_POW);
 23f7918:	b289      	uxth	r1, r1
		AUDIO_SI_WriteReg(HPO_MIC_CTRL, reg_value);
 23f791a:	f7ff ff01 	bl	23f7720 <AUDIO_SI_WriteReg>
		DelayUs(5);
 23f791e:	2005      	movs	r0, #5
 23f7920:	f005 f8fa 	bl	23fcb18 <__DelayUs_veneer>
		if ((application & APP_AMIC_IN) == APP_AMIC_IN) {
 23f7924:	07ea      	lsls	r2, r5, #31
 23f7926:	d57f      	bpl.n	23f7a28 <CODEC_Init+0x2c0>
			reg_value = AUDIO_SI_ReadReg(CK_DEPOP_MICBIAS);		//micbias chopper clock enable
 23f7928:	200c      	movs	r0, #12
 23f792a:	f7ff ff0b 	bl	23f7744 <AUDIO_SI_ReadReg>
			reg_value |= (1 << BIT_CKX_MICBIAS_EN);
 23f792e:	f040 0010 	orr.w	r0, r0, #16
			AUDIO_SI_WriteReg(CK_DEPOP_MICBIAS, reg_value);
 23f7932:	b281      	uxth	r1, r0
 23f7934:	200c      	movs	r0, #12
 23f7936:	f7ff fef3 	bl	23f7720 <AUDIO_SI_WriteReg>
			reg_value = AUDIO_SI_ReadReg(HPO_MIC_CTRL);		//release micbias chopper clock gate and mic_bias on
 23f793a:	2002      	movs	r0, #2
 23f793c:	f7ff ff02 	bl	23f7744 <AUDIO_SI_ReadReg>
			reg_value |= (1 << BIT_MICBIAS_ENCHX | 1 << BIT_MICBIAS_POW);
 23f7940:	f440 60c0 	orr.w	r0, r0, #1536	; 0x600
			AUDIO_SI_WriteReg(HPO_MIC_CTRL, reg_value);
 23f7944:	b281      	uxth	r1, r0
 23f7946:	2002      	movs	r0, #2
 23f7948:	f7ff feea 	bl	23f7720 <AUDIO_SI_WriteReg>
			DelayUs(100);
 23f794c:	2064      	movs	r0, #100	; 0x64
 23f794e:	f005 f8e3 	bl	23fcb18 <__DelayUs_veneer>
			reg_value = AUDIO_SI_ReadReg(MICBST_CTRL);		//PGA on and unmute mic
 23f7952:	2003      	movs	r0, #3
 23f7954:	f7ff fef6 	bl	23f7744 <AUDIO_SI_ReadReg>
			reg_value |= (2 << BIT_MICBST_MUTE_L | 2 << BIT_MICBST_MUTE_R | 3 << BIT_MICBST_POW);
 23f7958:	f020 01f0 	bic.w	r1, r0, #240	; 0xf0
 23f795c:	f441 7168 	orr.w	r1, r1, #928	; 0x3a0
 23f7960:	b289      	uxth	r1, r1
			AUDIO_SI_WriteReg(MICBST_CTRL, reg_value);
 23f7962:	2003      	movs	r0, #3
 23f7964:	f7ff fedc 	bl	23f7720 <AUDIO_SI_WriteReg>
	if (((application & APP_AMIC_IN) == APP_AMIC_IN) || ((application & APP_LINE_IN) == APP_LINE_IN) || ((application & APP_LINE_OUT) == APP_LINE_OUT)) {
 23f7968:	f015 0f0d 	tst.w	r5, #13
 23f796c:	d002      	beq.n	23f7974 <CODEC_Init+0x20c>
		DelayMs(200);
 23f796e:	20c8      	movs	r0, #200	; 0xc8
 23f7970:	f005 f8c2 	bl	23fcaf8 <__DelayMs_veneer>
	if ((application & APP_LINE_OUT) == APP_LINE_OUT) {
 23f7974:	f1ba 0f00 	cmp.w	sl, #0
 23f7978:	d020      	beq.n	23f79bc <CODEC_Init+0x254>
		reg_value = AUDIO_SI_ReadReg(GEN_CTRL);
 23f797a:	2000      	movs	r0, #0
 23f797c:	f7ff fee2 	bl	23f7744 <AUDIO_SI_ReadReg>
		reg_value |= (1 << BIT_DAC_ADDACK_POW | 1 << BIT_DAC_CKXEN | 1 << BIT_DAC_L_POW | 1 << BIT_DAC_R_POW | 1 << BIT_DTSDM_CKXEN);
 23f7980:	f400 6040 	and.w	r0, r0, #3072	; 0xc00
		AUDIO_SI_WriteReg(GEN_CTRL, reg_value);
 23f7984:	f440 7106 	orr.w	r1, r0, #536	; 0x218
 23f7988:	f041 0103 	orr.w	r1, r1, #3
 23f798c:	2000      	movs	r0, #0
 23f798e:	f7ff fec7 	bl	23f7720 <AUDIO_SI_WriteReg>
		AUDIO_SI_WriteReg(HPO_CTRL, reg_value3);
 23f7992:	f240 41fc 	movw	r1, #1276	; 0x4fc
 23f7996:	2001      	movs	r0, #1
 23f7998:	f7ff fec2 	bl	23f7720 <AUDIO_SI_WriteReg>
		reg_value = AUDIO_SI_ReadReg(HPO_MIC_CTRL);
 23f799c:	2002      	movs	r0, #2
 23f799e:	f7ff fed1 	bl	23f7744 <AUDIO_SI_ReadReg>
		reg_value |= (2 << BIT_HPO_ML | 2 << BIT_HPO_MR | 2 << BIT_HPO_OPPDPR | 1 << BIT_HPO_SEL | 1 << BIT_HPO_SER | 1 << BIT_MBIAS_POW | 1 << BIT_VREF_POW);
 23f79a2:	f400 50e0 	and.w	r0, r0, #7168	; 0x1c00
		AUDIO_SI_WriteReg(HPO_MIC_CTRL, reg_value);
 23f79a6:	f440 4101 	orr.w	r1, r0, #33024	; 0x8100
 23f79aa:	f041 01ea 	orr.w	r1, r1, #234	; 0xea
 23f79ae:	2002      	movs	r0, #2
 23f79b0:	f7ff feb6 	bl	23f7720 <AUDIO_SI_WriteReg>
		AUDIO_SI_WriteReg(CK_DEPOP_MICBIAS, reg_value3);
 23f79b4:	2110      	movs	r1, #16
 23f79b6:	200c      	movs	r0, #12
 23f79b8:	f7ff feb2 	bl	23f7720 <AUDIO_SI_WriteReg>
	if (((application & APP_AMIC_IN) == APP_AMIC_IN) || ((application & APP_LINE_IN) == APP_LINE_IN)) {
 23f79bc:	b16c      	cbz	r4, 23f79da <CODEC_Init+0x272>
		reg_value = AUDIO_SI_ReadReg(GEN_CTRL);		//adc on
 23f79be:	2000      	movs	r0, #0
 23f79c0:	f7ff fec0 	bl	23f7744 <AUDIO_SI_ReadReg>
		reg_value |= (1 << BIT_DAC_ADDACK_POW | 1 << BIT_DTSDM_CKXEN | 1 << BIT_DTSDM_POW_L | 1 << BIT_DTSDM_POW_R);
 23f79c4:	f440 6060 	orr.w	r0, r0, #3584	; 0xe00
 23f79c8:	f040 0001 	orr.w	r0, r0, #1
		AUDIO_SI_WriteReg(GEN_CTRL, reg_value);
 23f79cc:	b281      	uxth	r1, r0
 23f79ce:	2000      	movs	r0, #0
 23f79d0:	f7ff fea6 	bl	23f7720 <AUDIO_SI_WriteReg>
		DelayUs(50);
 23f79d4:	2032      	movs	r0, #50	; 0x32
 23f79d6:	f005 f89f 	bl	23fcb18 <__DelayUs_veneer>
	AUDIO_SI_WriteReg(DAC_ADC_MIC_CLK_CTRL, reg_value3);
 23f79da:	f641 71bf 	movw	r1, #8127	; 0x1fbf
 23f79de:	2018      	movs	r0, #24
 23f79e0:	f7ff fe9e 	bl	23f7720 <AUDIO_SI_WriteReg>
	AUDIO_SI_WriteReg(ADC_DMIC_L_FILTER_CTRL, reg_value3);
 23f79e4:	f246 3120 	movw	r1, #25376	; 0x6320
 23f79e8:	2011      	movs	r0, #17
 23f79ea:	f7ff fe99 	bl	23f7720 <AUDIO_SI_WriteReg>
	AUDIO_SI_WriteReg(ADC_DMIC_R_FILTER_CTRL, reg_value3);
 23f79ee:	f246 3120 	movw	r1, #25376	; 0x6320
 23f79f2:	2014      	movs	r0, #20
 23f79f4:	f7ff fe94 	bl	23f7720 <AUDIO_SI_WriteReg>
	if (((application & APP_AMIC_IN) == APP_AMIC_IN) || ((application & APP_LINE_IN) == APP_LINE_IN)) {
 23f79f8:	b364      	cbz	r4, 23f7a54 <CODEC_Init+0x2ec>
		reg_value = AUDIO_SI_ReadReg(ADC_L_CTRL);
 23f79fa:	2012      	movs	r0, #18
 23f79fc:	f7ff fea2 	bl	23f7744 <AUDIO_SI_ReadReg>
 23f7a00:	4604      	mov	r4, r0
		reg_value2 = AUDIO_SI_ReadReg(ADC_R_ADJ_D);
 23f7a02:	2015      	movs	r0, #21
 23f7a04:	f7ff fe9e 	bl	23f7744 <AUDIO_SI_ReadReg>
		reg_value &= (0xffff & (~(7 << BIT_ADC_L_ADJ_HPF_COEF_SEL | 3 << BIT_ADC_L_AD_ZDET_FUNC)));
 23f7a08:	f424 64c7 	bic.w	r4, r4, #1592	; 0x638
 23f7a0c:	f420 6ac7 	bic.w	sl, r0, #1592	; 0x638
 23f7a10:	b2a4      	uxth	r4, r4
		reg_value2 &= (0xffff & (~(7 << BIT_ADC_R_ADJ_HPF_COEF_SEL | 3 << BIT_ADC_R_AD_ZDET_FUNC)));
 23f7a12:	fa1f fa8a 	uxth.w	sl, sl
		switch (sample_rate) {
 23f7a16:	2e09      	cmp	r6, #9
 23f7a18:	d80e      	bhi.n	23f7a38 <CODEC_Init+0x2d0>
 23f7a1a:	e8df f006 	tbb	[pc, r6]
 23f7a1e:	c0bb      	.short	0xc0bb
 23f7a20:	0d0db60d 	.word	0x0d0db60d
 23f7a24:	c0bb0d0d 	.word	0xc0bb0d0d
			reg_value = AUDIO_SI_ReadReg(MICBST_CTRL);		//PGA on and unmute line-in
 23f7a28:	2003      	movs	r0, #3
 23f7a2a:	f7ff fe8b 	bl	23f7744 <AUDIO_SI_ReadReg>
			reg_value |= (1 << BIT_MICBST_MUTE_L | 1 << BIT_MICBST_MUTE_R | 3 << BIT_MICBST_POW);
 23f7a2e:	f400 407f 	and.w	r0, r0, #65280	; 0xff00
			AUDIO_SI_WriteReg(MICBST_CTRL, reg_value);
 23f7a32:	f440 7154 	orr.w	r1, r0, #848	; 0x350
 23f7a36:	e794      	b.n	23f7962 <CODEC_Init+0x1fa>
		reg_value |= (1 << BIT_ADC_L_ADJ_HPF_2ND_EN);
 23f7a38:	f044 0104 	orr.w	r1, r4, #4
		reg_value2 |= (1 << BIT_ADC_R_ADJ_HPF_2ND_EN);
 23f7a3c:	f04a 0a04 	orr.w	sl, sl, #4
		AUDIO_SI_WriteReg(ADC_L_CTRL, reg_value);
 23f7a40:	2012      	movs	r0, #18
 23f7a42:	f7ff fe6d 	bl	23f7720 <AUDIO_SI_WriteReg>
		AUDIO_SI_WriteReg(ADC_R_ADJ_D, reg_value2);
 23f7a46:	2015      	movs	r0, #21
 23f7a48:	4651      	mov	r1, sl
 23f7a4a:	f7ff fe69 	bl	23f7720 <AUDIO_SI_WriteReg>
		DelayMs(50);		//maybe need fine tune per board
 23f7a4e:	2032      	movs	r0, #50	; 0x32
 23f7a50:	f005 f852 	bl	23fcaf8 <__DelayMs_veneer>
	AUDIO_SI_WriteReg(ASRC_CTRL, reg_value3);
 23f7a54:	2117      	movs	r1, #23
 23f7a56:	201b      	movs	r0, #27
 23f7a58:	f7ff fe62 	bl	23f7720 <AUDIO_SI_WriteReg>
	AUDIO_SI_WriteReg(DAC_ADC_SR_CTRL, (sample_rate << 4) | sample_rate);
 23f7a5c:	4649      	mov	r1, r9
 23f7a5e:	2017      	movs	r0, #23
 23f7a60:	f7ff fe5e 	bl	23f7720 <AUDIO_SI_WriteReg>
	reg_value = AUDIO_SI_ReadReg(DAC_L_MUTE_CTRL);
 23f7a64:	20fb      	movs	r0, #251	; 0xfb
 23f7a66:	f7ff fe6d 	bl	23f7744 <AUDIO_SI_ReadReg>
	AUDIO_SI_WriteReg(DAC_L_MUTE_CTRL, reg_value & 0xfff9);
 23f7a6a:	f020 0106 	bic.w	r1, r0, #6
 23f7a6e:	f041 0108 	orr.w	r1, r1, #8
 23f7a72:	b289      	uxth	r1, r1
 23f7a74:	20fb      	movs	r0, #251	; 0xfb
 23f7a76:	f7ff fe53 	bl	23f7720 <AUDIO_SI_WriteReg>
	reg_value = AUDIO_SI_ReadReg(DAC_R_MUTE_CTRL);
 23f7a7a:	20fd      	movs	r0, #253	; 0xfd
 23f7a7c:	f7ff fe62 	bl	23f7744 <AUDIO_SI_ReadReg>
	AUDIO_SI_WriteReg(DAC_R_MUTE_CTRL, reg_value & 0xfff9);
 23f7a80:	f020 0106 	bic.w	r1, r0, #6
 23f7a84:	f041 0108 	orr.w	r1, r1, #8
 23f7a88:	b289      	uxth	r1, r1
 23f7a8a:	20fd      	movs	r0, #253	; 0xfd
 23f7a8c:	f7ff fe48 	bl	23f7720 <AUDIO_SI_WriteReg>
	reg_value = AUDIO_SI_ReadReg(ALC_MIN_GAIN);
 23f7a90:	2027      	movs	r0, #39	; 0x27
 23f7a92:	f7ff fe57 	bl	23f7744 <AUDIO_SI_ReadReg>
	reg_value &= (0xffff & (~(1 << BIT_DA_STEREO_MODE_EN)));
 23f7a96:	f420 7080 	bic.w	r0, r0, #256	; 0x100
 23f7a9a:	b281      	uxth	r1, r0
	if (mono_stereo == CH_STEREO) {
 23f7a9c:	b90f      	cbnz	r7, 23f7aa2 <CODEC_Init+0x33a>
		reg_value |= BIT8;
 23f7a9e:	f441 7180 	orr.w	r1, r1, #256	; 0x100
	AUDIO_SI_WriteReg(ALC_MIN_GAIN, reg_value);
 23f7aa2:	2027      	movs	r0, #39	; 0x27
 23f7aa4:	f7ff fe3c 	bl	23f7720 <AUDIO_SI_WriteReg>
	reg_value = AUDIO_SI_ReadReg(DAC_L_CTRL);
 23f7aa8:	20fa      	movs	r0, #250	; 0xfa
 23f7aaa:	f7ff fe4b 	bl	23f7744 <AUDIO_SI_ReadReg>
	reg_value |= (2 << BIT_DAC_L_DA_ZDET_FUNC);
 23f7aae:	f420 7000 	bic.w	r0, r0, #512	; 0x200
 23f7ab2:	0540      	lsls	r0, r0, #21
 23f7ab4:	0d40      	lsrs	r0, r0, #21
 23f7ab6:	f440 5180 	orr.w	r1, r0, #4096	; 0x1000
	AUDIO_SI_WriteReg(DAC_L_CTRL, reg_value);
 23f7aba:	20fa      	movs	r0, #250	; 0xfa
 23f7abc:	9101      	str	r1, [sp, #4]
 23f7abe:	f7ff fe2f 	bl	23f7720 <AUDIO_SI_WriteReg>
	AUDIO_SI_WriteReg(DAC_R_CTRL, reg_value);
 23f7ac2:	20fc      	movs	r0, #252	; 0xfc
 23f7ac4:	9901      	ldr	r1, [sp, #4]
 23f7ac6:	f7ff fe2b 	bl	23f7720 <AUDIO_SI_WriteReg>
	if ((application & APP_DMIC_IN) == APP_DMIC_IN) {
 23f7aca:	07ab      	lsls	r3, r5, #30
 23f7acc:	d540      	bpl.n	23f7b50 <CODEC_Init+0x3e8>
		reg_value = AUDIO_SI_ReadReg(ADC_DMIC_L_FILTER_CTRL);
 23f7ace:	2011      	movs	r0, #17
 23f7ad0:	f7ff fe38 	bl	23f7744 <AUDIO_SI_ReadReg>
		reg_value |= (1 << BIT_ADC_L_DMIC_RI_FA_SEL | 1 << BIT_ADC_L_DMIC_LPF2ND_EN | 1 << BIT_ADC_L_DMIC_LPF1ST_EN | 1 << BIT_ADC_L_AD_MIX_MUTE | 1 <<
 23f7ad4:	4c34      	ldr	r4, [pc, #208]	; (23f7ba8 <CODEC_Init+0x440>)
 23f7ad6:	4020      	ands	r0, r4
 23f7ad8:	f440 41a0 	orr.w	r1, r0, #20480	; 0x5000
 23f7adc:	f041 0119 	orr.w	r1, r1, #25
 23f7ae0:	b289      	uxth	r1, r1
		AUDIO_SI_WriteReg(ADC_DMIC_L_FILTER_CTRL, reg_value);
 23f7ae2:	2011      	movs	r0, #17
 23f7ae4:	f7ff fe1c 	bl	23f7720 <AUDIO_SI_WriteReg>
		reg_value = AUDIO_SI_ReadReg(ADC_L_CTRL);
 23f7ae8:	2012      	movs	r0, #18
 23f7aea:	f7ff fe2b 	bl	23f7744 <AUDIO_SI_ReadReg>
		reg_value |= (1 << BIT_ADC_L_ADJ_HPF_2ND_EN);
 23f7aee:	f040 0004 	orr.w	r0, r0, #4
		AUDIO_SI_WriteReg(ADC_L_CTRL, reg_value);
 23f7af2:	b281      	uxth	r1, r0
 23f7af4:	2012      	movs	r0, #18
 23f7af6:	f7ff fe13 	bl	23f7720 <AUDIO_SI_WriteReg>
		reg_value = AUDIO_SI_ReadReg(ADC_DMIC_R_FILTER_CTRL);
 23f7afa:	2014      	movs	r0, #20
 23f7afc:	f7ff fe22 	bl	23f7744 <AUDIO_SI_ReadReg>
		reg_value |= (1 << BIT_ADC_L_DMIC_LPF2ND_EN | 1 << BIT_ADC_L_DMIC_LPF1ST_EN | 1 << BIT_ADC_L_AD_MIX_MUTE | 1 << BIT_ADC_L_AD_DCHPF_EN);
 23f7b00:	4020      	ands	r0, r4
 23f7b02:	f440 41a0 	orr.w	r1, r0, #20480	; 0x5000
 23f7b06:	f041 0118 	orr.w	r1, r1, #24
 23f7b0a:	b289      	uxth	r1, r1
		AUDIO_SI_WriteReg(ADC_DMIC_R_FILTER_CTRL, reg_value);	//bit0: 0 means latching rising edge, whereas 1 means falling edge.
 23f7b0c:	2014      	movs	r0, #20
 23f7b0e:	f7ff fe07 	bl	23f7720 <AUDIO_SI_WriteReg>
		reg_value = AUDIO_SI_ReadReg(ADC_R_ADJ_D);
 23f7b12:	2015      	movs	r0, #21
 23f7b14:	f7ff fe16 	bl	23f7744 <AUDIO_SI_ReadReg>
		reg_value |= (1 << BIT_ADC_R_ADJ_HPF_2ND_EN);
 23f7b18:	f040 0004 	orr.w	r0, r0, #4
		AUDIO_SI_WriteReg(ADC_R_ADJ_D, reg_value);
 23f7b1c:	b281      	uxth	r1, r0
 23f7b1e:	2015      	movs	r0, #21
 23f7b20:	f7ff fdfe 	bl	23f7720 <AUDIO_SI_WriteReg>
		reg_value = AUDIO_SI_ReadReg(DAC_ADC_SR_CTRL);
 23f7b24:	2017      	movs	r0, #23
 23f7b26:	f7ff fe0d 	bl	23f7744 <AUDIO_SI_ReadReg>
		reg_value |= (1 << BIT_DMIC_CLK_SEL);
 23f7b2a:	f420 61e0 	bic.w	r1, r0, #1792	; 0x700
 23f7b2e:	f441 7180 	orr.w	r1, r1, #256	; 0x100
 23f7b32:	b289      	uxth	r1, r1
		AUDIO_SI_WriteReg(DAC_ADC_SR_CTRL, reg_value);
 23f7b34:	2017      	movs	r0, #23
 23f7b36:	f7ff fdf3 	bl	23f7720 <AUDIO_SI_WriteReg>
		reg_value = AUDIO_SI_ReadReg(DAC_ADC_MIC_CLK_CTRL);
 23f7b3a:	2018      	movs	r0, #24
 23f7b3c:	f7ff fe02 	bl	23f7744 <AUDIO_SI_ReadReg>
		reg_value |= (1 << BIT_DMIC_L_EN | 1 << BIT_DMIC_R_EN | 1 << BIT_DMIC_CLK_EN);
 23f7b40:	ea6f 40c0 	mvn.w	r0, r0, lsl #19
 23f7b44:	ea6f 40d0 	mvn.w	r0, r0, lsr #19
		AUDIO_SI_WriteReg(DAC_ADC_MIC_CLK_CTRL, reg_value);
 23f7b48:	b281      	uxth	r1, r0
 23f7b4a:	2018      	movs	r0, #24
 23f7b4c:	f7ff fde8 	bl	23f7720 <AUDIO_SI_WriteReg>
	if ((sample_rate == SR_96K) || (sample_rate == SR_88P2K)) {
 23f7b50:	f026 0608 	bic.w	r6, r6, #8
 23f7b54:	2e01      	cmp	r6, #1
 23f7b56:	d113      	bne.n	23f7b80 <CODEC_Init+0x418>
		reg_value = AUDIO_SI_ReadReg(DAC_ADC_SR_CTRL);
 23f7b58:	2017      	movs	r0, #23
 23f7b5a:	f7ff fdf3 	bl	23f7744 <AUDIO_SI_ReadReg>
		reg_value |= (1 << BIT_ASRC_FSI_RATE_MANUAL);
 23f7b5e:	f420 41f0 	bic.w	r1, r0, #30720	; 0x7800
 23f7b62:	f441 6100 	orr.w	r1, r1, #2048	; 0x800
 23f7b66:	b289      	uxth	r1, r1
		AUDIO_SI_WriteReg(DAC_ADC_SR_CTRL, reg_value);
 23f7b68:	2017      	movs	r0, #23
 23f7b6a:	f7ff fdd9 	bl	23f7720 <AUDIO_SI_WriteReg>
		reg_value = AUDIO_SI_ReadReg(ASRC_CTRL);
 23f7b6e:	201b      	movs	r0, #27
 23f7b70:	f7ff fde8 	bl	23f7744 <AUDIO_SI_ReadReg>
		reg_value &= (0xffff & (~(3 << BIT_ASRC_256FS_SYS_SEL)));
 23f7b74:	f020 000c 	bic.w	r0, r0, #12
 23f7b78:	b281      	uxth	r1, r0
		AUDIO_SI_WriteReg(ASRC_CTRL, reg_value);
 23f7b7a:	201b      	movs	r0, #27
 23f7b7c:	f7ff fdd0 	bl	23f7720 <AUDIO_SI_WriteReg>
	reg_value = ((word_len << 4) | mono_stereo | 0x0080);
 23f7b80:	ea47 1108 	orr.w	r1, r7, r8, lsl #4
	AUDIO_SI_WriteReg(I2S_CTRL, reg_value);
 23f7b84:	f041 0180 	orr.w	r1, r1, #128	; 0x80
 23f7b88:	e65c      	b.n	23f7844 <CODEC_Init+0xdc>
			reg_value |= (1 << BIT_ADC_L_ADJ_HPF_COEF_SEL);
 23f7b8a:	f044 010c 	orr.w	r1, r4, #12
			reg_value2 |= (1 << BIT_ADC_R_ADJ_HPF_COEF_SEL);
 23f7b8e:	f04a 0a0c 	orr.w	sl, sl, #12
			break;
 23f7b92:	e755      	b.n	23f7a40 <CODEC_Init+0x2d8>
			reg_value |= (2 << BIT_ADC_L_ADJ_HPF_COEF_SEL);
 23f7b94:	f044 0114 	orr.w	r1, r4, #20
			reg_value2 |= (2 << BIT_ADC_R_ADJ_HPF_COEF_SEL);
 23f7b98:	f04a 0a14 	orr.w	sl, sl, #20
			break;
 23f7b9c:	e750      	b.n	23f7a40 <CODEC_Init+0x2d8>
			reg_value |= (3 << BIT_ADC_L_ADJ_HPF_COEF_SEL);
 23f7b9e:	f044 011c 	orr.w	r1, r4, #28
			reg_value2 |= (3 << BIT_ADC_R_ADJ_HPF_COEF_SEL);
 23f7ba2:	f04a 0a1c 	orr.w	sl, sl, #28
			break;
 23f7ba6:	e74b      	b.n	23f7a40 <CODEC_Init+0x2d8>
 23f7ba8:	ffffdffe 	.word	0xffffdffe

023f7bac <_Z28eml_neighbors_sort_distancesP25_EmlNeighborsDistanceItemj.part.0>:
    int16_t index;
    uint32_t distance;
} EmlNeighborsDistanceItem;

EmlError
eml_neighbors_sort_distances(EmlNeighborsDistanceItem *distances, size_t length)
 23f7bac:	e92d 4ff0 	stmdb	sp!, {r4, r5, r6, r7, r8, r9, sl, fp, lr}
    EmlNeighborsDistanceItem tmp;

#define EML_LESS(i, j) A[i].distance < A[j].distance
#define EML_SWAP(i, j) tmp = A[i], A[i] = A[j], A[j] = tmp

    QSORT(length, EML_LESS, EML_SWAP);
 23f7bb0:	2400      	movs	r4, #0
eml_neighbors_sort_distances(EmlNeighborsDistanceItem *distances, size_t length)
 23f7bb2:	4603      	mov	r3, r0
    QSORT(length, EML_LESS, EML_SWAP);
 23f7bb4:	46a4      	mov	ip, r4
eml_neighbors_sort_distances(EmlNeighborsDistanceItem *distances, size_t length)
 23f7bb6:	b0c3      	sub	sp, #268	; 0x10c
    QSORT(length, EML_LESS, EML_SWAP);
 23f7bb8:	1d02      	adds	r2, r0, #4
 23f7bba:	1e4e      	subs	r6, r1, #1
 23f7bbc:	9200      	str	r2, [sp, #0]
 23f7bbe:	eba6 0e0c 	sub.w	lr, r6, ip
 23f7bc2:	f10e 0201 	add.w	r2, lr, #1
 23f7bc6:	2a0f      	cmp	r2, #15
 23f7bc8:	f10c 0501 	add.w	r5, ip, #1
 23f7bcc:	f240 80a8 	bls.w	23f7d20 <_Z28eml_neighbors_sort_distancesP25_EmlNeighborsDistanceItemj.part.0+0x174>
 23f7bd0:	eb0c 0e5e 	add.w	lr, ip, lr, lsr #1
 23f7bd4:	eb03 02ce 	add.w	r2, r3, lr, lsl #3
 23f7bd8:	eb03 08c5 	add.w	r8, r3, r5, lsl #3
 23f7bdc:	f8d2 a004 	ldr.w	sl, [r2, #4]
 23f7be0:	f8d8 9004 	ldr.w	r9, [r8, #4]
 23f7be4:	00f1      	lsls	r1, r6, #3
 23f7be6:	eb03 07c6 	add.w	r7, r3, r6, lsl #3
 23f7bea:	45ca      	cmp	sl, r9
 23f7bec:	9101      	str	r1, [sp, #4]
 23f7bee:	6879      	ldr	r1, [r7, #4]
 23f7bf0:	d251      	bcs.n	23f7c96 <_Z28eml_neighbors_sort_distancesP25_EmlNeighborsDistanceItemj.part.0+0xea>
 23f7bf2:	458a      	cmp	sl, r1
 23f7bf4:	f933 b035 	ldrsh.w	fp, [r3, r5, lsl #3]
 23f7bf8:	d93d      	bls.n	23f7c76 <_Z28eml_neighbors_sort_distancesP25_EmlNeighborsDistanceItemj.part.0+0xca>
 23f7bfa:	e897 0003 	ldmia.w	r7, {r0, r1}
 23f7bfe:	e888 0003 	stmia.w	r8, {r0, r1}
 23f7c02:	00f1      	lsls	r1, r6, #3
 23f7c04:	f823 b001 	strh.w	fp, [r3, r1]
 23f7c08:	f8c7 9004 	str.w	r9, [r7, #4]
 23f7c0c:	00e9      	lsls	r1, r5, #3
 23f7c0e:	f1a1 0908 	sub.w	r9, r1, #8
 23f7c12:	f933 a009 	ldrsh.w	sl, [r3, r9]
 23f7c16:	eb03 0809 	add.w	r8, r3, r9
 23f7c1a:	f8d8 7004 	ldr.w	r7, [r8, #4]
 23f7c1e:	e892 0003 	ldmia.w	r2, {r0, r1}
 23f7c22:	e888 0003 	stmia.w	r8, {r0, r1}
 23f7c26:	f823 a03e 	strh.w	sl, [r3, lr, lsl #3]
 23f7c2a:	46b6      	mov	lr, r6
 23f7c2c:	6057      	str	r7, [r2, #4]
 23f7c2e:	9a00      	ldr	r2, [sp, #0]
 23f7c30:	3501      	adds	r5, #1
 23f7c32:	f852 a035 	ldr.w	sl, [r2, r5, lsl #3]
 23f7c36:	f8d8 b004 	ldr.w	fp, [r8, #4]
 23f7c3a:	45da      	cmp	sl, fp
 23f7c3c:	d3f7      	bcc.n	23f7c2e <_Z28eml_neighbors_sort_distancesP25_EmlNeighborsDistanceItemj.part.0+0x82>
 23f7c3e:	f10e 31ff 	add.w	r1, lr, #4294967295
 23f7c42:	eb03 01c1 	add.w	r1, r3, r1, lsl #3
 23f7c46:	460f      	mov	r7, r1
 23f7c48:	6848      	ldr	r0, [r1, #4]
 23f7c4a:	4672      	mov	r2, lr
 23f7c4c:	4583      	cmp	fp, r0
 23f7c4e:	f1a1 0108 	sub.w	r1, r1, #8
 23f7c52:	f10e 3eff 	add.w	lr, lr, #4294967295
 23f7c56:	d3f6      	bcc.n	23f7c46 <_Z28eml_neighbors_sort_distancesP25_EmlNeighborsDistanceItemj.part.0+0x9a>
 23f7c58:	4575      	cmp	r5, lr
 23f7c5a:	d239      	bcs.n	23f7cd0 <_Z28eml_neighbors_sort_distancesP25_EmlNeighborsDistanceItemj.part.0+0x124>
 23f7c5c:	e897 0003 	ldmia.w	r7, {r0, r1}
 23f7c60:	f933 b035 	ldrsh.w	fp, [r3, r5, lsl #3]
 23f7c64:	eb03 02c5 	add.w	r2, r3, r5, lsl #3
 23f7c68:	e882 0003 	stmia.w	r2, {r0, r1}
 23f7c6c:	f8a7 b000 	strh.w	fp, [r7]
 23f7c70:	f8c7 a004 	str.w	sl, [r7, #4]
 23f7c74:	e7db      	b.n	23f7c2e <_Z28eml_neighbors_sort_distancesP25_EmlNeighborsDistanceItemj.part.0+0x82>
 23f7c76:	e892 0003 	ldmia.w	r2, {r0, r1}
 23f7c7a:	e888 0003 	stmia.w	r8, {r0, r1}
 23f7c7e:	f823 b03e 	strh.w	fp, [r3, lr, lsl #3]
 23f7c82:	f8c2 9004 	str.w	r9, [r2, #4]
 23f7c86:	6879      	ldr	r1, [r7, #4]
 23f7c88:	4589      	cmp	r9, r1
 23f7c8a:	d9bf      	bls.n	23f7c0c <_Z28eml_neighbors_sort_distancesP25_EmlNeighborsDistanceItemj.part.0+0x60>
 23f7c8c:	e897 0003 	ldmia.w	r7, {r0, r1}
 23f7c90:	e882 0003 	stmia.w	r2, {r0, r1}
 23f7c94:	e7b5      	b.n	23f7c02 <_Z28eml_neighbors_sort_distancesP25_EmlNeighborsDistanceItemj.part.0+0x56>
 23f7c96:	458a      	cmp	sl, r1
 23f7c98:	d9b8      	bls.n	23f7c0c <_Z28eml_neighbors_sort_distancesP25_EmlNeighborsDistanceItemj.part.0+0x60>
 23f7c9a:	e897 0003 	ldmia.w	r7, {r0, r1}
 23f7c9e:	f933 903e 	ldrsh.w	r9, [r3, lr, lsl #3]
 23f7ca2:	e882 0003 	stmia.w	r2, {r0, r1}
 23f7ca6:	00f1      	lsls	r1, r6, #3
 23f7ca8:	f823 9001 	strh.w	r9, [r3, r1]
 23f7cac:	f8c7 a004 	str.w	sl, [r7, #4]
 23f7cb0:	f8d8 7004 	ldr.w	r7, [r8, #4]
 23f7cb4:	6851      	ldr	r1, [r2, #4]
 23f7cb6:	42b9      	cmp	r1, r7
 23f7cb8:	d2a8      	bcs.n	23f7c0c <_Z28eml_neighbors_sort_distancesP25_EmlNeighborsDistanceItemj.part.0+0x60>
 23f7cba:	00e9      	lsls	r1, r5, #3
 23f7cbc:	f933 9001 	ldrsh.w	r9, [r3, r1]
 23f7cc0:	e892 0003 	ldmia.w	r2, {r0, r1}
 23f7cc4:	e888 0003 	stmia.w	r8, {r0, r1}
 23f7cc8:	f823 903e 	strh.w	r9, [r3, lr, lsl #3]
 23f7ccc:	6057      	str	r7, [r2, #4]
 23f7cce:	e79d      	b.n	23f7c0c <_Z28eml_neighbors_sort_distancesP25_EmlNeighborsDistanceItemj.part.0+0x60>
 23f7cd0:	f933 5009 	ldrsh.w	r5, [r3, r9]
 23f7cd4:	e897 0003 	ldmia.w	r7, {r0, r1}
 23f7cd8:	e888 0003 	stmia.w	r8, {r0, r1}
 23f7cdc:	1e91      	subs	r1, r2, #2
 23f7cde:	803d      	strh	r5, [r7, #0]
 23f7ce0:	1ab0      	subs	r0, r6, r2
 23f7ce2:	eba1 050c 	sub.w	r5, r1, ip
 23f7ce6:	4285      	cmp	r5, r0
 23f7ce8:	f8c7 b004 	str.w	fp, [r7, #4]
 23f7cec:	d30c      	bcc.n	23f7d08 <_Z28eml_neighbors_sort_distancesP25_EmlNeighborsDistanceItemj.part.0+0x15c>
 23f7cee:	4296      	cmp	r6, r2
 23f7cf0:	d013      	beq.n	23f7d1a <_Z28eml_neighbors_sort_distancesP25_EmlNeighborsDistanceItemj.part.0+0x16e>
 23f7cf2:	a802      	add	r0, sp, #8
 23f7cf4:	f840 c034 	str.w	ip, [r0, r4, lsl #3]
 23f7cf8:	eb00 00c4 	add.w	r0, r0, r4, lsl #3
 23f7cfc:	6041      	str	r1, [r0, #4]
 23f7cfe:	3401      	adds	r4, #1
 23f7d00:	4631      	mov	r1, r6
 23f7d02:	460e      	mov	r6, r1
 23f7d04:	4694      	mov	ip, r2
 23f7d06:	e75a      	b.n	23f7bbe <_Z28eml_neighbors_sort_distancesP25_EmlNeighborsDistanceItemj.part.0+0x12>
 23f7d08:	458c      	cmp	ip, r1
 23f7d0a:	d0f9      	beq.n	23f7d00 <_Z28eml_neighbors_sort_distancesP25_EmlNeighborsDistanceItemj.part.0+0x154>
 23f7d0c:	a802      	add	r0, sp, #8
 23f7d0e:	f840 2034 	str.w	r2, [r0, r4, lsl #3]
 23f7d12:	eb00 02c4 	add.w	r2, r0, r4, lsl #3
 23f7d16:	6056      	str	r6, [r2, #4]
 23f7d18:	3401      	adds	r4, #1
 23f7d1a:	4662      	mov	r2, ip
 23f7d1c:	e7f1      	b.n	23f7d02 <_Z28eml_neighbors_sort_distancesP25_EmlNeighborsDistanceItemj.part.0+0x156>
 23f7d1e:	3501      	adds	r5, #1
 23f7d20:	42ae      	cmp	r6, r5
 23f7d22:	d318      	bcc.n	23f7d56 <_Z28eml_neighbors_sort_distancesP25_EmlNeighborsDistanceItemj.part.0+0x1aa>
 23f7d24:	46ae      	mov	lr, r5
 23f7d26:	eb03 02c5 	add.w	r2, r3, r5, lsl #3
 23f7d2a:	45f4      	cmp	ip, lr
 23f7d2c:	d2f7      	bcs.n	23f7d1e <_Z28eml_neighbors_sort_distancesP25_EmlNeighborsDistanceItemj.part.0+0x172>
 23f7d2e:	f8d2 8004 	ldr.w	r8, [r2, #4]
 23f7d32:	3a08      	subs	r2, #8
 23f7d34:	6851      	ldr	r1, [r2, #4]
 23f7d36:	4588      	cmp	r8, r1
 23f7d38:	d2f1      	bcs.n	23f7d1e <_Z28eml_neighbors_sort_distancesP25_EmlNeighborsDistanceItemj.part.0+0x172>
 23f7d3a:	e892 0003 	ldmia.w	r2, {r0, r1}
 23f7d3e:	4617      	mov	r7, r2
 23f7d40:	f937 9f08 	ldrsh.w	r9, [r7, #8]!
 23f7d44:	f10e 3eff 	add.w	lr, lr, #4294967295
 23f7d48:	e887 0003 	stmia.w	r7, {r0, r1}
 23f7d4c:	f8a2 9000 	strh.w	r9, [r2]
 23f7d50:	f8c2 8004 	str.w	r8, [r2, #4]
 23f7d54:	e7e9      	b.n	23f7d2a <_Z28eml_neighbors_sort_distancesP25_EmlNeighborsDistanceItemj.part.0+0x17e>
 23f7d56:	b144      	cbz	r4, 23f7d6a <_Z28eml_neighbors_sort_distancesP25_EmlNeighborsDistanceItemj.part.0+0x1be>
 23f7d58:	3c01      	subs	r4, #1
 23f7d5a:	a902      	add	r1, sp, #8
 23f7d5c:	aa02      	add	r2, sp, #8
 23f7d5e:	eb01 01c4 	add.w	r1, r1, r4, lsl #3
 23f7d62:	f852 2034 	ldr.w	r2, [r2, r4, lsl #3]
 23f7d66:	6849      	ldr	r1, [r1, #4]
 23f7d68:	e7cb      	b.n	23f7d02 <_Z28eml_neighbors_sort_distancesP25_EmlNeighborsDistanceItemj.part.0+0x156>

#undef EML_LESS
#undef EML_SWAP

    return EmlOk;
}
 23f7d6a:	b043      	add	sp, #268	; 0x10c
 23f7d6c:	e8bd 8ff0 	ldmia.w	sp!, {r4, r5, r6, r7, r8, r9, sl, fp, pc}

023f7d70 <_ZN5Print7printlnIiLi0EEEjT_i.isra.0>:

    size_t println(const char[]);
    size_t println(char);
    template <typename T, std::enable_if_t<!std::is_base_of<Printable, T>::value && (std::is_integral<T>::value || std::is_convertible<T, unsigned long long>::value ||
        std::is_convertible<T, long long>::value), int> = 0>
    size_t println(T b, int base = DEC) {
 23f7d70:	b570      	push	{r4, r5, r6, lr}
 23f7d72:	4605      	mov	r5, r0
 23f7d74:	460c      	mov	r4, r1

template <typename T, std::enable_if_t<!std::is_base_of<Printable, T>::value && (std::is_integral<T>::value || std::is_convertible<T, unsigned long long>::value ||
    std::is_convertible<T, long long>::value), int>>
size_t Print::print(T n, int base)
{
    if (base == 0) {
 23f7d76:	4616      	mov	r6, r2
 23f7d78:	b942      	cbnz	r2, 23f7d8c <_ZN5Print7printlnIiLi0EEEjT_i.isra.0+0x1c>
        return write(n);
 23f7d7a:	6803      	ldr	r3, [r0, #0]
 23f7d7c:	b2c9      	uxtb	r1, r1
 23f7d7e:	689b      	ldr	r3, [r3, #8]
 23f7d80:	4798      	blx	r3
        n += println();
 23f7d82:	4628      	mov	r0, r5
    }
 23f7d84:	e8bd 4070 	ldmia.w	sp!, {r4, r5, r6, lr}
        n += println();
 23f7d88:	f001 b951 	b.w	23f902e <_ZN5Print7printlnEv>
// FIXME: avoids 'comparison of constant '0' with boolean expression is always false'
#if __GNUC__ >= 9
#pragma GCC diagnostic push
#pragma GCC diagnostic ignored "-Wbool-compare"
#endif // __GNUC__ >= 9
        if (n < 0 && base == 10) {
 23f7d8c:	2900      	cmp	r1, #0
 23f7d8e:	da0a      	bge.n	23f7da6 <_ZN5Print7printlnIiLi0EEEjT_i.isra.0+0x36>
 23f7d90:	2a0a      	cmp	r2, #10
 23f7d92:	d108      	bne.n	23f7da6 <_ZN5Print7printlnIiLi0EEEjT_i.isra.0+0x36>
            t = print('-');
 23f7d94:	212d      	movs	r1, #45	; 0x2d
 23f7d96:	f001 f947 	bl	23f9028 <_ZN5Print5printEc>
            val = -n;
 23f7d9a:	4261      	negs	r1, r4
            val = n;
        }
#if __GNUC__ >= 9
#pragma GCC diagnostic pop
#endif // __GNUC__ >= 9
        return printNumber(val, base) + t;
 23f7d9c:	4628      	mov	r0, r5
 23f7d9e:	b2f2      	uxtb	r2, r6
 23f7da0:	f001 f95b 	bl	23f905a <_ZN5Print11printNumberEmh>
 23f7da4:	e7ed      	b.n	23f7d82 <_ZN5Print7printlnIiLi0EEEjT_i.isra.0+0x12>
            val = n;
 23f7da6:	4621      	mov	r1, r4
 23f7da8:	e7f8      	b.n	23f7d9c <_ZN5Print7printlnIiLi0EEEjT_i.isra.0+0x2c>

023f7daa <_Z9eml_isqrtl>:
{
 23f7daa:	4601      	mov	r1, r0
    int32_t q = 1, r = 0;
 23f7dac:	2301      	movs	r3, #1
    while (q <= x) {
 23f7dae:	428b      	cmp	r3, r1
 23f7db0:	dc01      	bgt.n	23f7db6 <_Z9eml_isqrtl+0xc>
        q <<= 2;
 23f7db2:	009b      	lsls	r3, r3, #2
    while (q <= x) {
 23f7db4:	e7fb      	b.n	23f7dae <_Z9eml_isqrtl+0x4>
    int32_t q = 1, r = 0;
 23f7db6:	2000      	movs	r0, #0
    while (q > 1) {
 23f7db8:	2b01      	cmp	r3, #1
 23f7dba:	dd08      	ble.n	23f7dce <_Z9eml_isqrtl+0x24>
        t = x - r - q;
 23f7dbc:	1a0a      	subs	r2, r1, r0
        q >>= 2;
 23f7dbe:	109b      	asrs	r3, r3, #2
        if (t >= 0) {
 23f7dc0:	1ad2      	subs	r2, r2, r3
 23f7dc2:	ea4f 0060 	mov.w	r0, r0, asr #1
 23f7dc6:	d4f7      	bmi.n	23f7db8 <_Z9eml_isqrtl+0xe>
            r += q;
 23f7dc8:	4611      	mov	r1, r2
 23f7dca:	4418      	add	r0, r3
 23f7dcc:	e7f4      	b.n	23f7db8 <_Z9eml_isqrtl+0xe>
}
 23f7dce:	4770      	bx	lr

023f7dd0 <_Z28eml_distance_euclidean_int16PKsS0_i>:
    for (int i=0; i<length; i++) {
 23f7dd0:	2300      	movs	r3, #0
{
 23f7dd2:	b470      	push	{r4, r5, r6}
 23f7dd4:	4605      	mov	r5, r0
    uint32_t ret = 0;
 23f7dd6:	4618      	mov	r0, r3
    for (int i=0; i<length; i++) {
 23f7dd8:	4293      	cmp	r3, r2
 23f7dda:	da08      	bge.n	23f7dee <_Z28eml_distance_euclidean_int16PKsS0_i+0x1e>
        const int32_t diff = a[i] - b[i];        
 23f7ddc:	f935 4013 	ldrsh.w	r4, [r5, r3, lsl #1]
 23f7de0:	f931 6013 	ldrsh.w	r6, [r1, r3, lsl #1]
    for (int i=0; i<length; i++) {
 23f7de4:	3301      	adds	r3, #1
        const int32_t diff = a[i] - b[i];        
 23f7de6:	1ba4      	subs	r4, r4, r6
        ret += d;
 23f7de8:	fb04 0004 	mla	r0, r4, r4, r0
    for (int i=0; i<length; i++) {
 23f7dec:	e7f4      	b.n	23f7dd8 <_Z28eml_distance_euclidean_int16PKsS0_i+0x8>
}
 23f7dee:	bc70      	pop	{r4, r5, r6}
    ret = eml_isqrt(ret); 
 23f7df0:	f7ff bfdb 	b.w	23f7daa <_Z9eml_isqrtl>

023f7df4 <_Z28eml_neighbors_sort_distancesP25_EmlNeighborsDistanceItemj>:
    QSORT(length, EML_LESS, EML_SWAP);
 23f7df4:	2901      	cmp	r1, #1
{
 23f7df6:	b508      	push	{r3, lr}
    QSORT(length, EML_LESS, EML_SWAP);
 23f7df8:	d901      	bls.n	23f7dfe <_Z28eml_neighbors_sort_distancesP25_EmlNeighborsDistanceItemj+0xa>
 23f7dfa:	f7ff fed7 	bl	23f7bac <_Z28eml_neighbors_sort_distancesP25_EmlNeighborsDistanceItemj.part.0>
}
 23f7dfe:	2000      	movs	r0, #0
 23f7e00:	bd08      	pop	{r3, pc}

023f7e02 <_Z19eml_neighbors_inferP18_EmlNeighborsModelPKsiP25_EmlNeighborsDistanceItemi>:

EmlError
eml_neighbors_infer(EmlNeighborsModel *self,
            const int16_t *features, int features_length,
            EmlNeighborsDistanceItem *distances, int distances_length)
{
 23f7e02:	e92d 41f0 	stmdb	sp!, {r4, r5, r6, r7, r8, lr}
 23f7e06:	460f      	mov	r7, r1
 23f7e08:	4690      	mov	r8, r2
    EML_PRECONDITION(distances_length >= self->n_items, EmlSizeMismatch);
 23f7e0a:	f9b0 1002 	ldrsh.w	r1, [r0, #2]
 23f7e0e:	9a06      	ldr	r2, [sp, #24]
{
 23f7e10:	4606      	mov	r6, r0
    EML_PRECONDITION(distances_length >= self->n_items, EmlSizeMismatch);
 23f7e12:	4291      	cmp	r1, r2
 23f7e14:	dc18      	bgt.n	23f7e48 <_Z19eml_neighbors_inferP18_EmlNeighborsModelPKsiP25_EmlNeighborsDistanceItemi+0x46>
    EML_PRECONDITION(features_length == self->n_features, EmlSizeMismatch);
 23f7e16:	8802      	ldrh	r2, [r0, #0]
 23f7e18:	4542      	cmp	r2, r8
 23f7e1a:	d115      	bne.n	23f7e48 <_Z19eml_neighbors_inferP18_EmlNeighborsModelPKsiP25_EmlNeighborsDistanceItemi+0x46>
 23f7e1c:	461c      	mov	r4, r3

    // compute distances to all items
    for (int i=0; i<self->n_items; i++) {
 23f7e1e:	2500      	movs	r5, #0
 23f7e20:	f9b6 3002 	ldrsh.w	r3, [r6, #2]
 23f7e24:	3408      	adds	r4, #8
 23f7e26:	42ab      	cmp	r3, r5
 23f7e28:	dd11      	ble.n	23f7e4e <_Z19eml_neighbors_inferP18_EmlNeighborsModelPKsiP25_EmlNeighborsDistanceItemi+0x4c>
        int16_t *item = self->data + (self->n_features * i);
 23f7e2a:	8833      	ldrh	r3, [r6, #0]
 23f7e2c:	68b1      	ldr	r1, [r6, #8]
 23f7e2e:	436b      	muls	r3, r5
        uint32_t distance = eml_distance_euclidean_int16(features, item, features_length);
 23f7e30:	4642      	mov	r2, r8
 23f7e32:	4638      	mov	r0, r7
 23f7e34:	eb01 0143 	add.w	r1, r1, r3, lsl #1
 23f7e38:	f7ff ffca 	bl	23f7dd0 <_Z28eml_distance_euclidean_int16PKsS0_i>

        distances[i].index = i;
 23f7e3c:	f824 5c08 	strh.w	r5, [r4, #-8]
        distances[i].distance = distance;
 23f7e40:	f844 0c04 	str.w	r0, [r4, #-4]
    for (int i=0; i<self->n_items; i++) {
 23f7e44:	3501      	adds	r5, #1
 23f7e46:	e7eb      	b.n	23f7e20 <_Z19eml_neighbors_inferP18_EmlNeighborsModelPKsiP25_EmlNeighborsDistanceItemi+0x1e>
    EML_PRECONDITION(distances_length >= self->n_items, EmlSizeMismatch);
 23f7e48:	2001      	movs	r0, #1
#endif

    }

    return EmlOk;
}
 23f7e4a:	e8bd 81f0 	ldmia.w	sp!, {r4, r5, r6, r7, r8, pc}
 23f7e4e:	2000      	movs	r0, #0
 23f7e50:	e7fb      	b.n	23f7e4a <_Z19eml_neighbors_inferP18_EmlNeighborsModelPKsiP25_EmlNeighborsDistanceItemi+0x48>
	...

023f7e54 <_Z26eml_neighbors_find_nearestP18_EmlNeighborsModelP25_EmlNeighborsDistanceItemiiPs>:
EmlError
eml_neighbors_find_nearest(EmlNeighborsModel *self,
        EmlNeighborsDistanceItem *distances, int distances_length,
        int k, int16_t *out)
{
    EML_PRECONDITION(k <= distances_length, EmlSizeMismatch);
 23f7e54:	4293      	cmp	r3, r2
{
 23f7e56:	b5f8      	push	{r3, r4, r5, r6, r7, lr}
 23f7e58:	460c      	mov	r4, r1
 23f7e5a:	4606      	mov	r6, r0
 23f7e5c:	4611      	mov	r1, r2
 23f7e5e:	461d      	mov	r5, r3
    EML_PRECONDITION(k <= distances_length, EmlSizeMismatch);
 23f7e60:	dc2f      	bgt.n	23f7ec2 <_Z26eml_neighbors_find_nearestP18_EmlNeighborsModelP25_EmlNeighborsDistanceItemiiPs+0x6e>
        EML_LOG_ADD_INTEGER("k", k);
        EML_LOG_END();
#endif

    // argsort by distance. NOTE: sorts in-place
    eml_neighbors_sort_distances(distances, distances_length);
 23f7e62:	4620      	mov	r0, r4
 23f7e64:	f7ff ffc6 	bl	23f7df4 <_Z28eml_neighbors_sort_distancesP25_EmlNeighborsDistanceItemj>

    int16_t *votes = eml_neighbors_votes;
    memset(votes, 0, sizeof(int16_t) * EML_NEIGHBORS_MAX_CLASSES);
 23f7e68:	2218      	movs	r2, #24
 23f7e6a:	2100      	movs	r1, #0
 23f7e6c:	4817      	ldr	r0, [pc, #92]	; (23f7ecc <_Z26eml_neighbors_find_nearestP18_EmlNeighborsModelP25_EmlNeighborsDistanceItemiiPs+0x78>)
 23f7e6e:	f004 fda4 	bl	23fc9ba <memset>

    // merge predictions for top-k matches
    for (int i=0; i<k; i++) {
 23f7e72:	2200      	movs	r2, #0
        EmlNeighborsDistanceItem d = distances[i];
        const int16_t label = self->labels[d.index];         
        if (label < 0 || label >= EML_NEIGHBORS_MAX_CLASSES) {
            return EmlUnknownError;
        }
        votes[label] += 1;
 23f7e74:	4915      	ldr	r1, [pc, #84]	; (23f7ecc <_Z26eml_neighbors_find_nearestP18_EmlNeighborsModelP25_EmlNeighborsDistanceItemiiPs+0x78>)
    for (int i=0; i<k; i++) {
 23f7e76:	4295      	cmp	r5, r2
 23f7e78:	dd0f      	ble.n	23f7e9a <_Z26eml_neighbors_find_nearestP18_EmlNeighborsModelP25_EmlNeighborsDistanceItemiiPs+0x46>
        const int16_t label = self->labels[d.index];         
 23f7e7a:	f934 7032 	ldrsh.w	r7, [r4, r2, lsl #3]
 23f7e7e:	68f3      	ldr	r3, [r6, #12]
 23f7e80:	f933 0017 	ldrsh.w	r0, [r3, r7, lsl #1]
        if (label < 0 || label >= EML_NEIGHBORS_MAX_CLASSES) {
 23f7e84:	f833 3017 	ldrh.w	r3, [r3, r7, lsl #1]
 23f7e88:	2b0b      	cmp	r3, #11
 23f7e8a:	d81c      	bhi.n	23f7ec6 <_Z26eml_neighbors_find_nearestP18_EmlNeighborsModelP25_EmlNeighborsDistanceItemiiPs+0x72>
        votes[label] += 1;
 23f7e8c:	f831 3010 	ldrh.w	r3, [r1, r0, lsl #1]
    for (int i=0; i<k; i++) {
 23f7e90:	3201      	adds	r2, #1
        votes[label] += 1;
 23f7e92:	3301      	adds	r3, #1
 23f7e94:	f821 3010 	strh.w	r3, [r1, r0, lsl #1]
    for (int i=0; i<k; i++) {
 23f7e98:	e7ed      	b.n	23f7e76 <_Z26eml_neighbors_find_nearestP18_EmlNeighborsModelP25_EmlNeighborsDistanceItemiiPs+0x22>
        EML_LOG_END();
#endif
    }

    int32_t most_voted_class = -1;
    int32_t most_voted_votes = 0;
 23f7e9a:	2200      	movs	r2, #0
    int32_t most_voted_class = -1;
 23f7e9c:	f04f 31ff 	mov.w	r1, #4294967295
    for (int32_t i=0; i<EML_NEIGHBORS_MAX_CLASSES; i++) {
 23f7ea0:	4613      	mov	r3, r2
 23f7ea2:	480a      	ldr	r0, [pc, #40]	; (23f7ecc <_Z26eml_neighbors_find_nearestP18_EmlNeighborsModelP25_EmlNeighborsDistanceItemiiPs+0x78>)
        EML_LOG_ADD_INTEGER("index", i);
        EML_LOG_ADD_INTEGER("votes", votes[i]);
        EML_LOG_END();
#endif

        if (votes[i] > most_voted_votes) {
 23f7ea4:	f930 4b02 	ldrsh.w	r4, [r0], #2
 23f7ea8:	4294      	cmp	r4, r2
 23f7eaa:	bfc8      	it	gt
 23f7eac:	4619      	movgt	r1, r3
    for (int32_t i=0; i<EML_NEIGHBORS_MAX_CLASSES; i++) {
 23f7eae:	f103 0301 	add.w	r3, r3, #1
        if (votes[i] > most_voted_votes) {
 23f7eb2:	bfc8      	it	gt
 23f7eb4:	4622      	movgt	r2, r4
    for (int32_t i=0; i<EML_NEIGHBORS_MAX_CLASSES; i++) {
 23f7eb6:	2b0c      	cmp	r3, #12
 23f7eb8:	d1f4      	bne.n	23f7ea4 <_Z26eml_neighbors_find_nearestP18_EmlNeighborsModelP25_EmlNeighborsDistanceItemiiPs+0x50>
            most_voted_votes = votes[i];
        }
    }
    *out = most_voted_class;

    return EmlOk;
 23f7eba:	2000      	movs	r0, #0
    *out = most_voted_class;
 23f7ebc:	9b06      	ldr	r3, [sp, #24]
 23f7ebe:	8019      	strh	r1, [r3, #0]
}
 23f7ec0:	bdf8      	pop	{r3, r4, r5, r6, r7, pc}
    EML_PRECONDITION(k <= distances_length, EmlSizeMismatch);
 23f7ec2:	2001      	movs	r0, #1
 23f7ec4:	e7fc      	b.n	23f7ec0 <_Z26eml_neighbors_find_nearestP18_EmlNeighborsModelP25_EmlNeighborsDistanceItemiiPs+0x6c>
            return EmlUnknownError;
 23f7ec6:	2005      	movs	r0, #5
 23f7ec8:	e7fa      	b.n	23f7ec0 <_Z26eml_neighbors_find_nearestP18_EmlNeighborsModelP25_EmlNeighborsDistanceItemiiPs+0x6c>
 23f7eca:	bf00      	nop
 23f7ecc:	1007ae70 	.word	0x1007ae70

023f7ed0 <_Z21eml_neighbors_predictP18_EmlNeighborsModelPKsiP25_EmlNeighborsDistanceItemiPs>:
EmlError
eml_neighbors_predict(EmlNeighborsModel *self,
        const int16_t *features, int features_length,
        EmlNeighborsDistanceItem *distances, int distances_length,
        int16_t *out)
{
 23f7ed0:	b57f      	push	{r0, r1, r2, r3, r4, r5, r6, lr}
    // NOTE: Preconditions checked inside _infer()
    // Compute distances
    const EmlError infer_err = \
        eml_neighbors_infer(self, features, features_length, distances, distances_length);
 23f7ed2:	9e08      	ldr	r6, [sp, #32]
{
 23f7ed4:	4604      	mov	r4, r0
        eml_neighbors_infer(self, features, features_length, distances, distances_length);
 23f7ed6:	9600      	str	r6, [sp, #0]
{
 23f7ed8:	461d      	mov	r5, r3
        eml_neighbors_infer(self, features, features_length, distances, distances_length);
 23f7eda:	f7ff ff92 	bl	23f7e02 <_Z19eml_neighbors_inferP18_EmlNeighborsModelPKsiP25_EmlNeighborsDistanceItemi>
    if (infer_err != EmlOk) {
 23f7ede:	b998      	cbnz	r0, 23f7f08 <_Z21eml_neighbors_predictP18_EmlNeighborsModelPKsiP25_EmlNeighborsDistanceItemiPs+0x38>
        return infer_err;
    }

    // Find kNN predictions 
    int16_t label = -1;
 23f7ee0:	f64f 73ff 	movw	r3, #65535	; 0xffff
 23f7ee4:	f8ad 300e 	strh.w	r3, [sp, #14]
    EmlError find_err = \
        eml_neighbors_find_nearest(self, distances, self->n_items, self->k_neighbors, &label);
 23f7ee8:	f10d 030e 	add.w	r3, sp, #14
 23f7eec:	9300      	str	r3, [sp, #0]
 23f7eee:	4629      	mov	r1, r5
 23f7ef0:	4620      	mov	r0, r4
 23f7ef2:	f9b4 3010 	ldrsh.w	r3, [r4, #16]
 23f7ef6:	f9b4 2002 	ldrsh.w	r2, [r4, #2]
 23f7efa:	f7ff ffab 	bl	23f7e54 <_Z26eml_neighbors_find_nearestP18_EmlNeighborsModelP25_EmlNeighborsDistanceItemiiPs>
    if (find_err != EmlOk) {
 23f7efe:	b918      	cbnz	r0, 23f7f08 <_Z21eml_neighbors_predictP18_EmlNeighborsModelPKsiP25_EmlNeighborsDistanceItemiPs+0x38>
        return find_err;
    }
    *out = label;
 23f7f00:	9b09      	ldr	r3, [sp, #36]	; 0x24
 23f7f02:	f8bd 200e 	ldrh.w	r2, [sp, #14]
 23f7f06:	801a      	strh	r2, [r3, #0]

    return EmlOk;
}
 23f7f08:	b004      	add	sp, #16
 23f7f0a:	bd70      	pop	{r4, r5, r6, pc}
 23f7f0c:	0000      	movs	r0, r0
	...

023f7f10 <_ZL14classify_audiov>:
    return (int)knn_out;
}


static void classify_audio()
{
 23f7f10:	e92d 4ff0 	stmdb	sp!, {r4, r5, r6, r7, r8, r9, sl, fp, lr}
 23f7f14:	4ba6      	ldr	r3, [pc, #664]	; (23f81b0 <_ZL14classify_audiov+0x2a0>)
 23f7f16:	ed2d 8b02 	vpush	{d8}
 23f7f1a:	4698      	mov	r8, r3
    uint32_t count = 0;
 23f7f1c:	2400      	movs	r4, #0
 23f7f1e:	ed9f 8ba0 	vldr	d8, [pc, #640]	; 23f81a0 <_ZL14classify_audiov+0x290>
 23f7f22:	4ea4      	ldr	r6, [pc, #656]	; (23f81b4 <_ZL14classify_audiov+0x2a4>)
{
 23f7f24:	b0c7      	sub	sp, #284	; 0x11c
 23f7f26:	4fa4      	ldr	r7, [pc, #656]	; (23f81b8 <_ZL14classify_audiov+0x2a8>)
 23f7f28:	9304      	str	r3, [sp, #16]
 23f7f2a:	9605      	str	r6, [sp, #20]
    uint32_t count = 0;
 23f7f2c:	46c1      	mov	r9, r8
 23f7f2e:	f44f 6500 	mov.w	r5, #2048	; 0x800
 23f7f32:	ec5b ab18 	vmov	sl, fp, d8
            double x = samples[start + i];
 23f7f36:	e8f9 2302 	ldrd	r2, r3, [r9], #8
            power += x * x;
 23f7f3a:	4610      	mov	r0, r2
 23f7f3c:	4619      	mov	r1, r3
 23f7f3e:	f7fe fa67 	bl	23f6410 <__aeabi_dmul>
 23f7f42:	4602      	mov	r2, r0
 23f7f44:	460b      	mov	r3, r1
 23f7f46:	4650      	mov	r0, sl
 23f7f48:	4659      	mov	r1, fp
 23f7f4a:	f7fe f8ab 	bl	23f60a4 <__adddf3>
        for (uint32_t i = 0; i < F2_FRAME_LEN; i++)
 23f7f4e:	3d01      	subs	r5, #1
            power += x * x;
 23f7f50:	4682      	mov	sl, r0
 23f7f52:	468b      	mov	fp, r1
        for (uint32_t i = 0; i < F2_FRAME_LEN; i++)
 23f7f54:	d1ef      	bne.n	23f7f36 <_ZL14classify_audiov+0x26>
        trim_rms_values[count] = (float)sqrt(power / (double)F2_FRAME_LEN);
 23f7f56:	f04f 537d 	mov.w	r3, #1061158912	; 0x3f400000
 23f7f5a:	2200      	movs	r2, #0
 23f7f5c:	f7fe fa58 	bl	23f6410 <__aeabi_dmul>
 23f7f60:	ec41 0b10 	vmov	d0, r0, r1
 23f7f64:	f002 fa1a 	bl	23fa39c <sqrt>
 23f7f68:	ec51 0b10 	vmov	r0, r1, d0
 23f7f6c:	f7fe fd28 	bl	23f69c0 <__aeabi_d2f>
 23f7f70:	9b05      	ldr	r3, [sp, #20]
 23f7f72:	f843 0b04 	str.w	r0, [r3], #4
 23f7f76:	9305      	str	r3, [sp, #20]
        trim_starts[count] = (uint16_t)start;
 23f7f78:	0263      	lsls	r3, r4, #9
        count++;
 23f7f7a:	3401      	adds	r4, #1
    while ((start + F2_FRAME_LEN <= *length) && (count < max_frames))
 23f7f7c:	2c04      	cmp	r4, #4
        trim_starts[count] = (uint16_t)start;
 23f7f7e:	f827 3b02 	strh.w	r3, [r7], #2
    while ((start + F2_FRAME_LEN <= *length) && (count < max_frames))
 23f7f82:	f040 80aa 	bne.w	23f80da <_ZL14classify_audiov+0x1ca>
    for (uint32_t i = 0; i < count; i++)
 23f7f86:	462b      	mov	r3, r5
    float max_rms = 0.0f;
 23f7f88:	eddf 7a8c 	vldr	s15, [pc, #560]	; 23f81bc <_ZL14classify_audiov+0x2ac>
 23f7f8c:	4a89      	ldr	r2, [pc, #548]	; (23f81b4 <_ZL14classify_audiov+0x2a4>)
        if (trim_rms_values[i] > max_rms)
 23f7f8e:	ecb2 7a01 	vldmia	r2!, {s14}
            max_rms = trim_rms_values[i];
 23f7f92:	eeb4 7a67 	vcmp.f32	s14, s15
 23f7f96:	eef1 fa10 	vmrs	APSR_nzcv, fpscr
    for (uint32_t i = 0; i < count; i++)
 23f7f9a:	f103 0301 	add.w	r3, r3, #1
            max_rms = trim_rms_values[i];
 23f7f9e:	fe77 7a27 	vselgt.f32	s15, s14, s15
    for (uint32_t i = 0; i < count; i++)
 23f7fa2:	2b04      	cmp	r3, #4
 23f7fa4:	d1f3      	bne.n	23f7f8e <_ZL14classify_audiov+0x7e>
    if (max_rms <= 1e-12f)
 23f7fa6:	ed9f 7a86 	vldr	s14, [pc, #536]	; 23f81c0 <_ZL14classify_audiov+0x2b0>
 23f7faa:	eef4 7ac7 	vcmpe.f32	s15, s14
 23f7fae:	eef1 fa10 	vmrs	APSR_nzcv, fpscr
 23f7fb2:	f240 8095 	bls.w	23f80e0 <_ZL14classify_audiov+0x1d0>
    float threshold = max_rms * powf(10.0f, -TRIM_TOP_DB / 20.0f);
 23f7fb6:	ed9f 7a83 	vldr	s14, [pc, #524]	; 23f81c4 <_ZL14classify_audiov+0x2b4>
    int last = -1;
 23f7fba:	f04f 30ff 	mov.w	r0, #4294967295
    float threshold = max_rms * powf(10.0f, -TRIM_TOP_DB / 20.0f);
 23f7fbe:	ee67 7a87 	vmul.f32	s15, s15, s14
    for (uint32_t i = 0; i < count; i++)
 23f7fc2:	2200      	movs	r2, #0
    int first = -1;
 23f7fc4:	4603      	mov	r3, r0
        if (trim_rms_values[i] >= threshold)
 23f7fc6:	ecb6 7a01 	vldmia	r6!, {s14}
 23f7fca:	eef4 7ac7 	vcmpe.f32	s15, s14
 23f7fce:	eef1 fa10 	vmrs	APSR_nzcv, fpscr
 23f7fd2:	d804      	bhi.n	23f7fde <_ZL14classify_audiov+0xce>
                first = (int)i;
 23f7fd4:	4610      	mov	r0, r2
 23f7fd6:	f1b3 3fff 	cmp.w	r3, #4294967295
 23f7fda:	bf08      	it	eq
 23f7fdc:	4613      	moveq	r3, r2
    for (uint32_t i = 0; i < count; i++)
 23f7fde:	3201      	adds	r2, #1
 23f7fe0:	2a04      	cmp	r2, #4
 23f7fe2:	d1f0      	bne.n	23f7fc6 <_ZL14classify_audiov+0xb6>
    if (first < 0 || last < 0)
 23f7fe4:	1c59      	adds	r1, r3, #1
 23f7fe6:	d07b      	beq.n	23f80e0 <_ZL14classify_audiov+0x1d0>
 23f7fe8:	1c42      	adds	r2, r0, #1
 23f7fea:	d079      	beq.n	23f80e0 <_ZL14classify_audiov+0x1d0>
    uint32_t start_sample = (uint32_t)trim_starts[first];
 23f7fec:	4a72      	ldr	r2, [pc, #456]	; (23f81b8 <_ZL14classify_audiov+0x2a8>)
 23f7fee:	f832 1013 	ldrh.w	r1, [r2, r3, lsl #1]
    uint32_t end_sample = (uint32_t)trim_starts[last] + F2_FRAME_LEN;
 23f7ff2:	f832 3010 	ldrh.w	r3, [r2, r0, lsl #1]
 23f7ff6:	f503 6300 	add.w	r3, r3, #2048	; 0x800
    uint32_t new_len = end_sample - start_sample;
 23f7ffa:	f5b3 6f7a 	cmp.w	r3, #4000	; 0xfa0
 23f7ffe:	bf94      	ite	ls
 23f8000:	ebc1 0403 	rsbls	r4, r1, r3
 23f8004:	f5c1 647a 	rsbhi	r4, r1, #4000	; 0xfa0
    if (new_len > 0)
 23f8008:	2c00      	cmp	r4, #0
 23f800a:	d069      	beq.n	23f80e0 <_ZL14classify_audiov+0x1d0>
        memmove(samples, samples + start_sample, new_len * sizeof(double));
 23f800c:	4b68      	ldr	r3, [pc, #416]	; (23f81b0 <_ZL14classify_audiov+0x2a0>)
 23f800e:	00e2      	lsls	r2, r4, #3
 23f8010:	4618      	mov	r0, r3
 23f8012:	eb03 01c1 	add.w	r1, r3, r1, lsl #3
 23f8016:	f004 fcb6 	bl	23fc986 <memmove>
    for (uint32_t i = 0; i < length; i++)
 23f801a:	f04f 0800 	mov.w	r8, #0
    double sum = 0.0;
 23f801e:	2600      	movs	r6, #0
 23f8020:	2700      	movs	r7, #0
    uint32_t audio_len = AUDIO_SAMPLES;
 23f8022:	f8df 918c 	ldr.w	r9, [pc, #396]	; 23f81b0 <_ZL14classify_audiov+0x2a0>
        sum += samples[i];
 23f8026:	4630      	mov	r0, r6
 23f8028:	e8f9 2302 	ldrd	r2, r3, [r9], #8
 23f802c:	4639      	mov	r1, r7
 23f802e:	f7fe f839 	bl	23f60a4 <__adddf3>
    for (uint32_t i = 0; i < length; i++)
 23f8032:	f108 0801 	add.w	r8, r8, #1
 23f8036:	45a0      	cmp	r8, r4
        sum += samples[i];
 23f8038:	4606      	mov	r6, r0
 23f803a:	460f      	mov	r7, r1
    for (uint32_t i = 0; i < length; i++)
 23f803c:	d1f3      	bne.n	23f8026 <_ZL14classify_audiov+0x116>
    double mean = sum / (double)length;
 23f803e:	4620      	mov	r0, r4
 23f8040:	f7fe f96c 	bl	23f631c <__aeabi_ui2d>
 23f8044:	4602      	mov	r2, r0
 23f8046:	460b      	mov	r3, r1
 23f8048:	4630      	mov	r0, r6
 23f804a:	4639      	mov	r1, r7
 23f804c:	f7fe fb0a 	bl	23f6664 <__aeabi_ddiv>
    for (uint32_t i = 0; i < length; i++)
 23f8050:	f04f 0a00 	mov.w	sl, #0
    double mean = sum / (double)length;
 23f8054:	4680      	mov	r8, r0
 23f8056:	4689      	mov	r9, r1
    double peak = 0.0;
 23f8058:	2600      	movs	r6, #0
 23f805a:	2700      	movs	r7, #0
    double mean = sum / (double)length;
 23f805c:	f8df b150 	ldr.w	fp, [pc, #336]	; 23f81b0 <_ZL14classify_audiov+0x2a0>
        samples[i] -= mean;
 23f8060:	4642      	mov	r2, r8
 23f8062:	e9db 0100 	ldrd	r0, r1, [fp]
 23f8066:	464b      	mov	r3, r9
 23f8068:	f7fe f81a 	bl	23f60a0 <__aeabi_dsub>
        double a = fabs(samples[i]);
 23f806c:	f021 4300 	bic.w	r3, r1, #2147483648	; 0x80000000
 23f8070:	9303      	str	r3, [sp, #12]
 23f8072:	9002      	str	r0, [sp, #8]
        samples[i] -= mean;
 23f8074:	e8eb 0102 	strd	r0, r1, [fp], #8
        if (a > peak)
 23f8078:	e9dd 0102 	ldrd	r0, r1, [sp, #8]
 23f807c:	4632      	mov	r2, r6
 23f807e:	463b      	mov	r3, r7
 23f8080:	f7fe fc56 	bl	23f6930 <__aeabi_dcmpgt>
 23f8084:	b108      	cbz	r0, 23f808a <_ZL14classify_audiov+0x17a>
            peak = a;
 23f8086:	e9dd 6702 	ldrd	r6, r7, [sp, #8]
    for (uint32_t i = 0; i < length; i++)
 23f808a:	f10a 0a01 	add.w	sl, sl, #1
 23f808e:	45a2      	cmp	sl, r4
 23f8090:	d1e6      	bne.n	23f8060 <_ZL14classify_audiov+0x150>
    if (peak > 1e-12)
 23f8092:	a345      	add	r3, pc, #276	; (adr r3, 23f81a8 <_ZL14classify_audiov+0x298>)
 23f8094:	e9d3 2300 	ldrd	r2, r3, [r3]
 23f8098:	4630      	mov	r0, r6
 23f809a:	4639      	mov	r1, r7
 23f809c:	f7fe fc48 	bl	23f6930 <__aeabi_dcmpgt>
 23f80a0:	bb08      	cbnz	r0, 23f80e6 <_ZL14classify_audiov+0x1d6>

    trim_silence_feature2(audio_buffer, &audio_len);
    remove_dc_and_peak_normalize(audio_buffer, audio_len);

    Serial.print("Audio samples after trim: ");
 23f80a2:	f001 f993 	bl	23f93cc <_Z16_fetch_usbserialv>
 23f80a6:	4948      	ldr	r1, [pc, #288]	; (23f81c8 <_ZL14classify_audiov+0x2b8>)
 23f80a8:	f000 ffba 	bl	23f9020 <_ZN5Print5printEPKc>
    Serial.println((int)audio_len);
 23f80ac:	f001 f98e 	bl	23f93cc <_Z16_fetch_usbserialv>
 23f80b0:	220a      	movs	r2, #10
 23f80b2:	4621      	mov	r1, r4
 23f80b4:	f7ff fe5c 	bl	23f7d70 <_ZN5Print7printlnIiLi0EEEjT_i.isra.0>

    Feature2Vector fv;

    bool ok = feature2_extract_segment(&fx, audio_buffer, audio_len, &fv);
 23f80b8:	4622      	mov	r2, r4
 23f80ba:	493d      	ldr	r1, [pc, #244]	; (23f81b0 <_ZL14classify_audiov+0x2a0>)
 23f80bc:	4843      	ldr	r0, [pc, #268]	; (23f81cc <_ZL14classify_audiov+0x2bc>)
 23f80be:	ab22      	add	r3, sp, #136	; 0x88
 23f80c0:	f7ff f9c4 	bl	23f744c <feature2_extract_segment>

    if (!ok)
 23f80c4:	b9f0      	cbnz	r0, 23f8104 <_ZL14classify_audiov+0x1f4>
    {
        Serial.println("ERROR: feature2_extract_segment failed");
 23f80c6:	f001 f981 	bl	23f93cc <_Z16_fetch_usbserialv>
 23f80ca:	4941      	ldr	r1, [pc, #260]	; (23f81d0 <_ZL14classify_audiov+0x2c0>)

    Serial.print("KNN inference time: ");
    Serial.print(knn_time);
    Serial.println(" us");

    Serial.println("=================================");
 23f80cc:	f000 ffbb 	bl	23f9046 <_ZN5Print7printlnEPKc>
}
 23f80d0:	b047      	add	sp, #284	; 0x11c
 23f80d2:	ecbd 8b02 	vpop	{d8}
 23f80d6:	e8bd 8ff0 	ldmia.w	sp!, {r4, r5, r6, r7, r8, r9, sl, fp, pc}
    while ((start + F2_FRAME_LEN <= *length) && (count < max_frames))
 23f80da:	f508 5880 	add.w	r8, r8, #4096	; 0x1000
 23f80de:	e725      	b.n	23f7f2c <_ZL14classify_audiov+0x1c>
    uint32_t audio_len = AUDIO_SAMPLES;
 23f80e0:	f44f 647a 	mov.w	r4, #4000	; 0xfa0
 23f80e4:	e799      	b.n	23f801a <_ZL14classify_audiov+0x10a>
            samples[i] /= peak;
 23f80e6:	9904      	ldr	r1, [sp, #16]
 23f80e8:	463b      	mov	r3, r7
 23f80ea:	e9d1 0100 	ldrd	r0, r1, [r1]
 23f80ee:	4632      	mov	r2, r6
 23f80f0:	f7fe fab8 	bl	23f6664 <__aeabi_ddiv>
 23f80f4:	9b04      	ldr	r3, [sp, #16]
        for (uint32_t i = 0; i < length; i++)
 23f80f6:	3501      	adds	r5, #1
            samples[i] /= peak;
 23f80f8:	e8e3 0102 	strd	r0, r1, [r3], #8
        for (uint32_t i = 0; i < length; i++)
 23f80fc:	42a5      	cmp	r5, r4
            samples[i] /= peak;
 23f80fe:	9304      	str	r3, [sp, #16]
        for (uint32_t i = 0; i < length; i++)
 23f8100:	d1f1      	bne.n	23f80e6 <_ZL14classify_audiov+0x1d6>
 23f8102:	e7ce      	b.n	23f80a2 <_ZL14classify_audiov+0x192>
    features[idx++] = (float)fv->spectral_centroid;
 23f8104:	e9dd 0122 	ldrd	r0, r1, [sp, #136]	; 0x88
 23f8108:	f7fe fc5a 	bl	23f69c0 <__aeabi_d2f>
 23f810c:	2405      	movs	r4, #5
 23f810e:	9010      	str	r0, [sp, #64]	; 0x40
    for (int i = 0; i < F2_NUM_MFCC; i++)
 23f8110:	ae24      	add	r6, sp, #144	; 0x90
 23f8112:	ad11      	add	r5, sp, #68	; 0x44
        features[idx++] = (float)fv->mfcc[i];
 23f8114:	e8f6 0102 	ldrd	r0, r1, [r6], #8
 23f8118:	f7fe fc52 	bl	23f69c0 <__aeabi_d2f>
    for (int i = 0; i < F2_NUM_MFCC; i++)
 23f811c:	3c01      	subs	r4, #1
        features[idx++] = (float)fv->mfcc[i];
 23f811e:	f845 0b04 	str.w	r0, [r5], #4
    for (int i = 0; i < F2_NUM_MFCC; i++)
 23f8122:	d1f7      	bne.n	23f8114 <_ZL14classify_audiov+0x204>
 23f8124:	240c      	movs	r4, #12
 23f8126:	ae2e      	add	r6, sp, #184	; 0xb8
 23f8128:	ad16      	add	r5, sp, #88	; 0x58
        features[idx++] = (float)fv->chroma_stft[i];
 23f812a:	e8f6 0102 	ldrd	r0, r1, [r6], #8
 23f812e:	f7fe fc47 	bl	23f69c0 <__aeabi_d2f>
    for (int i = 0; i < F2_NUM_CHROMA; i++)
 23f8132:	3c01      	subs	r4, #1
        features[idx++] = (float)fv->chroma_stft[i];
 23f8134:	f845 0b04 	str.w	r0, [r5], #4
    for (int i = 0; i < F2_NUM_CHROMA; i++)
 23f8138:	d1f7      	bne.n	23f812a <_ZL14classify_audiov+0x21a>
    int16_t knn_out = -1;
 23f813a:	f64f 73ff 	movw	r3, #65535	; 0xffff
 23f813e:	2212      	movs	r2, #18
static void chord_knn_prepare_features(const float *raw, int16_t *out)
{
    for (int i = 0; i < CHORD_KNN_NUM_FEATURES; i++)
    {
        float z = (raw[i] - CHORD_KNN_MEAN[i]) / CHORD_KNN_SCALE[i];
        float qf = z * CHORD_KNN_QUANT_SCALE;
 23f8140:	ed9f 5a24 	vldr	s10, [pc, #144]	; 23f81d4 <_ZL14classify_audiov+0x2c4>

        if (qf > 32767.0f) qf = 32767.0f;
 23f8144:	eddf 6a24 	vldr	s13, [pc, #144]	; 23f81d8 <_ZL14classify_audiov+0x2c8>
 23f8148:	eeb6 6a00 	vmov.f32	s12, #96	; 0x3f000000  0.5
        if (qf < -32768.0f) qf = -32768.0f;
 23f814c:	eddf 5a23 	vldr	s11, [pc, #140]	; 23f81dc <_ZL14classify_audiov+0x2cc>
 23f8150:	4c23      	ldr	r4, [pc, #140]	; (23f81e0 <_ZL14classify_audiov+0x2d0>)
 23f8152:	4824      	ldr	r0, [pc, #144]	; (23f81e4 <_ZL14classify_audiov+0x2d4>)
 23f8154:	f8ad 301a 	strh.w	r3, [sp, #26]
    for (int i = 0; i < CHORD_KNN_NUM_FEATURES; i++)
 23f8158:	ad10      	add	r5, sp, #64	; 0x40
 23f815a:	ab07      	add	r3, sp, #28
        float z = (raw[i] - CHORD_KNN_MEAN[i]) / CHORD_KNN_SCALE[i];
 23f815c:	ecf4 7a01 	vldmia	r4!, {s15}
 23f8160:	ecb5 7a01 	vldmia	r5!, {s14}
 23f8164:	ecf0 4a01 	vldmia	r0!, {s9}
 23f8168:	ee37 7a67 	vsub.f32	s14, s14, s15
 23f816c:	eec7 7a24 	vdiv.f32	s15, s14, s9
        float qf = z * CHORD_KNN_QUANT_SCALE;
 23f8170:	ee67 7a85 	vmul.f32	s15, s15, s10
        if (qf > 32767.0f) qf = 32767.0f;
 23f8174:	eef4 7ae6 	vcmpe.f32	s15, s13
 23f8178:	eef1 fa10 	vmrs	APSR_nzcv, fpscr
 23f817c:	dc34      	bgt.n	23f81e8 <_ZL14classify_audiov+0x2d8>
        if (qf < -32768.0f) qf = -32768.0f;
 23f817e:	eef4 7ae5 	vcmpe.f32	s15, s11
 23f8182:	eef1 fa10 	vmrs	APSR_nzcv, fpscr
 23f8186:	f100 8095 	bmi.w	23f82b4 <_ZL14classify_audiov+0x3a4>

        if (qf >= 0.0f)
 23f818a:	eef5 7ac0 	vcmpe.f32	s15, #0.0
 23f818e:	eef1 fa10 	vmrs	APSR_nzcv, fpscr
 23f8192:	da2b      	bge.n	23f81ec <_ZL14classify_audiov+0x2dc>
            out[i] = (int16_t)(qf + 0.5f);
        else
            out[i] = (int16_t)(qf - 0.5f);
 23f8194:	ee77 7ac6 	vsub.f32	s15, s15, s12
 23f8198:	e02a      	b.n	23f81f0 <_ZL14classify_audiov+0x2e0>
 23f819a:	bf00      	nop
 23f819c:	f3af 8000 	nop.w
	...
 23f81a8:	812dea11 	.word	0x812dea11
 23f81ac:	3d719799 	.word	0x3d719799
 23f81b0:	10062370 	.word	0x10062370
 23f81b4:	1006a9a0 	.word	0x1006a9a0
 23f81b8:	1006234c 	.word	0x1006234c
 23f81bc:	00000000 	.word	0x00000000
 23f81c0:	2b8cbccc 	.word	0x2b8cbccc
 23f81c4:	3d6655c3 	.word	0x3d6655c3
 23f81c8:	023fcb38 	.word	0x023fcb38
 23f81cc:	1006a9e0 	.word	0x1006a9e0
 23f81d0:	023fcb53 	.word	0x023fcb53
 23f81d4:	42c80000 	.word	0x42c80000
 23f81d8:	46fffe00 	.word	0x46fffe00
 23f81dc:	c7000000 	.word	0xc7000000
 23f81e0:	023fcec0 	.word	0x023fcec0
 23f81e4:	023ff860 	.word	0x023ff860
        if (qf > 32767.0f) qf = 32767.0f;
 23f81e8:	eef0 7a66 	vmov.f32	s15, s13
            out[i] = (int16_t)(qf + 0.5f);
 23f81ec:	ee77 7a86 	vadd.f32	s15, s15, s12
            out[i] = (int16_t)(qf - 0.5f);
 23f81f0:	eefd 7ae7 	vcvt.s32.f32	s15, s15
 23f81f4:	ee17 6a90 	vmov	r6, s15
    for (int i = 0; i < CHORD_KNN_NUM_FEATURES; i++)
 23f81f8:	3a01      	subs	r2, #1
            out[i] = (int16_t)(qf - 0.5f);
 23f81fa:	801e      	strh	r6, [r3, #0]
    for (int i = 0; i < CHORD_KNN_NUM_FEATURES; i++)
 23f81fc:	f103 0302 	add.w	r3, r3, #2
 23f8200:	d1ac      	bne.n	23f815c <_ZL14classify_audiov+0x24c>
#ifdef __cplusplus
extern "C" {
#endif

inline system_tick_t millis(void) { return HAL_Timer_Get_Milli_Seconds(); }
inline unsigned long micros(void) { return HAL_Timer_Get_Micro_Seconds(); }
 23f8202:	f000 fb9d 	bl	23f8940 <HAL_Timer_Get_Micro_Seconds>
    EmlError err = eml_neighbors_predict(
 23f8206:	f10d 031a 	add.w	r3, sp, #26
 23f820a:	9301      	str	r3, [sp, #4]
 23f820c:	f44f 7393 	mov.w	r3, #294	; 0x126
 23f8210:	4605      	mov	r5, r0
 23f8212:	2212      	movs	r2, #18
 23f8214:	9300      	str	r3, [sp, #0]
 23f8216:	a907      	add	r1, sp, #28
 23f8218:	4b2f      	ldr	r3, [pc, #188]	; (23f82d8 <_ZL14classify_audiov+0x3c8>)
 23f821a:	4830      	ldr	r0, [pc, #192]	; (23f82dc <_ZL14classify_audiov+0x3cc>)
 23f821c:	f7ff fe58 	bl	23f7ed0 <_Z21eml_neighbors_predictP18_EmlNeighborsModelPKsiP25_EmlNeighborsDistanceItemiPs>
 23f8220:	4604      	mov	r4, r0
 23f8222:	f000 fb8d 	bl	23f8940 <HAL_Timer_Get_Micro_Seconds>
    *time_us = t1 - t0;
 23f8226:	1b45      	subs	r5, r0, r5
    if (err != EmlOk)
 23f8228:	2c00      	cmp	r4, #0
 23f822a:	d046      	beq.n	23f82ba <_ZL14classify_audiov+0x3aa>
        Serial.print("KNN emlearn error: ");
 23f822c:	f001 f8ce 	bl	23f93cc <_Z16_fetch_usbserialv>
 23f8230:	492b      	ldr	r1, [pc, #172]	; (23f82e0 <_ZL14classify_audiov+0x3d0>)
 23f8232:	f000 fef5 	bl	23f9020 <_ZN5Print5printEPKc>
        Serial.println((int)err);
 23f8236:	f001 f8c9 	bl	23f93cc <_Z16_fetch_usbserialv>
 23f823a:	4621      	mov	r1, r4
 23f823c:	220a      	movs	r2, #10
 23f823e:	f7ff fd97 	bl	23f7d70 <_ZN5Print7printlnIiLi0EEEjT_i.isra.0>
        return -1;
 23f8242:	f04f 34ff 	mov.w	r4, #4294967295
    Serial.println("=================================");
 23f8246:	f001 f8c1 	bl	23f93cc <_Z16_fetch_usbserialv>
 23f824a:	4926      	ldr	r1, [pc, #152]	; (23f82e4 <_ZL14classify_audiov+0x3d4>)
 23f824c:	f000 fefb 	bl	23f9046 <_ZN5Print7printlnEPKc>
    Serial.println("Prediction result");
 23f8250:	f001 f8bc 	bl	23f93cc <_Z16_fetch_usbserialv>
 23f8254:	4924      	ldr	r1, [pc, #144]	; (23f82e8 <_ZL14classify_audiov+0x3d8>)
 23f8256:	f000 fef6 	bl	23f9046 <_ZN5Print7printlnEPKc>
    if (knn_pred >= 0 && knn_pred < CHORD_KNN_NUM_CLASSES)
 23f825a:	2c0b      	cmp	r4, #11
 23f825c:	d830      	bhi.n	23f82c0 <_ZL14classify_audiov+0x3b0>
        Serial.print("KNN predicted class: ");
 23f825e:	f001 f8b5 	bl	23f93cc <_Z16_fetch_usbserialv>
 23f8262:	4922      	ldr	r1, [pc, #136]	; (23f82ec <_ZL14classify_audiov+0x3dc>)
 23f8264:	f000 fedc 	bl	23f9020 <_ZN5Print5printEPKc>
        Serial.println(knn_pred);
 23f8268:	f001 f8b0 	bl	23f93cc <_Z16_fetch_usbserialv>
 23f826c:	220a      	movs	r2, #10
 23f826e:	4621      	mov	r1, r4
 23f8270:	f7ff fd7e 	bl	23f7d70 <_ZN5Print7printlnIiLi0EEEjT_i.isra.0>
        Serial.print("KNN predicted chord: ");
 23f8274:	f001 f8aa 	bl	23f93cc <_Z16_fetch_usbserialv>
 23f8278:	491d      	ldr	r1, [pc, #116]	; (23f82f0 <_ZL14classify_audiov+0x3e0>)
 23f827a:	f000 fed1 	bl	23f9020 <_ZN5Print5printEPKc>
        Serial.println(chord_name(knn_pred));
 23f827e:	f001 f8a5 	bl	23f93cc <_Z16_fetch_usbserialv>
 23f8282:	4b1c      	ldr	r3, [pc, #112]	; (23f82f4 <_ZL14classify_audiov+0x3e4>)
 23f8284:	f853 1024 	ldr.w	r1, [r3, r4, lsl #2]
 23f8288:	f000 fedd 	bl	23f9046 <_ZN5Print7printlnEPKc>
    Serial.print("KNN inference time: ");
 23f828c:	f001 f89e 	bl	23f93cc <_Z16_fetch_usbserialv>
 23f8290:	4919      	ldr	r1, [pc, #100]	; (23f82f8 <_ZL14classify_audiov+0x3e8>)
 23f8292:	f000 fec5 	bl	23f9020 <_ZN5Print5printEPKc>
    Serial.print(knn_time);
 23f8296:	f001 f899 	bl	23f93cc <_Z16_fetch_usbserialv>
        return printNumber(val, base) + t;
 23f829a:	220a      	movs	r2, #10
 23f829c:	4629      	mov	r1, r5
 23f829e:	f000 fedc 	bl	23f905a <_ZN5Print11printNumberEmh>
    Serial.println(" us");
 23f82a2:	f001 f893 	bl	23f93cc <_Z16_fetch_usbserialv>
 23f82a6:	4915      	ldr	r1, [pc, #84]	; (23f82fc <_ZL14classify_audiov+0x3ec>)
 23f82a8:	f000 fecd 	bl	23f9046 <_ZN5Print7printlnEPKc>
    Serial.println("=================================");
 23f82ac:	f001 f88e 	bl	23f93cc <_Z16_fetch_usbserialv>
 23f82b0:	490c      	ldr	r1, [pc, #48]	; (23f82e4 <_ZL14classify_audiov+0x3d4>)
 23f82b2:	e70b      	b.n	23f80cc <_ZL14classify_audiov+0x1bc>
        if (qf < -32768.0f) qf = -32768.0f;
 23f82b4:	eef0 7a65 	vmov.f32	s15, s11
 23f82b8:	e76c      	b.n	23f8194 <_ZL14classify_audiov+0x284>
    return (int)knn_out;
 23f82ba:	f9bd 401a 	ldrsh.w	r4, [sp, #26]
 23f82be:	e7c2      	b.n	23f8246 <_ZL14classify_audiov+0x336>
        Serial.print("KNN invalid prediction: ");
 23f82c0:	f001 f884 	bl	23f93cc <_Z16_fetch_usbserialv>
 23f82c4:	490e      	ldr	r1, [pc, #56]	; (23f8300 <_ZL14classify_audiov+0x3f0>)
 23f82c6:	f000 feab 	bl	23f9020 <_ZN5Print5printEPKc>
        Serial.println(knn_pred);
 23f82ca:	f001 f87f 	bl	23f93cc <_Z16_fetch_usbserialv>
 23f82ce:	220a      	movs	r2, #10
 23f82d0:	4621      	mov	r1, r4
 23f82d2:	f7ff fd4d 	bl	23f7d70 <_ZN5Print7printlnIiLi0EEEjT_i.isra.0>
 23f82d6:	e7d9      	b.n	23f828c <_ZL14classify_audiov+0x37c>
 23f82d8:	1006a070 	.word	0x1006a070
 23f82dc:	10061970 	.word	0x10061970
 23f82e0:	023fcb7a 	.word	0x023fcb7a
 23f82e4:	023fcb8e 	.word	0x023fcb8e
 23f82e8:	023fcbb0 	.word	0x023fcbb0
 23f82ec:	023fcbc2 	.word	0x023fcbc2
 23f82f0:	023fcbd8 	.word	0x023fcbd8
 23f82f4:	023fce90 	.word	0x023fce90
 23f82f8:	023fcc07 	.word	0x023fcc07
 23f82fc:	023fcc1c 	.word	0x023fcc1c
 23f8300:	023fcbee 	.word	0x023fcbee
 23f8304:	00000000 	.word	0x00000000

023f8308 <setup>:

// =========================
// setup / loop
// =========================
void setup()
{
 23f8308:	b510      	push	{r4, lr}
    pinMode(LED_PIN, OUTPUT);
 23f830a:	2101      	movs	r1, #1
 23f830c:	2007      	movs	r0, #7
 23f830e:	f001 fa69 	bl	23f97e4 <pinMode>
    digitalWrite(LED_PIN, LOW);
 23f8312:	2100      	movs	r1, #0
 23f8314:	2007      	movs	r0, #7
 23f8316:	f001 fa76 	bl	23f9806 <digitalWrite>

    Serial.begin(115200);
 23f831a:	f001 f857 	bl	23f93cc <_Z16_fetch_usbserialv>
 23f831e:	f44f 31e1 	mov.w	r1, #115200	; 0x1c200
 23f8322:	f001 f847 	bl	23f93b4 <_ZN9USBSerial5beginEl>
    delay(3000);
 23f8326:	f640 30b8 	movw	r0, #3000	; 0xbb8
 23f832a:	f000 fec7 	bl	23f90bc <delay>

    Serial.println();
 23f832e:	f001 f84d 	bl	23f93cc <_Z16_fetch_usbserialv>
 23f8332:	f000 fe7c 	bl	23f902e <_ZN5Print7printlnEv>
    Serial.println("=================================");
 23f8336:	f001 f849 	bl	23f93cc <_Z16_fetch_usbserialv>
 23f833a:	4951      	ldr	r1, [pc, #324]	; (23f8480 <setup+0x178>)
 23f833c:	f000 fe83 	bl	23f9046 <_ZN5Print7printlnEPKc>
    Serial.println("Photon2 live chord recognition");
 23f8340:	f001 f844 	bl	23f93cc <_Z16_fetch_usbserialv>
 23f8344:	494f      	ldr	r1, [pc, #316]	; (23f8484 <setup+0x17c>)
 23f8346:	f000 fe7e 	bl	23f9046 <_ZN5Print7printlnEPKc>
    Serial.println("PDM microphone -> 18 live features -> KNN model");
 23f834a:	f001 f83f 	bl	23f93cc <_Z16_fetch_usbserialv>
 23f834e:	494e      	ldr	r1, [pc, #312]	; (23f8488 <setup+0x180>)
 23f8350:	f000 fe79 	bl	23f9046 <_ZN5Print7printlnEPKc>
    Serial.println("Features: centroid + 5 MFCC + 12 chroma_stft");
 23f8354:	f001 f83a 	bl	23f93cc <_Z16_fetch_usbserialv>
 23f8358:	494c      	ldr	r1, [pc, #304]	; (23f848c <setup+0x184>)
 23f835a:	f000 fe74 	bl	23f9046 <_ZN5Print7printlnEPKc>
    Serial.println("chroma_cens, tonnetz and Random Forest are disabled to reduce RAM");
 23f835e:	f001 f835 	bl	23f93cc <_Z16_fetch_usbserialv>
 23f8362:	494b      	ldr	r1, [pc, #300]	; (23f8490 <setup+0x188>)
 23f8364:	f000 fe6f 	bl	23f9046 <_ZN5Print7printlnEPKc>
    Serial.println("=================================");
 23f8368:	f001 f830 	bl	23f93cc <_Z16_fetch_usbserialv>
 23f836c:	4944      	ldr	r1, [pc, #272]	; (23f8480 <setup+0x178>)
 23f836e:	f000 fe6a 	bl	23f9046 <_ZN5Print7printlnEPKc>

    Serial.print("AUDIO_SAMPLE_RATE_HZ: ");
 23f8372:	f001 f82b 	bl	23f93cc <_Z16_fetch_usbserialv>
 23f8376:	4947      	ldr	r1, [pc, #284]	; (23f8494 <setup+0x18c>)
 23f8378:	f000 fe52 	bl	23f9020 <_ZN5Print5printEPKc>
    Serial.println(AUDIO_SAMPLE_RATE_HZ);
 23f837c:	f001 f826 	bl	23f93cc <_Z16_fetch_usbserialv>
 23f8380:	4604      	mov	r4, r0
 23f8382:	220a      	movs	r2, #10
 23f8384:	f44f 51fa 	mov.w	r1, #8000	; 0x1f40
 23f8388:	f000 fe67 	bl	23f905a <_ZN5Print11printNumberEmh>
        n += println();
 23f838c:	4620      	mov	r0, r4
 23f838e:	f000 fe4e 	bl	23f902e <_ZN5Print7printlnEv>

    Serial.print("RECORD_MS: ");
 23f8392:	f001 f81b 	bl	23f93cc <_Z16_fetch_usbserialv>
 23f8396:	4940      	ldr	r1, [pc, #256]	; (23f8498 <setup+0x190>)
 23f8398:	f000 fe42 	bl	23f9020 <_ZN5Print5printEPKc>
    Serial.println(RECORD_MS);
 23f839c:	f001 f816 	bl	23f93cc <_Z16_fetch_usbserialv>
 23f83a0:	4604      	mov	r4, r0
        return printNumber(val, base) + t;
 23f83a2:	220a      	movs	r2, #10
 23f83a4:	f44f 71fa 	mov.w	r1, #500	; 0x1f4
 23f83a8:	f000 fe57 	bl	23f905a <_ZN5Print11printNumberEmh>
        n += println();
 23f83ac:	4620      	mov	r0, r4
 23f83ae:	f000 fe3e 	bl	23f902e <_ZN5Print7printlnEv>

    Serial.print("AUDIO_SAMPLES: ");
 23f83b2:	f001 f80b 	bl	23f93cc <_Z16_fetch_usbserialv>
 23f83b6:	4939      	ldr	r1, [pc, #228]	; (23f849c <setup+0x194>)
 23f83b8:	f000 fe32 	bl	23f9020 <_ZN5Print5printEPKc>
    Serial.println(AUDIO_SAMPLES);
 23f83bc:	f001 f806 	bl	23f93cc <_Z16_fetch_usbserialv>
 23f83c0:	4604      	mov	r4, r0
        return printNumber(val, base) + t;
 23f83c2:	220a      	movs	r2, #10
 23f83c4:	f44f 617a 	mov.w	r1, #4000	; 0xfa0
 23f83c8:	f000 fe47 	bl	23f905a <_ZN5Print11printNumberEmh>
        n += println();
 23f83cc:	4620      	mov	r0, r4
 23f83ce:	f000 fe2e 	bl	23f902e <_ZN5Print7printlnEv>

    Serial.print("CHORD_KNN_NUM_FEATURES: ");
 23f83d2:	f000 fffb 	bl	23f93cc <_Z16_fetch_usbserialv>
 23f83d6:	4932      	ldr	r1, [pc, #200]	; (23f84a0 <setup+0x198>)
 23f83d8:	f000 fe22 	bl	23f9020 <_ZN5Print5printEPKc>
    Serial.println(CHORD_KNN_NUM_FEATURES);
 23f83dc:	f000 fff6 	bl	23f93cc <_Z16_fetch_usbserialv>
 23f83e0:	220a      	movs	r2, #10
 23f83e2:	2112      	movs	r1, #18
 23f83e4:	f7ff fcc4 	bl	23f7d70 <_ZN5Print7printlnIiLi0EEEjT_i.isra.0>

    Serial.print("CHORD_KNN_NUM_CLASSES: ");
 23f83e8:	f000 fff0 	bl	23f93cc <_Z16_fetch_usbserialv>
 23f83ec:	492d      	ldr	r1, [pc, #180]	; (23f84a4 <setup+0x19c>)
 23f83ee:	f000 fe17 	bl	23f9020 <_ZN5Print5printEPKc>
    Serial.println(CHORD_KNN_NUM_CLASSES);
 23f83f2:	f000 ffeb 	bl	23f93cc <_Z16_fetch_usbserialv>
 23f83f6:	220a      	movs	r2, #10
 23f83f8:	210c      	movs	r1, #12
 23f83fa:	f7ff fcb9 	bl	23f7d70 <_ZN5Print7printlnIiLi0EEEjT_i.isra.0>

    if (!feature2_extractor_init(&fx, AUDIO_SAMPLE_RATE_HZ))
 23f83fe:	ed9f 0b1e 	vldr	d0, [pc, #120]	; 23f8478 <setup+0x170>
 23f8402:	4829      	ldr	r0, [pc, #164]	; (23f84a8 <setup+0x1a0>)
 23f8404:	f7fe ff5c 	bl	23f72c0 <feature2_extractor_init>
 23f8408:	b930      	cbnz	r0, 23f8418 <setup+0x110>
    {
        Serial.println("ERROR: feature2_extractor_init failed");
 23f840a:	f000 ffdf 	bl	23f93cc <_Z16_fetch_usbserialv>
 23f840e:	4927      	ldr	r1, [pc, #156]	; (23f84ac <setup+0x1a4>)
        return;
    }

    Serial.println("Microphone started");
    Serial.println("Play a chord when it says Recording...");
}
 23f8410:	e8bd 4010 	ldmia.w	sp!, {r4, lr}
    Serial.println("Play a chord when it says Recording...");
 23f8414:	f000 be17 	b.w	23f9046 <_ZN5Print7printlnEPKc>
    int err = Microphone_PDM::instance()
 23f8418:	f000 f9d8 	bl	23f87cc <_ZN14Microphone_PDM8instanceEv>
	 * RANGE_32768 From -32768 to 32767 (16 bits) (same as raw mode)
	 *
	 * The range should be set based on the PDM microphone you are using. For the Adafruit microphone,
	 * the default value of RANGE_2048 (12-bit) is correct. 
	 */
	Microphone_PDM &withRange(Range range) { this->range = range; return *this; };
 23f841c:	2101      	movs	r1, #1
 23f841e:	2204      	movs	r2, #4
 23f8420:	e9c0 1204 	strd	r1, r2, [r0, #16]
	 * @param sampleRate 8000, 16000, or 32000. The default is 16000.
	 * 
	 * This call can only be used on RTL827x (P2, Photon 2). It is ignored on nRF52.
	 * Setting an invalid value will use 16000.
	 */
	Microphone_PDM &withSampleRate(int sampleRate) { this->sampleRate = sampleRate; return *this; };
 23f8424:	f44f 52fa 	mov.w	r2, #8000	; 0x1f40
        .init();
 23f8428:	6803      	ldr	r3, [r0, #0]
 23f842a:	60c2      	str	r2, [r0, #12]
 23f842c:	68db      	ldr	r3, [r3, #12]
 23f842e:	4798      	blx	r3
    if (err != 0)
 23f8430:	4604      	mov	r4, r0
 23f8432:	b160      	cbz	r0, 23f844e <setup+0x146>
        Serial.print("ERROR: Microphone_PDM init failed: ");
 23f8434:	f000 ffca 	bl	23f93cc <_Z16_fetch_usbserialv>
 23f8438:	491d      	ldr	r1, [pc, #116]	; (23f84b0 <setup+0x1a8>)
        Serial.print("ERROR: Microphone_PDM start failed: ");
 23f843a:	f000 fdf1 	bl	23f9020 <_ZN5Print5printEPKc>
        Serial.println(err);
 23f843e:	f000 ffc5 	bl	23f93cc <_Z16_fetch_usbserialv>
 23f8442:	4621      	mov	r1, r4
}
 23f8444:	e8bd 4010 	ldmia.w	sp!, {r4, lr}
        Serial.println(err);
 23f8448:	220a      	movs	r2, #10
 23f844a:	f7ff bc91 	b.w	23f7d70 <_ZN5Print7printlnIiLi0EEEjT_i.isra.0>
    err = Microphone_PDM::instance().start();
 23f844e:	f000 f9bd 	bl	23f87cc <_ZN14Microphone_PDM8instanceEv>
 23f8452:	6803      	ldr	r3, [r0, #0]
 23f8454:	695b      	ldr	r3, [r3, #20]
 23f8456:	4798      	blx	r3
    if (err != 0)
 23f8458:	4604      	mov	r4, r0
 23f845a:	b118      	cbz	r0, 23f8464 <setup+0x15c>
        Serial.print("ERROR: Microphone_PDM start failed: ");
 23f845c:	f000 ffb6 	bl	23f93cc <_Z16_fetch_usbserialv>
 23f8460:	4914      	ldr	r1, [pc, #80]	; (23f84b4 <setup+0x1ac>)
 23f8462:	e7ea      	b.n	23f843a <setup+0x132>
    Serial.println("Microphone started");
 23f8464:	f000 ffb2 	bl	23f93cc <_Z16_fetch_usbserialv>
 23f8468:	4913      	ldr	r1, [pc, #76]	; (23f84b8 <setup+0x1b0>)
 23f846a:	f000 fdec 	bl	23f9046 <_ZN5Print7printlnEPKc>
    Serial.println("Play a chord when it says Recording...");
 23f846e:	f000 ffad 	bl	23f93cc <_Z16_fetch_usbserialv>
 23f8472:	4912      	ldr	r1, [pc, #72]	; (23f84bc <setup+0x1b4>)
 23f8474:	e7cc      	b.n	23f8410 <setup+0x108>
 23f8476:	bf00      	nop
 23f8478:	00000000 	.word	0x00000000
 23f847c:	40bf4000 	.word	0x40bf4000
 23f8480:	023fcb8e 	.word	0x023fcb8e
 23f8484:	023fcc20 	.word	0x023fcc20
 23f8488:	023fcc3f 	.word	0x023fcc3f
 23f848c:	023fcc6f 	.word	0x023fcc6f
 23f8490:	023fcc9c 	.word	0x023fcc9c
 23f8494:	023fccde 	.word	0x023fccde
 23f8498:	023fccf5 	.word	0x023fccf5
 23f849c:	023fcd01 	.word	0x023fcd01
 23f84a0:	023fcd11 	.word	0x023fcd11
 23f84a4:	023fcd2a 	.word	0x023fcd2a
 23f84a8:	1006a9e0 	.word	0x1006a9e0
 23f84ac:	023fcd42 	.word	0x023fcd42
 23f84b0:	023fcd68 	.word	0x023fcd68
 23f84b4:	023fcd8c 	.word	0x023fcd8c
 23f84b8:	023fcdb1 	.word	0x023fcdb1
 23f84bc:	023fcdc4 	.word	0x023fcdc4

023f84c0 <loop>:


void loop()
{
 23f84c0:	e92d 4ff8 	stmdb	sp!, {r3, r4, r5, r6, r7, r8, r9, sl, fp, lr}
    Serial.println();
 23f84c4:	f000 ff82 	bl	23f93cc <_Z16_fetch_usbserialv>
 23f84c8:	f000 fdb1 	bl	23f902e <_ZN5Print7printlnEv>
    Serial.println("Recording...");
 23f84cc:	f000 ff7e 	bl	23f93cc <_Z16_fetch_usbserialv>
 23f84d0:	493a      	ldr	r1, [pc, #232]	; (23f85bc <loop+0xfc>)
 23f84d2:	f000 fdb8 	bl	23f9046 <_ZN5Print7printlnEPKc>
    Serial.print("Record time: ");
 23f84d6:	f000 ff79 	bl	23f93cc <_Z16_fetch_usbserialv>
 23f84da:	4939      	ldr	r1, [pc, #228]	; (23f85c0 <loop+0x100>)
 23f84dc:	f000 fda0 	bl	23f9020 <_ZN5Print5printEPKc>
    Serial.print(RECORD_MS);
 23f84e0:	f000 ff74 	bl	23f93cc <_Z16_fetch_usbserialv>
        return printNumber(val, base) + t;
 23f84e4:	220a      	movs	r2, #10
 23f84e6:	f44f 71fa 	mov.w	r1, #500	; 0x1f4
 23f84ea:	f000 fdb6 	bl	23f905a <_ZN5Print11printNumberEmh>
    Serial.println(" ms");
 23f84ee:	f000 ff6d 	bl	23f93cc <_Z16_fetch_usbserialv>
 23f84f2:	4934      	ldr	r1, [pc, #208]	; (23f85c4 <loop+0x104>)
 23f84f4:	f000 fda7 	bl	23f9046 <_ZN5Print7printlnEPKc>
    digitalWrite(LED_PIN, HIGH);
 23f84f8:	2101      	movs	r1, #1
 23f84fa:	2007      	movs	r0, #7
 23f84fc:	f001 f983 	bl	23f9806 <digitalWrite>
inline system_tick_t millis(void) { return HAL_Timer_Get_Milli_Seconds(); }
 23f8500:	f000 fa2c 	bl	23f895c <HAL_Timer_Get_Milli_Seconds>
    uint32_t written = 0;
 23f8504:	2400      	movs	r4, #0
 23f8506:	4605      	mov	r5, r0
                audio_buffer[written] = (double)pdm_chunk[i] / 2048.0;
 23f8508:	f04f 0a00 	mov.w	sl, #0
 23f850c:	f04f 5b7d 	mov.w	fp, #1061158912	; 0x3f400000
        if (Microphone_PDM::instance().copySamples(pdm_chunk))
 23f8510:	f8df 80b8 	ldr.w	r8, [pc, #184]	; 23f85cc <loop+0x10c>
        Microphone_PDM::instance().loop();
 23f8514:	f000 f95a 	bl	23f87cc <_ZN14Microphone_PDM8instanceEv>
 23f8518:	f000 f968 	bl	23f87ec <_ZN14Microphone_PDM4loopEv>
        if (Microphone_PDM::instance().copySamples(pdm_chunk))
 23f851c:	f000 f956 	bl	23f87cc <_ZN14Microphone_PDM8instanceEv>
 23f8520:	6803      	ldr	r3, [r0, #0]
 23f8522:	4641      	mov	r1, r8
 23f8524:	6a1b      	ldr	r3, [r3, #32]
 23f8526:	4798      	blx	r3
 23f8528:	b1b8      	cbz	r0, 23f855a <loop+0x9a>
            size_t n = Microphone_PDM::instance().getNumberOfSamples();
 23f852a:	f000 f94f 	bl	23f87cc <_ZN14Microphone_PDM8instanceEv>
            for (size_t i = 0; i < n && written < AUDIO_SAMPLES; i++)
 23f852e:	4b26      	ldr	r3, [pc, #152]	; (23f85c8 <loop+0x108>)
 23f8530:	4f26      	ldr	r7, [pc, #152]	; (23f85cc <loop+0x10c>)
 23f8532:	eb03 06c4 	add.w	r6, r3, r4, lsl #3
 23f8536:	f504 7980 	add.w	r9, r4, #256	; 0x100
 23f853a:	f5b4 6f7a 	cmp.w	r4, #4000	; 0xfa0
 23f853e:	d20c      	bcs.n	23f855a <loop+0x9a>
                audio_buffer[written] = (double)pdm_chunk[i] / 2048.0;
 23f8540:	f937 0b02 	ldrsh.w	r0, [r7], #2
 23f8544:	f7fd fefa 	bl	23f633c <__aeabi_i2d>
 23f8548:	4652      	mov	r2, sl
 23f854a:	465b      	mov	r3, fp
 23f854c:	f7fd ff60 	bl	23f6410 <__aeabi_dmul>
                written++;
 23f8550:	3401      	adds	r4, #1
            for (size_t i = 0; i < n && written < AUDIO_SAMPLES; i++)
 23f8552:	454c      	cmp	r4, r9
                audio_buffer[written] = (double)pdm_chunk[i] / 2048.0;
 23f8554:	e8e6 0102 	strd	r0, r1, [r6], #8
            for (size_t i = 0; i < n && written < AUDIO_SAMPLES; i++)
 23f8558:	d1ef      	bne.n	23f853a <loop+0x7a>
 23f855a:	f000 f9ff 	bl	23f895c <HAL_Timer_Get_Milli_Seconds>
        if (millis() - start_ms > (RECORD_MS + 2000u))
 23f855e:	f640 13c4 	movw	r3, #2500	; 0x9c4
 23f8562:	1b40      	subs	r0, r0, r5
 23f8564:	4298      	cmp	r0, r3
 23f8566:	d913      	bls.n	23f8590 <loop+0xd0>
            Serial.println("ERROR: recording timeout");
 23f8568:	f000 ff30 	bl	23f93cc <_Z16_fetch_usbserialv>
 23f856c:	4918      	ldr	r1, [pc, #96]	; (23f85d0 <loop+0x110>)
 23f856e:	f000 fd6a 	bl	23f9046 <_ZN5Print7printlnEPKc>
            digitalWrite(LED_PIN, LOW);
 23f8572:	2100      	movs	r1, #0
 23f8574:	2007      	movs	r0, #7
 23f8576:	f001 f946 	bl	23f9806 <digitalWrite>
    if (capture_audio_block())
    {
        classify_audio();
    }

    Serial.println("Waiting before next recording...");
 23f857a:	f000 ff27 	bl	23f93cc <_Z16_fetch_usbserialv>
 23f857e:	4915      	ldr	r1, [pc, #84]	; (23f85d4 <loop+0x114>)
 23f8580:	f000 fd61 	bl	23f9046 <_ZN5Print7printlnEPKc>
    delay(2500);
 23f8584:	e8bd 4ff8 	ldmia.w	sp!, {r3, r4, r5, r6, r7, r8, r9, sl, fp, lr}
    delay(2500);
 23f8588:	f640 10c4 	movw	r0, #2500	; 0x9c4
 23f858c:	f000 bd96 	b.w	23f90bc <delay>
    while (written < AUDIO_SAMPLES)
 23f8590:	f5b4 6f7a 	cmp.w	r4, #4000	; 0xfa0
 23f8594:	d3be      	bcc.n	23f8514 <loop+0x54>
    digitalWrite(LED_PIN, LOW);
 23f8596:	2100      	movs	r1, #0
 23f8598:	2007      	movs	r0, #7
 23f859a:	f001 f934 	bl	23f9806 <digitalWrite>
    Serial.print("Recorded samples: ");
 23f859e:	f000 ff15 	bl	23f93cc <_Z16_fetch_usbserialv>
 23f85a2:	490d      	ldr	r1, [pc, #52]	; (23f85d8 <loop+0x118>)
 23f85a4:	f000 fd3c 	bl	23f9020 <_ZN5Print5printEPKc>
    Serial.println((int)written);
 23f85a8:	f000 ff10 	bl	23f93cc <_Z16_fetch_usbserialv>
 23f85ac:	220a      	movs	r2, #10
 23f85ae:	4621      	mov	r1, r4
 23f85b0:	f7ff fbde 	bl	23f7d70 <_ZN5Print7printlnIiLi0EEEjT_i.isra.0>
        classify_audio();
 23f85b4:	f7ff fcac 	bl	23f7f10 <_ZL14classify_audiov>
 23f85b8:	e7df      	b.n	23f857a <loop+0xba>
 23f85ba:	bf00      	nop
 23f85bc:	023fcdde 	.word	0x023fcdde
 23f85c0:	023fcdeb 	.word	0x023fcdeb
 23f85c4:	023fcdf9 	.word	0x023fcdf9
 23f85c8:	10062370 	.word	0x10062370
 23f85cc:	1007aa70 	.word	0x1007aa70
 23f85d0:	023fcdfd 	.word	0x023fcdfd
 23f85d4:	023fce29 	.word	0x023fce29
 23f85d8:	023fce16 	.word	0x023fce16

023f85dc <_GLOBAL__sub_I__Z9eml_isqrtl>:

class SystemSleepResult {
public:
    SystemSleepResult()
            : wakeupSource_(nullptr),
              error_(SYSTEM_ERROR_NONE) {
 23f85dc:	2200      	movs	r2, #0
 23f85de:	4b04      	ldr	r3, [pc, #16]	; (23f85f0 <_GLOBAL__sub_I__Z9eml_isqrtl+0x14>)

class SystemClass {
public:

    SystemClass(System_Mode_TypeDef mode = DEFAULT) {
        set_system_mode(mode);
 23f85e0:	2003      	movs	r0, #3
              error_(SYSTEM_ERROR_NONE) {
 23f85e2:	e9c3 2200 	strd	r2, r2, [r3]
    SleepResult() {}
 23f85e6:	f5a2 3280 	sub.w	r2, r2, #65536	; 0x10000
 23f85ea:	609a      	str	r2, [r3, #8]
        set_system_mode(mode);
 23f85ec:	f000 bb30 	b.w	23f8c50 <set_system_mode>
 23f85f0:	10062340 	.word	0x10062340

023f85f4 <_ZNK19Microphone_PDM_Base16copySrcIncrementEv>:
	virtual size_t copySrcIncrement() const { return 1; };
 23f85f4:	2001      	movs	r0, #1
 23f85f6:	4770      	bx	lr

023f85f8 <_ZN22Microphone_PDM_RTL872x6uninitEv>:
	 * You normally will just initialize it once and only start and stop it as necessary, however
	 * you can completely uninitialize it if desired. The clkPin will be reset to INPUT mode.
	 */
	virtual int uninit() {
        return SYSTEM_ERROR_NOT_SUPPORTED;
    }
 23f85f8:	f06f 0077 	mvn.w	r0, #119	; 0x77
 23f85fc:	4770      	bx	lr

023f85fe <_ZN22Microphone_PDM_RTL872xD1Ev>:

}

Microphone_PDM_RTL872x::~Microphone_PDM_RTL872x() {

}
 23f85fe:	4770      	bx	lr

023f8600 <_ZN22Microphone_PDM_RTL872x4stopEv>:
    running = true;
    return 0;
}

int Microphone_PDM_RTL872x::stop() {
    running = false;
 23f8600:	2300      	movs	r3, #0
 23f8602:	7703      	strb	r3, [r0, #28]
    return 0;
}
 23f8604:	4618      	mov	r0, r3
 23f8606:	4770      	bx	lr

023f8608 <_ZN22Microphone_PDM_RTL872xD0Ev>:
Microphone_PDM_RTL872x::~Microphone_PDM_RTL872x() {
 23f8608:	b510      	push	{r4, lr}
 23f860a:	4604      	mov	r4, r0
}
 23f860c:	2120      	movs	r1, #32
 23f860e:	f7fe fa50 	bl	23f6ab2 <_ZdlPvj>
 23f8612:	4620      	mov	r0, r4
 23f8614:	bd10      	pop	{r4, pc}

023f8616 <_ZN22Microphone_PDM_RTL872x4initEv>:
int Microphone_PDM_RTL872x::init() {
 23f8616:	b508      	push	{r3, lr}
    switch(sampleRate) {
 23f8618:	68c3      	ldr	r3, [r0, #12]
 23f861a:	f5b3 5f7a 	cmp.w	r3, #16000	; 0x3e80
 23f861e:	d008      	beq.n	23f8632 <_ZN22Microphone_PDM_RTL872x4initEv+0x1c>
 23f8620:	f5b3 4ffa 	cmp.w	r3, #32000	; 0x7d00
 23f8624:	d005      	beq.n	23f8632 <_ZN22Microphone_PDM_RTL872x4initEv+0x1c>
 23f8626:	f5b3 5ffa 	cmp.w	r3, #8000	; 0x1f40
            sampleRate = 16000;
 23f862a:	bf1c      	itt	ne
 23f862c:	f44f 537a 	movne.w	r3, #16000	; 0x3e80
 23f8630:	60c3      	strne	r3, [r0, #12]
    dmic_setup(sampleRate, stereoMode);
 23f8632:	7a01      	ldrb	r1, [r0, #8]
 23f8634:	68c0      	ldr	r0, [r0, #12]
 23f8636:	f7fe ffcb 	bl	23f75d0 <dmic_setup>
}
 23f863a:	2000      	movs	r0, #0
 23f863c:	bd08      	pop	{r3, pc}

023f863e <_ZN22Microphone_PDM_RTL872x5startEv>:
int Microphone_PDM_RTL872x::start() {
 23f863e:	b510      	push	{r4, lr}
 23f8640:	4604      	mov	r4, r0
    dmic_flush();
 23f8642:	f7ff f85f 	bl	23f7704 <dmic_flush>
    running = true;
 23f8646:	2301      	movs	r3, #1
}
 23f8648:	2000      	movs	r0, #0
    running = true;
 23f864a:	7723      	strb	r3, [r4, #28]
}
 23f864c:	bd10      	pop	{r4, pc}

023f864e <_ZNK22Microphone_PDM_RTL872x16samplesAvailableEv>:
 


bool Microphone_PDM_RTL872x::samplesAvailable() const {
 23f864e:	b508      	push	{r3, lr}
    if (!running) {
 23f8650:	7f00      	ldrb	r0, [r0, #28]
 23f8652:	b120      	cbz	r0, 23f865e <_ZNK22Microphone_PDM_RTL872x16samplesAvailableEv+0x10>
        return false;
    }

	return (dmic_ready() != NULL);
 23f8654:	f7ff f860 	bl	23f7718 <dmic_ready>
 23f8658:	3800      	subs	r0, #0
 23f865a:	bf18      	it	ne
 23f865c:	2001      	movne	r0, #1
}
 23f865e:	bd08      	pop	{r3, pc}

023f8660 <_ZN22Microphone_PDM_RTL872x11copySamplesEPv>:

bool Microphone_PDM_RTL872x::copySamples(void*pSamples) {
 23f8660:	b537      	push	{r0, r1, r2, r4, r5, lr}
    if (!running) {
 23f8662:	7f05      	ldrb	r5, [r0, #28]
bool Microphone_PDM_RTL872x::copySamples(void*pSamples) {
 23f8664:	4604      	mov	r4, r0
    if (!running) {
 23f8666:	b91d      	cbnz	r5, 23f8670 <_ZN22Microphone_PDM_RTL872x11copySamplesEPv+0x10>
        return false;
 23f8668:	2500      	movs	r5, #0
		return true;
	}
	else {
		return false;
	}
}
 23f866a:	4628      	mov	r0, r5
 23f866c:	b003      	add	sp, #12
 23f866e:	bd30      	pop	{r4, r5, pc}
 23f8670:	9101      	str	r1, [sp, #4]
    int16_t *src = (int16_t *)dmic_ready();
 23f8672:	f7ff f851 	bl	23f7718 <dmic_ready>
	if (src) {
 23f8676:	4601      	mov	r1, r0
 23f8678:	2800      	cmp	r0, #0
 23f867a:	d0f5      	beq.n	23f8668 <_ZN22Microphone_PDM_RTL872x11copySamplesEPv+0x8>
		copySamplesInternal(src, (uint8_t *)pSamples);
 23f867c:	4620      	mov	r0, r4
 23f867e:	9a01      	ldr	r2, [sp, #4]
 23f8680:	f000 f8ba 	bl	23f87f8 <_ZNK19Microphone_PDM_Base19copySamplesInternalEPKsPh>
        dmic_read(NULL, 0);
 23f8684:	2100      	movs	r1, #0
 23f8686:	4608      	mov	r0, r1
 23f8688:	f7ff f848 	bl	23f771c <dmic_read>
		return true;
 23f868c:	e7ed      	b.n	23f866a <_ZN22Microphone_PDM_RTL872x11copySamplesEPv+0xa>

023f868e <_ZN22Microphone_PDM_RTL872x13noCopySamplesESt8functionIFvPvjEE>:

bool Microphone_PDM_RTL872x::noCopySamples(std::function<void(void *pSamples, size_t numSamples)>callback) {
 23f868e:	b5f7      	push	{r0, r1, r2, r4, r5, r6, r7, lr}
    if (!running) {
 23f8690:	7f07      	ldrb	r7, [r0, #28]
bool Microphone_PDM_RTL872x::noCopySamples(std::function<void(void *pSamples, size_t numSamples)>callback) {
 23f8692:	4606      	mov	r6, r0
 23f8694:	460d      	mov	r5, r1
    if (!running) {
 23f8696:	b91f      	cbnz	r7, 23f86a0 <_ZN22Microphone_PDM_RTL872x13noCopySamplesESt8functionIFvPvjEE+0x12>
        return false;
 23f8698:	2700      	movs	r7, #0
		return true;
	}
	else {
		return false;
	}
}
 23f869a:	4638      	mov	r0, r7
 23f869c:	b003      	add	sp, #12
 23f869e:	bdf0      	pop	{r4, r5, r6, r7, pc}
    int16_t *src = (int16_t *)dmic_ready();
 23f86a0:	f7ff f83a 	bl	23f7718 <dmic_ready>
	if (src) {
 23f86a4:	4604      	mov	r4, r0
 23f86a6:	2800      	cmp	r0, #0
 23f86a8:	d0f6      	beq.n	23f8698 <_ZN22Microphone_PDM_RTL872x13noCopySamplesESt8functionIFvPvjEE+0xa>
		copySamplesInternal(src, (uint8_t *)src);
 23f86aa:	4602      	mov	r2, r0
 23f86ac:	4601      	mov	r1, r0
 23f86ae:	4630      	mov	r0, r6
 23f86b0:	f000 f8a2 	bl	23f87f8 <_ZNK19Microphone_PDM_Base19copySamplesInternalEPKsPh>
		callback(src, BUFFER_SIZE_SAMPLES);
 23f86b4:	f44f 7380 	mov.w	r3, #256	; 0x100
 23f86b8:	9301      	str	r3, [sp, #4]
  template<typename _Res, typename... _ArgTypes>
    _Res
    function<_Res(_ArgTypes...)>::
    operator()(_ArgTypes... __args) const
    {
      if (_M_empty())
 23f86ba:	68ab      	ldr	r3, [r5, #8]
 23f86bc:	9400      	str	r4, [sp, #0]
 23f86be:	b90b      	cbnz	r3, 23f86c4 <_ZN22Microphone_PDM_RTL872x13noCopySamplesESt8functionIFvPvjEE+0x36>
	__throw_bad_function_call();
 23f86c0:	f001 fb5a 	bl	23f9d78 <_ZSt25__throw_bad_function_callv>
      return _M_invoker(_M_functor, std::forward<_ArgTypes>(__args)...);
 23f86c4:	4669      	mov	r1, sp
 23f86c6:	4628      	mov	r0, r5
 23f86c8:	68eb      	ldr	r3, [r5, #12]
 23f86ca:	aa01      	add	r2, sp, #4
 23f86cc:	4798      	blx	r3
        dmic_read(NULL, 0);
 23f86ce:	2100      	movs	r1, #0
 23f86d0:	4608      	mov	r0, r1
 23f86d2:	f7ff f823 	bl	23f771c <dmic_read>
		return true;
 23f86d6:	e7e0      	b.n	23f869a <_ZN22Microphone_PDM_RTL872x13noCopySamplesESt8functionIFvPvjEE+0xc>

023f86d8 <_ZN22Microphone_PDM_RTL872xC1Ev>:
	Microphone_PDM_Base(size_t numSamples) : numSamples(numSamples) {};
 23f86d8:	f04f 0c01 	mov.w	ip, #1
 23f86dc:	2104      	movs	r1, #4
 23f86de:	4a06      	ldr	r2, [pc, #24]	; (23f86f8 <_ZN22Microphone_PDM_RTL872xC1Ev+0x20>)
 23f86e0:	e9c0 c104 	strd	ip, r1, [r0, #16]
 23f86e4:	f44f 7180 	mov.w	r1, #256	; 0x100
 23f86e8:	6042      	str	r2, [r0, #4]
 23f86ea:	2200      	movs	r2, #0
 23f86ec:	6181      	str	r1, [r0, #24]
Microphone_PDM_RTL872x::Microphone_PDM_RTL872x() : Microphone_PDM_Base(BUFFER_SIZE_SAMPLES) {
 23f86ee:	4903      	ldr	r1, [pc, #12]	; (23f86fc <_ZN22Microphone_PDM_RTL872xC1Ev+0x24>)
 23f86f0:	7202      	strb	r2, [r0, #8]
 23f86f2:	6001      	str	r1, [r0, #0]
 23f86f4:	7702      	strb	r2, [r0, #28]
}
 23f86f6:	4770      	bx	lr
 23f86f8:	000c000b 	.word	0x000c000b
 23f86fc:	023ffafc 	.word	0x023ffafc

023f8700 <_ZN14Microphone_PDM6uninitEv>:
	 * Releases the resources used by the PDM module, though the 2K RAM buffer is statically 
	 * allocated on the heap and is not freed.
	 */
	int uninit() {
		return Microphone_PDM_MCU::uninit();
	}
 23f8700:	f06f 0077 	mvn.w	r0, #119	; 0x77
 23f8704:	4770      	bx	lr

023f8706 <_ZN14Microphone_PDM4initEv>:
		return Microphone_PDM_MCU::init();
 23f8706:	f7ff bf86 	b.w	23f8616 <_ZN22Microphone_PDM_RTL872x4initEv>

023f870a <_ZN14Microphone_PDM5startEv>:

	/**
	 * @brief Start sampling
	 */
	int start() {
		return Microphone_PDM_MCU::start();
 23f870a:	f7ff bf98 	b.w	23f863e <_ZN22Microphone_PDM_RTL872x5startEv>

023f870e <_ZN14Microphone_PDM4stopEv>:
	 * On the RTL872x (P2, Photon 2), it's not actually possible to stop sampling once you
	 * start it. Calling stop() will discard the data and samplesAvailable(), copySamples(),
	 * etc. will behave as if the DMA had been stopped.
	 */
	int stop() {
		return Microphone_PDM_MCU::stop();
 23f870e:	f7ff bf77 	b.w	23f8600 <_ZN22Microphone_PDM_RTL872x4stopEv>

023f8712 <_ZNK14Microphone_PDM16samplesAvailableEv>:
	 * 
	 * @return true 
	 * @return false 
	 */
	bool samplesAvailable() const {
		return Microphone_PDM_MCU::samplesAvailable();
 23f8712:	f7ff bf9c 	b.w	23f864e <_ZNK22Microphone_PDM_RTL872x16samplesAvailableEv>

023f8716 <_ZN14Microphone_PDM11copySamplesEPv>:
	 * 
	 * You can skip calling samplesAvailable() and just call copySamples which will return false in the same cases
	 * where samplesAvailable() would have returned false.
	 */
	bool copySamples(void*pSamples) {
		return Microphone_PDM_MCU::copySamples(pSamples);
 23f8716:	f7ff bfa3 	b.w	23f8660 <_ZN22Microphone_PDM_RTL872x11copySamplesEPv>
	...

023f871c <_ZN18Microphone_PDM_MCUD1Ev>:
 * @brief Microphone_PDM_MCU is an alias for the MCU-specific class like Microphone_PDM_RTL872x
 * 
 * This class exists so the subclass Microphone_PDM can just reference Microphone_PDM_MCU
 * as its superclass regardless of which class is actually used.
 */
class Microphone_PDM_MCU : public Microphone_PDM_RTL872x {
 23f871c:	b510      	push	{r4, lr}
 23f871e:	4604      	mov	r4, r0
 23f8720:	4b02      	ldr	r3, [pc, #8]	; (23f872c <_ZN18Microphone_PDM_MCUD1Ev+0x10>)
 23f8722:	6003      	str	r3, [r0, #0]
 23f8724:	f7ff ff6b 	bl	23f85fe <_ZN22Microphone_PDM_RTL872xD1Ev>
 23f8728:	4620      	mov	r0, r4
 23f872a:	bd10      	pop	{r4, pc}
 23f872c:	023ffb2c 	.word	0x023ffb2c

023f8730 <_ZN18Microphone_PDM_MCUD0Ev>:
 23f8730:	b510      	push	{r4, lr}
 23f8732:	4604      	mov	r4, r0
 23f8734:	f7ff fff2 	bl	23f871c <_ZN18Microphone_PDM_MCUD1Ev>
 23f8738:	4620      	mov	r0, r4
 23f873a:	2120      	movs	r1, #32
 23f873c:	f7fe f9b9 	bl	23f6ab2 <_ZdlPvj>
 23f8740:	4620      	mov	r0, r4
 23f8742:	bd10      	pop	{r4, pc}

023f8744 <_ZN14Microphone_PDMD1Ev>:
Microphone_PDM *Microphone_PDM::_instance = NULL;

Microphone_PDM::Microphone_PDM() {
}

Microphone_PDM::~Microphone_PDM() {
 23f8744:	b510      	push	{r4, lr}
 23f8746:	4604      	mov	r4, r0
 23f8748:	4b02      	ldr	r3, [pc, #8]	; (23f8754 <_ZN14Microphone_PDMD1Ev+0x10>)
 23f874a:	6003      	str	r3, [r0, #0]
 23f874c:	f7ff ffe6 	bl	23f871c <_ZN18Microphone_PDM_MCUD1Ev>

}
 23f8750:	4620      	mov	r0, r4
 23f8752:	bd10      	pop	{r4, pc}
 23f8754:	023ffb5c 	.word	0x023ffb5c

023f8758 <_ZN14Microphone_PDMD0Ev>:
Microphone_PDM::~Microphone_PDM() {
 23f8758:	b510      	push	{r4, lr}
 23f875a:	4604      	mov	r4, r0
}
 23f875c:	f7ff fff2 	bl	23f8744 <_ZN14Microphone_PDMD1Ev>
 23f8760:	4620      	mov	r0, r4
 23f8762:	2124      	movs	r1, #36	; 0x24
 23f8764:	f7fe f9a5 	bl	23f6ab2 <_ZdlPvj>
 23f8768:	4620      	mov	r0, r4
 23f876a:	bd10      	pop	{r4, pc}

023f876c <_ZNSt14_Function_baseD1Ev>:
    ~_Function_base()
 23f876c:	b510      	push	{r4, lr}
      if (_M_manager)
 23f876e:	6883      	ldr	r3, [r0, #8]
    ~_Function_base()
 23f8770:	4604      	mov	r4, r0
      if (_M_manager)
 23f8772:	b113      	cbz	r3, 23f877a <_ZNSt14_Function_baseD1Ev+0xe>
	_M_manager(_M_functor, _M_functor, __destroy_functor);
 23f8774:	2203      	movs	r2, #3
 23f8776:	4601      	mov	r1, r0
 23f8778:	4798      	blx	r3
    }
 23f877a:	4620      	mov	r0, r4
 23f877c:	bd10      	pop	{r4, pc}

023f877e <_ZN14Microphone_PDM13noCopySamplesESt8functionIFvPvjEE>:
    _Function_base() : _M_manager(nullptr) { }
 23f877e:	2300      	movs	r3, #0
	 * of data. The number of bytes will vary depending on the outputSize. 
	 * 
	 * You can skip calling samplesAvailable() and just call noCopySamples which will return false in the same cases
	 * where samplesAvailable() would have returned false.
	 */
	bool noCopySamples(std::function<void(void *pSamples, size_t numSamples)>callback) {
 23f8780:	b530      	push	{r4, r5, lr}
 23f8782:	b085      	sub	sp, #20
 23f8784:	9302      	str	r3, [sp, #8]
    bool _M_empty() const { return !_M_manager; }
 23f8786:	688b      	ldr	r3, [r1, #8]
 23f8788:	4605      	mov	r5, r0
 23f878a:	460c      	mov	r4, r1
      if (static_cast<bool>(__x))
 23f878c:	b133      	cbz	r3, 23f879c <_ZN14Microphone_PDM13noCopySamplesESt8functionIFvPvjEE+0x1e>
	  __x._M_manager(_M_functor, __x._M_functor, __clone_functor);
 23f878e:	2202      	movs	r2, #2
 23f8790:	4668      	mov	r0, sp
 23f8792:	4798      	blx	r3
	  _M_invoker = __x._M_invoker;
 23f8794:	68e3      	ldr	r3, [r4, #12]
 23f8796:	9303      	str	r3, [sp, #12]
	  _M_manager = __x._M_manager;
 23f8798:	68a3      	ldr	r3, [r4, #8]
 23f879a:	9302      	str	r3, [sp, #8]
		return Microphone_PDM_MCU::noCopySamples(callback);
 23f879c:	4669      	mov	r1, sp
 23f879e:	4628      	mov	r0, r5
 23f87a0:	f7ff ff75 	bl	23f868e <_ZN22Microphone_PDM_RTL872x13noCopySamplesESt8functionIFvPvjEE>
 23f87a4:	4604      	mov	r4, r0
    class function<_Res(_ArgTypes...)>
 23f87a6:	4668      	mov	r0, sp
 23f87a8:	f7ff ffe0 	bl	23f876c <_ZNSt14_Function_baseD1Ev>
	}
 23f87ac:	4620      	mov	r0, r4
 23f87ae:	b005      	add	sp, #20
 23f87b0:	bd30      	pop	{r4, r5, pc}
	...

023f87b4 <_ZN14Microphone_PDMC1Ev>:
Microphone_PDM::Microphone_PDM() {
 23f87b4:	b510      	push	{r4, lr}
 23f87b6:	4604      	mov	r4, r0
 23f87b8:	f7ff ff8e 	bl	23f86d8 <_ZN22Microphone_PDM_RTL872xC1Ev>
 23f87bc:	4b02      	ldr	r3, [pc, #8]	; (23f87c8 <_ZN14Microphone_PDMC1Ev+0x14>)
}
 23f87be:	4620      	mov	r0, r4
Microphone_PDM::Microphone_PDM() {
 23f87c0:	6023      	str	r3, [r4, #0]
 23f87c2:	2300      	movs	r3, #0
 23f87c4:	6223      	str	r3, [r4, #32]
}
 23f87c6:	bd10      	pop	{r4, pc}
 23f87c8:	023ffb5c 	.word	0x023ffb5c

023f87cc <_ZN14Microphone_PDM8instanceEv>:

// [static] 
Microphone_PDM &Microphone_PDM::instance() {
 23f87cc:	b538      	push	{r3, r4, r5, lr}
	if (!_instance) {
 23f87ce:	4d06      	ldr	r5, [pc, #24]	; (23f87e8 <_ZN14Microphone_PDM8instanceEv+0x1c>)
 23f87d0:	682b      	ldr	r3, [r5, #0]
 23f87d2:	b93b      	cbnz	r3, 23f87e4 <_ZN14Microphone_PDM8instanceEv+0x18>
		_instance = new Microphone_PDM();
 23f87d4:	2024      	movs	r0, #36	; 0x24
 23f87d6:	f7fe f968 	bl	23f6aaa <_Znwj>
 23f87da:	4604      	mov	r4, r0
 23f87dc:	b108      	cbz	r0, 23f87e2 <_ZN14Microphone_PDM8instanceEv+0x16>
 23f87de:	f7ff ffe9 	bl	23f87b4 <_ZN14Microphone_PDMC1Ev>
 23f87e2:	602c      	str	r4, [r5, #0]
	}
	return *_instance;
}
 23f87e4:	6828      	ldr	r0, [r5, #0]
 23f87e6:	bd38      	pop	{r3, r4, r5, pc}
 23f87e8:	1007ae88 	.word	0x1007ae88

023f87ec <_ZN14Microphone_PDM4loopEv>:
#endif



void Microphone_PDM::loop() {
	if (sampling) {
 23f87ec:	6a00      	ldr	r0, [r0, #32]
 23f87ee:	b110      	cbz	r0, 23f87f6 <_ZN14Microphone_PDM4loopEv+0xa>
		sampling->loop();
 23f87f0:	6803      	ldr	r3, [r0, #0]
 23f87f2:	68db      	ldr	r3, [r3, #12]
 23f87f4:	4718      	bx	r3
	}

}
 23f87f6:	4770      	bx	lr

023f87f8 <_ZNK19Microphone_PDM_Base19copySamplesInternalEPKsPh>:
			return 2;
	}
}


void Microphone_PDM_Base::copySamplesInternal(const int16_t *src, uint8_t *dst) const {
 23f87f8:	b5f8      	push	{r3, r4, r5, r6, r7, lr}
 23f87fa:	4607      	mov	r7, r0
	const int16_t *srcEnd = &src[numSamples];

	size_t increment = copySrcIncrement();
 23f87fc:	6803      	ldr	r3, [r0, #0]
	const int16_t *srcEnd = &src[numSamples];
 23f87fe:	6986      	ldr	r6, [r0, #24]
	size_t increment = copySrcIncrement();
 23f8800:	689b      	ldr	r3, [r3, #8]
void Microphone_PDM_Base::copySamplesInternal(const int16_t *src, uint8_t *dst) const {
 23f8802:	460c      	mov	r4, r1
 23f8804:	4615      	mov	r5, r2
	const int16_t *srcEnd = &src[numSamples];
 23f8806:	eb01 0646 	add.w	r6, r1, r6, lsl #1
	size_t increment = copySrcIncrement();
 23f880a:	4798      	blx	r3

	if (outputSize == OutputSize::UNSIGNED_8) {
 23f880c:	693b      	ldr	r3, [r7, #16]
 23f880e:	b9c3      	cbnz	r3, 23f8842 <_ZNK19Microphone_PDM_Base19copySamplesInternalEPKsPh+0x4a>

		// Scale the 16-bit signed values to an appropriate range for unsigned 8-bit values
		int16_t div = (int16_t)(1 << (size_t) range);
 23f8810:	2201      	movs	r2, #1
			if (val > 127) {
				val = 127;
			}

			// Add 128 to make unsigned 8-bit (offset)
			*((uint8_t *)dst) = (uint8_t) (val + 128);
 23f8812:	f06f 017f 	mvn.w	r1, #127	; 0x7f
		int16_t div = (int16_t)(1 << (size_t) range);
 23f8816:	697b      	ldr	r3, [r7, #20]
			src += increment;
 23f8818:	0040      	lsls	r0, r0, #1
		int16_t div = (int16_t)(1 << (size_t) range);
 23f881a:	409a      	lsls	r2, r3
 23f881c:	b212      	sxth	r2, r2
		while(src < srcEnd) {
 23f881e:	42b4      	cmp	r4, r6
 23f8820:	d236      	bcs.n	23f8890 <_ZNK19Microphone_PDM_Base19copySamplesInternalEPKsPh+0x98>
			int16_t val = *src / div;
 23f8822:	f9b4 3000 	ldrsh.w	r3, [r4]
			src += increment;
 23f8826:	4404      	add	r4, r0
			int16_t val = *src / div;
 23f8828:	fb93 f3f2 	sdiv	r3, r3, r2
 23f882c:	b21b      	sxth	r3, r3
			if (val < -128) {
 23f882e:	2b7f      	cmp	r3, #127	; 0x7f
 23f8830:	bfa8      	it	ge
 23f8832:	237f      	movge	r3, #127	; 0x7f
			*((uint8_t *)dst) = (uint8_t) (val + 128);
 23f8834:	428b      	cmp	r3, r1
 23f8836:	bfb8      	it	lt
 23f8838:	460b      	movlt	r3, r1
 23f883a:	3b80      	subs	r3, #128	; 0x80
 23f883c:	f805 3b01 	strb.w	r3, [r5], #1
		while(src < srcEnd) {
 23f8840:	e7ed      	b.n	23f881e <_ZNK19Microphone_PDM_Base19copySamplesInternalEPKsPh+0x26>
			dst += sizeof(uint8_t);
		}

	}
	else if (outputSize == OutputSize::SIGNED_16) {		
 23f8842:	2b01      	cmp	r3, #1
 23f8844:	d117      	bne.n	23f8876 <_ZNK19Microphone_PDM_Base19copySamplesInternalEPKsPh+0x7e>
		int32_t mult = (int32_t)(1 << (8 - (size_t) range));
 23f8846:	697a      	ldr	r2, [r7, #20]
			// Clip to signed 16-bit
			if (val < -32767) {
				val = -32767;
			}
			if (val > 32768) {
				val = 32868;
 23f8848:	f248 0764 	movw	r7, #32868	; 0x8064
			if (val < -32767) {
 23f884c:	4911      	ldr	r1, [pc, #68]	; (23f8894 <_ZNK19Microphone_PDM_Base19copySamplesInternalEPKsPh+0x9c>)
		int32_t mult = (int32_t)(1 << (8 - (size_t) range));
 23f884e:	f1c2 0208 	rsb	r2, r2, #8
			src += increment;
 23f8852:	0040      	lsls	r0, r0, #1
		while(src < srcEnd) {
 23f8854:	42b4      	cmp	r4, r6
 23f8856:	d21b      	bcs.n	23f8890 <_ZNK19Microphone_PDM_Base19copySamplesInternalEPKsPh+0x98>
			int32_t val = (int32_t)*src * mult;
 23f8858:	f9b4 3000 	ldrsh.w	r3, [r4]
			src += increment;
 23f885c:	4404      	add	r4, r0
			int32_t val = (int32_t)*src * mult;
 23f885e:	4093      	lsls	r3, r2
			if (val < -32767) {
 23f8860:	428b      	cmp	r3, r1
 23f8862:	db06      	blt.n	23f8872 <_ZNK19Microphone_PDM_Base19copySamplesInternalEPKsPh+0x7a>
				val = 32868;
 23f8864:	f5b3 4f00 	cmp.w	r3, #32768	; 0x8000
 23f8868:	bfc8      	it	gt
 23f886a:	463b      	movgt	r3, r7
			}

			*((int16_t *)dst) = (int16_t) val;
 23f886c:	f825 3b02 	strh.w	r3, [r5], #2
		while(src < srcEnd) {
 23f8870:	e7f0      	b.n	23f8854 <_ZNK19Microphone_PDM_Base19copySamplesInternalEPKsPh+0x5c>
				val = -32767;
 23f8872:	4b08      	ldr	r3, [pc, #32]	; (23f8894 <_ZNK19Microphone_PDM_Base19copySamplesInternalEPKsPh+0x9c>)
 23f8874:	e7fa      	b.n	23f886c <_ZNK19Microphone_PDM_Base19copySamplesInternalEPKsPh+0x74>
			dst += sizeof(uint16_t);
		}
	}
	else {
		// OutputSize::RAW_SIGNED_16
		if (src != (int16_t *)dst || increment != 1) {
 23f8876:	42ac      	cmp	r4, r5
 23f8878:	d101      	bne.n	23f887e <_ZNK19Microphone_PDM_Base19copySamplesInternalEPKsPh+0x86>
 23f887a:	2801      	cmp	r0, #1
 23f887c:	d008      	beq.n	23f8890 <_ZNK19Microphone_PDM_Base19copySamplesInternalEPKsPh+0x98>
			while(src < srcEnd) {
				*((int16_t *)dst) = *src;
				dst += sizeof(int16_t);
				src += increment;
 23f887e:	0040      	lsls	r0, r0, #1
			while(src < srcEnd) {
 23f8880:	42b4      	cmp	r4, r6
 23f8882:	d205      	bcs.n	23f8890 <_ZNK19Microphone_PDM_Base19copySamplesInternalEPKsPh+0x98>
				*((int16_t *)dst) = *src;
 23f8884:	f9b4 3000 	ldrsh.w	r3, [r4]
				src += increment;
 23f8888:	4404      	add	r4, r0
				*((int16_t *)dst) = *src;
 23f888a:	f825 3b02 	strh.w	r3, [r5], #2
			while(src < srcEnd) {
 23f888e:	e7f7      	b.n	23f8880 <_ZNK19Microphone_PDM_Base19copySamplesInternalEPKsPh+0x88>
			}
		}
	}
}
 23f8890:	bdf8      	pop	{r3, r4, r5, r6, r7, pc}
 23f8892:	bf00      	nop
 23f8894:	ffff8001 	.word	0xffff8001

023f8898 <netdb_freeaddrinfo>:

DYNALIB_BEGIN(hal_netdb)

DYNALIB_FN(0, hal_netdb, netdb_gethostbyname, struct hostent*(const char*))
DYNALIB_FN(1, hal_netdb, netdb_gethostbyname_r, int(const char*, struct hostent*, char*, size_t, struct hostent**, int*))
DYNALIB_FN(2, hal_netdb, netdb_freeaddrinfo, void(struct addrinfo*))
 23f8898:	b509      	push	{r0, r3, lr}
 23f889a:	4804      	ldr	r0, [pc, #16]	; (23f88ac <netdb_freeaddrinfo+0x14>)
 23f889c:	6800      	ldr	r0, [r0, #0]
 23f889e:	4b04      	ldr	r3, [pc, #16]	; (23f88b0 <netdb_freeaddrinfo+0x18>)
 23f88a0:	4403      	add	r3, r0
 23f88a2:	681b      	ldr	r3, [r3, #0]
 23f88a4:	689b      	ldr	r3, [r3, #8]
 23f88a6:	9302      	str	r3, [sp, #8]
 23f88a8:	bd09      	pop	{r0, r3, pc}
 23f88aa:	0000      	.short	0x0000
 23f88ac:	1006196c 	.word	0x1006196c
 23f88b0:	00000050 	.word	0x00000050

023f88b4 <netdb_getaddrinfo>:
DYNALIB_FN(3, hal_netdb, netdb_getaddrinfo, int(const char*, const char*, const struct addrinfo*, struct addrinfo**))
 23f88b4:	b509      	push	{r0, r3, lr}
 23f88b6:	4804      	ldr	r0, [pc, #16]	; (23f88c8 <netdb_getaddrinfo+0x14>)
 23f88b8:	6800      	ldr	r0, [r0, #0]
 23f88ba:	4b04      	ldr	r3, [pc, #16]	; (23f88cc <netdb_getaddrinfo+0x18>)
 23f88bc:	4403      	add	r3, r0
 23f88be:	681b      	ldr	r3, [r3, #0]
 23f88c0:	68db      	ldr	r3, [r3, #12]
 23f88c2:	9302      	str	r3, [sp, #8]
 23f88c4:	bd09      	pop	{r0, r3, pc}
 23f88c6:	0000      	.short	0x0000
 23f88c8:	1006196c 	.word	0x1006196c
 23f88cc:	00000050 	.word	0x00000050

023f88d0 <hal_gpio_mode>:

DYNALIB_BEGIN(hal_gpio)

DYNALIB_FN(0, hal_gpio, hal_pin_map, hal_pin_info_t*(void))
DYNALIB_FN(1, hal_gpio, hal_pin_validate_function, PinFunction(hal_pin_t, PinFunction))
DYNALIB_FN(2, hal_gpio, hal_gpio_mode, void(hal_pin_t, PinMode))
 23f88d0:	b509      	push	{r0, r3, lr}
 23f88d2:	4804      	ldr	r0, [pc, #16]	; (23f88e4 <hal_gpio_mode+0x14>)
 23f88d4:	6800      	ldr	r0, [r0, #0]
 23f88d6:	4b04      	ldr	r3, [pc, #16]	; (23f88e8 <hal_gpio_mode+0x18>)
 23f88d8:	4403      	add	r3, r0
 23f88da:	681b      	ldr	r3, [r3, #0]
 23f88dc:	689b      	ldr	r3, [r3, #8]
 23f88de:	9302      	str	r3, [sp, #8]
 23f88e0:	bd09      	pop	{r0, r3, pc}
 23f88e2:	0000      	.short	0x0000
 23f88e4:	1006196c 	.word	0x1006196c
 23f88e8:	00000014 	.word	0x00000014

023f88ec <hal_gpio_get_mode>:
DYNALIB_FN(3, hal_gpio, hal_gpio_get_mode, PinMode(hal_pin_t))
 23f88ec:	b509      	push	{r0, r3, lr}
 23f88ee:	4804      	ldr	r0, [pc, #16]	; (23f8900 <hal_gpio_get_mode+0x14>)
 23f88f0:	6800      	ldr	r0, [r0, #0]
 23f88f2:	4b04      	ldr	r3, [pc, #16]	; (23f8904 <hal_gpio_get_mode+0x18>)
 23f88f4:	4403      	add	r3, r0
 23f88f6:	681b      	ldr	r3, [r3, #0]
 23f88f8:	68db      	ldr	r3, [r3, #12]
 23f88fa:	9302      	str	r3, [sp, #8]
 23f88fc:	bd09      	pop	{r0, r3, pc}
 23f88fe:	0000      	.short	0x0000
 23f8900:	1006196c 	.word	0x1006196c
 23f8904:	00000014 	.word	0x00000014

023f8908 <hal_gpio_write>:
DYNALIB_FN(4, hal_gpio, hal_gpio_write, void(hal_pin_t, uint8_t))
 23f8908:	b509      	push	{r0, r3, lr}
 23f890a:	4804      	ldr	r0, [pc, #16]	; (23f891c <hal_gpio_write+0x14>)
 23f890c:	6800      	ldr	r0, [r0, #0]
 23f890e:	4b04      	ldr	r3, [pc, #16]	; (23f8920 <hal_gpio_write+0x18>)
 23f8910:	4403      	add	r3, r0
 23f8912:	681b      	ldr	r3, [r3, #0]
 23f8914:	691b      	ldr	r3, [r3, #16]
 23f8916:	9302      	str	r3, [sp, #8]
 23f8918:	bd09      	pop	{r0, r3, pc}
 23f891a:	0000      	.short	0x0000
 23f891c:	1006196c 	.word	0x1006196c
 23f8920:	00000014 	.word	0x00000014

023f8924 <HAL_RNG_GetRandomNumber>:

DYNALIB_BEGIN(hal)

#if PLATFORM_ID > PLATFORM_GCC
DYNALIB_FN(0, hal, HAL_RNG_Configuration, void(void))
DYNALIB_FN(1, hal, HAL_RNG_GetRandomNumber, uint32_t(void))
 23f8924:	b509      	push	{r0, r3, lr}
 23f8926:	4804      	ldr	r0, [pc, #16]	; (23f8938 <HAL_RNG_GetRandomNumber+0x14>)
 23f8928:	6800      	ldr	r0, [r0, #0]
 23f892a:	4b04      	ldr	r3, [pc, #16]	; (23f893c <HAL_RNG_GetRandomNumber+0x18>)
 23f892c:	4403      	add	r3, r0
 23f892e:	681b      	ldr	r3, [r3, #0]
 23f8930:	685b      	ldr	r3, [r3, #4]
 23f8932:	9302      	str	r3, [sp, #8]
 23f8934:	bd09      	pop	{r0, r3, pc}
 23f8936:	0000      	.short	0x0000
 23f8938:	1006196c 	.word	0x1006196c
 23f893c:	00000000 	.word	0x00000000

023f8940 <HAL_Timer_Get_Micro_Seconds>:
#define BASE_IDX 0
#endif // PLATFORM_ID > PLATFORM_GCC

DYNALIB_FN(BASE_IDX + 0, hal, HAL_Delay_Milliseconds, void(uint32_t))
DYNALIB_FN(BASE_IDX + 1, hal, HAL_Delay_Microseconds, void(uint32_t))
DYNALIB_FN(BASE_IDX + 2, hal, HAL_Timer_Get_Micro_Seconds, system_tick_t(void))
 23f8940:	b509      	push	{r0, r3, lr}
 23f8942:	4804      	ldr	r0, [pc, #16]	; (23f8954 <HAL_Timer_Get_Micro_Seconds+0x14>)
 23f8944:	6800      	ldr	r0, [r0, #0]
 23f8946:	4b04      	ldr	r3, [pc, #16]	; (23f8958 <HAL_Timer_Get_Micro_Seconds+0x18>)
 23f8948:	4403      	add	r3, r0
 23f894a:	681b      	ldr	r3, [r3, #0]
 23f894c:	691b      	ldr	r3, [r3, #16]
 23f894e:	9302      	str	r3, [sp, #8]
 23f8950:	bd09      	pop	{r0, r3, pc}
 23f8952:	0000      	.short	0x0000
 23f8954:	1006196c 	.word	0x1006196c
 23f8958:	00000000 	.word	0x00000000

023f895c <HAL_Timer_Get_Milli_Seconds>:
DYNALIB_FN(BASE_IDX + 3, hal, HAL_Timer_Get_Milli_Seconds, system_tick_t(void))
 23f895c:	b509      	push	{r0, r3, lr}
 23f895e:	4804      	ldr	r0, [pc, #16]	; (23f8970 <HAL_Timer_Get_Milli_Seconds+0x14>)
 23f8960:	6800      	ldr	r0, [r0, #0]
 23f8962:	4b04      	ldr	r3, [pc, #16]	; (23f8974 <HAL_Timer_Get_Milli_Seconds+0x18>)
 23f8964:	4403      	add	r3, r0
 23f8966:	681b      	ldr	r3, [r3, #0]
 23f8968:	695b      	ldr	r3, [r3, #20]
 23f896a:	9302      	str	r3, [sp, #8]
 23f896c:	bd09      	pop	{r0, r3, pc}
 23f896e:	0000      	.short	0x0000
 23f8970:	1006196c 	.word	0x1006196c
 23f8974:	00000000 	.word	0x00000000

023f8978 <os_mutex_recursive_create>:
DYNALIB_FN(13, hal_concurrent, os_mutex_destroy, int(os_mutex_t))
DYNALIB_FN(14, hal_concurrent, os_mutex_lock, int(os_mutex_t))
DYNALIB_FN(15, hal_concurrent, os_mutex_trylock, int(os_mutex_t))
DYNALIB_FN(16, hal_concurrent, os_mutex_unlock, int(os_mutex_t))

DYNALIB_FN(17, hal_concurrent, os_mutex_recursive_create, int(os_mutex_recursive_t*))
 23f8978:	b509      	push	{r0, r3, lr}
 23f897a:	4804      	ldr	r0, [pc, #16]	; (23f898c <os_mutex_recursive_create+0x14>)
 23f897c:	6800      	ldr	r0, [r0, #0]
 23f897e:	4b04      	ldr	r3, [pc, #16]	; (23f8990 <os_mutex_recursive_create+0x18>)
 23f8980:	4403      	add	r3, r0
 23f8982:	681b      	ldr	r3, [r3, #0]
 23f8984:	6c5b      	ldr	r3, [r3, #68]	; 0x44
 23f8986:	9302      	str	r3, [sp, #8]
 23f8988:	bd09      	pop	{r0, r3, pc}
 23f898a:	0000      	.short	0x0000
 23f898c:	1006196c 	.word	0x1006196c
 23f8990:	00000030 	.word	0x00000030

023f8994 <inet_inet_ntop>:
DYNALIB_FN(0, hal_inet, inet_inet_addr, in_addr_t(const char*))
DYNALIB_FN(1, hal_inet, inet_inet_aton, int(const char*, struct in_addr*))
DYNALIB_FN(2, hal_inet, inet_inet_network, in_addr_t(const char*))
DYNALIB_FN(3, hal_inet, inet_inet_ntoa, char*(struct in_addr))
DYNALIB_FN(4, hal_inet, inet_inet_ntoa_r, char*(struct in_addr, char*, socklen_t))
DYNALIB_FN(5, hal_inet, inet_inet_ntop, const char*(int, const void*, char*, socklen_t))
 23f8994:	b509      	push	{r0, r3, lr}
 23f8996:	4804      	ldr	r0, [pc, #16]	; (23f89a8 <inet_inet_ntop+0x14>)
 23f8998:	6800      	ldr	r0, [r0, #0]
 23f899a:	4b04      	ldr	r3, [pc, #16]	; (23f89ac <inet_inet_ntop+0x18>)
 23f899c:	4403      	add	r3, r0
 23f899e:	681b      	ldr	r3, [r3, #0]
 23f89a0:	695b      	ldr	r3, [r3, #20]
 23f89a2:	9302      	str	r3, [sp, #8]
 23f89a4:	bd09      	pop	{r0, r3, pc}
 23f89a6:	0000      	.short	0x0000
 23f89a8:	1006196c 	.word	0x1006196c
 23f89ac:	0000004c 	.word	0x0000004c

023f89b0 <hal_usart_write>:
#endif

DYNALIB_FN(BASE_IDX + 0, hal_usart, hal_usart_init, void(hal_usart_interface_t, hal_usart_ring_buffer_t*, hal_usart_ring_buffer_t*))
DYNALIB_FN(BASE_IDX + 1, hal_usart, hal_usart_begin, void(hal_usart_interface_t, uint32_t))
DYNALIB_FN(BASE_IDX + 2, hal_usart, hal_usart_end, void(hal_usart_interface_t))
DYNALIB_FN(BASE_IDX + 3, hal_usart, hal_usart_write, uint32_t(hal_usart_interface_t, uint8_t))
 23f89b0:	b509      	push	{r0, r3, lr}
 23f89b2:	4804      	ldr	r0, [pc, #16]	; (23f89c4 <hal_usart_write+0x14>)
 23f89b4:	6800      	ldr	r0, [r0, #0]
 23f89b6:	4b04      	ldr	r3, [pc, #16]	; (23f89c8 <hal_usart_write+0x18>)
 23f89b8:	4403      	add	r3, r0
 23f89ba:	681b      	ldr	r3, [r3, #0]
 23f89bc:	68db      	ldr	r3, [r3, #12]
 23f89be:	9302      	str	r3, [sp, #8]
 23f89c0:	bd09      	pop	{r0, r3, pc}
 23f89c2:	0000      	.short	0x0000
 23f89c4:	1006196c 	.word	0x1006196c
 23f89c8:	00000024 	.word	0x00000024

023f89cc <hal_usart_available>:
DYNALIB_FN(BASE_IDX + 4, hal_usart, hal_usart_available, int32_t(hal_usart_interface_t))
 23f89cc:	b509      	push	{r0, r3, lr}
 23f89ce:	4804      	ldr	r0, [pc, #16]	; (23f89e0 <hal_usart_available+0x14>)
 23f89d0:	6800      	ldr	r0, [r0, #0]
 23f89d2:	4b04      	ldr	r3, [pc, #16]	; (23f89e4 <hal_usart_available+0x18>)
 23f89d4:	4403      	add	r3, r0
 23f89d6:	681b      	ldr	r3, [r3, #0]
 23f89d8:	691b      	ldr	r3, [r3, #16]
 23f89da:	9302      	str	r3, [sp, #8]
 23f89dc:	bd09      	pop	{r0, r3, pc}
 23f89de:	0000      	.short	0x0000
 23f89e0:	1006196c 	.word	0x1006196c
 23f89e4:	00000024 	.word	0x00000024

023f89e8 <hal_usart_read>:
DYNALIB_FN(BASE_IDX + 5, hal_usart, hal_usart_read, int32_t(hal_usart_interface_t))
 23f89e8:	b509      	push	{r0, r3, lr}
 23f89ea:	4804      	ldr	r0, [pc, #16]	; (23f89fc <hal_usart_read+0x14>)
 23f89ec:	6800      	ldr	r0, [r0, #0]
 23f89ee:	4b04      	ldr	r3, [pc, #16]	; (23f8a00 <hal_usart_read+0x18>)
 23f89f0:	4403      	add	r3, r0
 23f89f2:	681b      	ldr	r3, [r3, #0]
 23f89f4:	695b      	ldr	r3, [r3, #20]
 23f89f6:	9302      	str	r3, [sp, #8]
 23f89f8:	bd09      	pop	{r0, r3, pc}
 23f89fa:	0000      	.short	0x0000
 23f89fc:	1006196c 	.word	0x1006196c
 23f8a00:	00000024 	.word	0x00000024

023f8a04 <hal_usart_peek>:
DYNALIB_FN(BASE_IDX + 6, hal_usart, hal_usart_peek, int32_t(hal_usart_interface_t))
 23f8a04:	b509      	push	{r0, r3, lr}
 23f8a06:	4804      	ldr	r0, [pc, #16]	; (23f8a18 <hal_usart_peek+0x14>)
 23f8a08:	6800      	ldr	r0, [r0, #0]
 23f8a0a:	4b04      	ldr	r3, [pc, #16]	; (23f8a1c <hal_usart_peek+0x18>)
 23f8a0c:	4403      	add	r3, r0
 23f8a0e:	681b      	ldr	r3, [r3, #0]
 23f8a10:	699b      	ldr	r3, [r3, #24]
 23f8a12:	9302      	str	r3, [sp, #8]
 23f8a14:	bd09      	pop	{r0, r3, pc}
 23f8a16:	0000      	.short	0x0000
 23f8a18:	1006196c 	.word	0x1006196c
 23f8a1c:	00000024 	.word	0x00000024

023f8a20 <hal_usart_flush>:
DYNALIB_FN(BASE_IDX + 7, hal_usart, hal_usart_flush, void(hal_usart_interface_t))
 23f8a20:	b509      	push	{r0, r3, lr}
 23f8a22:	4804      	ldr	r0, [pc, #16]	; (23f8a34 <hal_usart_flush+0x14>)
 23f8a24:	6800      	ldr	r0, [r0, #0]
 23f8a26:	4b04      	ldr	r3, [pc, #16]	; (23f8a38 <hal_usart_flush+0x18>)
 23f8a28:	4403      	add	r3, r0
 23f8a2a:	681b      	ldr	r3, [r3, #0]
 23f8a2c:	69db      	ldr	r3, [r3, #28]
 23f8a2e:	9302      	str	r3, [sp, #8]
 23f8a30:	bd09      	pop	{r0, r3, pc}
 23f8a32:	0000      	.short	0x0000
 23f8a34:	1006196c 	.word	0x1006196c
 23f8a38:	00000024 	.word	0x00000024

023f8a3c <hal_usart_is_enabled>:
DYNALIB_FN(BASE_IDX + 8, hal_usart, hal_usart_is_enabled, bool(hal_usart_interface_t))
 23f8a3c:	b509      	push	{r0, r3, lr}
 23f8a3e:	4804      	ldr	r0, [pc, #16]	; (23f8a50 <hal_usart_is_enabled+0x14>)
 23f8a40:	6800      	ldr	r0, [r0, #0]
 23f8a42:	4b04      	ldr	r3, [pc, #16]	; (23f8a54 <hal_usart_is_enabled+0x18>)
 23f8a44:	4403      	add	r3, r0
 23f8a46:	681b      	ldr	r3, [r3, #0]
 23f8a48:	6a1b      	ldr	r3, [r3, #32]
 23f8a4a:	9302      	str	r3, [sp, #8]
 23f8a4c:	bd09      	pop	{r0, r3, pc}
 23f8a4e:	0000      	.short	0x0000
 23f8a50:	1006196c 	.word	0x1006196c
 23f8a54:	00000024 	.word	0x00000024

023f8a58 <hal_usart_available_data_for_write>:
DYNALIB_FN(BASE_IDX + 9, hal_usart, hal_usart_half_duplex, void(hal_usart_interface_t, bool))
DYNALIB_FN(BASE_IDX + 10, hal_usart, hal_usart_available_data_for_write, int32_t(hal_usart_interface_t))
 23f8a58:	b509      	push	{r0, r3, lr}
 23f8a5a:	4804      	ldr	r0, [pc, #16]	; (23f8a6c <hal_usart_available_data_for_write+0x14>)
 23f8a5c:	6800      	ldr	r0, [r0, #0]
 23f8a5e:	4b04      	ldr	r3, [pc, #16]	; (23f8a70 <hal_usart_available_data_for_write+0x18>)
 23f8a60:	4403      	add	r3, r0
 23f8a62:	681b      	ldr	r3, [r3, #0]
 23f8a64:	6a9b      	ldr	r3, [r3, #40]	; 0x28
 23f8a66:	9302      	str	r3, [sp, #8]
 23f8a68:	bd09      	pop	{r0, r3, pc}
 23f8a6a:	0000      	.short	0x0000
 23f8a6c:	1006196c 	.word	0x1006196c
 23f8a70:	00000024 	.word	0x00000024

023f8a74 <hal_usart_init_ex>:
DYNALIB_FN(BASE_IDX2 + 0, hal_usart, hal_usart_begin_config, void(hal_usart_interface_t serial, uint32_t baud, uint32_t config, void *ptr))
DYNALIB_FN(BASE_IDX2 + 1, hal_usart, hal_usart_write_nine_bits, uint32_t(hal_usart_interface_t serial, uint16_t data))
DYNALIB_FN(BASE_IDX2 + 2, hal_usart, hal_usart_send_break, void(hal_usart_interface_t, void*))
DYNALIB_FN(BASE_IDX2 + 3, hal_usart, hal_usart_break_detected, uint8_t(hal_usart_interface_t))
DYNALIB_FN(BASE_IDX2 + 4, hal_usart, hal_usart_sleep, int(hal_usart_interface_t serial, bool, void*))
DYNALIB_FN(BASE_IDX2 + 5, hal_usart, hal_usart_init_ex, int(hal_usart_interface_t, const hal_usart_buffer_config_t*, void*))
 23f8a74:	b509      	push	{r0, r3, lr}
 23f8a76:	4804      	ldr	r0, [pc, #16]	; (23f8a88 <hal_usart_init_ex+0x14>)
 23f8a78:	6800      	ldr	r0, [r0, #0]
 23f8a7a:	4b04      	ldr	r3, [pc, #16]	; (23f8a8c <hal_usart_init_ex+0x18>)
 23f8a7c:	4403      	add	r3, r0
 23f8a7e:	681b      	ldr	r3, [r3, #0]
 23f8a80:	6c1b      	ldr	r3, [r3, #64]	; 0x40
 23f8a82:	9302      	str	r3, [sp, #8]
 23f8a84:	bd09      	pop	{r0, r3, pc}
 23f8a86:	0000      	.short	0x0000
 23f8a88:	1006196c 	.word	0x1006196c
 23f8a8c:	00000024 	.word	0x00000024

023f8a90 <hal_i2c_write>:
DYNALIB_FN(3, hal_i2c, hal_i2c_begin, void(hal_i2c_interface_t, hal_i2c_mode_t, uint8_t, void*))
DYNALIB_FN(4, hal_i2c, hal_i2c_end, void(hal_i2c_interface_t, void*))
DYNALIB_FN(5, hal_i2c, hal_i2c_request, uint32_t(hal_i2c_interface_t, uint8_t, uint8_t, uint8_t, void*))
DYNALIB_FN(6, hal_i2c, hal_i2c_begin_transmission, void(hal_i2c_interface_t, uint8_t, const hal_i2c_transmission_config_t*))
DYNALIB_FN(7, hal_i2c, hal_i2c_end_transmission, uint8_t(hal_i2c_interface_t, uint8_t, void*))
DYNALIB_FN(8, hal_i2c, hal_i2c_write, uint32_t(hal_i2c_interface_t, uint8_t, void*))
 23f8a90:	b509      	push	{r0, r3, lr}
 23f8a92:	4804      	ldr	r0, [pc, #16]	; (23f8aa4 <hal_i2c_write+0x14>)
 23f8a94:	6800      	ldr	r0, [r0, #0]
 23f8a96:	4b04      	ldr	r3, [pc, #16]	; (23f8aa8 <hal_i2c_write+0x18>)
 23f8a98:	4403      	add	r3, r0
 23f8a9a:	681b      	ldr	r3, [r3, #0]
 23f8a9c:	6a1b      	ldr	r3, [r3, #32]
 23f8a9e:	9302      	str	r3, [sp, #8]
 23f8aa0:	bd09      	pop	{r0, r3, pc}
 23f8aa2:	0000      	.short	0x0000
 23f8aa4:	1006196c 	.word	0x1006196c
 23f8aa8:	00000010 	.word	0x00000010

023f8aac <hal_i2c_available>:
DYNALIB_FN(9, hal_i2c, hal_i2c_available, int32_t(hal_i2c_interface_t, void*))
 23f8aac:	b509      	push	{r0, r3, lr}
 23f8aae:	4804      	ldr	r0, [pc, #16]	; (23f8ac0 <hal_i2c_available+0x14>)
 23f8ab0:	6800      	ldr	r0, [r0, #0]
 23f8ab2:	4b04      	ldr	r3, [pc, #16]	; (23f8ac4 <hal_i2c_available+0x18>)
 23f8ab4:	4403      	add	r3, r0
 23f8ab6:	681b      	ldr	r3, [r3, #0]
 23f8ab8:	6a5b      	ldr	r3, [r3, #36]	; 0x24
 23f8aba:	9302      	str	r3, [sp, #8]
 23f8abc:	bd09      	pop	{r0, r3, pc}
 23f8abe:	0000      	.short	0x0000
 23f8ac0:	1006196c 	.word	0x1006196c
 23f8ac4:	00000010 	.word	0x00000010

023f8ac8 <hal_i2c_read>:
DYNALIB_FN(10, hal_i2c, hal_i2c_read, int32_t(hal_i2c_interface_t, void*))
 23f8ac8:	b509      	push	{r0, r3, lr}
 23f8aca:	4804      	ldr	r0, [pc, #16]	; (23f8adc <hal_i2c_read+0x14>)
 23f8acc:	6800      	ldr	r0, [r0, #0]
 23f8ace:	4b04      	ldr	r3, [pc, #16]	; (23f8ae0 <hal_i2c_read+0x18>)
 23f8ad0:	4403      	add	r3, r0
 23f8ad2:	681b      	ldr	r3, [r3, #0]
 23f8ad4:	6a9b      	ldr	r3, [r3, #40]	; 0x28
 23f8ad6:	9302      	str	r3, [sp, #8]
 23f8ad8:	bd09      	pop	{r0, r3, pc}
 23f8ada:	0000      	.short	0x0000
 23f8adc:	1006196c 	.word	0x1006196c
 23f8ae0:	00000010 	.word	0x00000010

023f8ae4 <hal_i2c_peek>:
DYNALIB_FN(11, hal_i2c, hal_i2c_peek, int32_t(hal_i2c_interface_t, void*))
 23f8ae4:	b509      	push	{r0, r3, lr}
 23f8ae6:	4804      	ldr	r0, [pc, #16]	; (23f8af8 <hal_i2c_peek+0x14>)
 23f8ae8:	6800      	ldr	r0, [r0, #0]
 23f8aea:	4b04      	ldr	r3, [pc, #16]	; (23f8afc <hal_i2c_peek+0x18>)
 23f8aec:	4403      	add	r3, r0
 23f8aee:	681b      	ldr	r3, [r3, #0]
 23f8af0:	6adb      	ldr	r3, [r3, #44]	; 0x2c
 23f8af2:	9302      	str	r3, [sp, #8]
 23f8af4:	bd09      	pop	{r0, r3, pc}
 23f8af6:	0000      	.short	0x0000
 23f8af8:	1006196c 	.word	0x1006196c
 23f8afc:	00000010 	.word	0x00000010

023f8b00 <hal_i2c_flush>:
DYNALIB_FN(12, hal_i2c, hal_i2c_flush, void(hal_i2c_interface_t, void*))
 23f8b00:	b509      	push	{r0, r3, lr}
 23f8b02:	4804      	ldr	r0, [pc, #16]	; (23f8b14 <hal_i2c_flush+0x14>)
 23f8b04:	6800      	ldr	r0, [r0, #0]
 23f8b06:	4b04      	ldr	r3, [pc, #16]	; (23f8b18 <hal_i2c_flush+0x18>)
 23f8b08:	4403      	add	r3, r0
 23f8b0a:	681b      	ldr	r3, [r3, #0]
 23f8b0c:	6b1b      	ldr	r3, [r3, #48]	; 0x30
 23f8b0e:	9302      	str	r3, [sp, #8]
 23f8b10:	bd09      	pop	{r0, r3, pc}
 23f8b12:	0000      	.short	0x0000
 23f8b14:	1006196c 	.word	0x1006196c
 23f8b18:	00000010 	.word	0x00000010

023f8b1c <hal_i2c_is_enabled>:
DYNALIB_FN(13, hal_i2c, hal_i2c_is_enabled, bool(hal_i2c_interface_t, void*))
 23f8b1c:	b509      	push	{r0, r3, lr}
 23f8b1e:	4804      	ldr	r0, [pc, #16]	; (23f8b30 <hal_i2c_is_enabled+0x14>)
 23f8b20:	6800      	ldr	r0, [r0, #0]
 23f8b22:	4b04      	ldr	r3, [pc, #16]	; (23f8b34 <hal_i2c_is_enabled+0x18>)
 23f8b24:	4403      	add	r3, r0
 23f8b26:	681b      	ldr	r3, [r3, #0]
 23f8b28:	6b5b      	ldr	r3, [r3, #52]	; 0x34
 23f8b2a:	9302      	str	r3, [sp, #8]
 23f8b2c:	bd09      	pop	{r0, r3, pc}
 23f8b2e:	0000      	.short	0x0000
 23f8b30:	1006196c 	.word	0x1006196c
 23f8b34:	00000010 	.word	0x00000010

023f8b38 <hal_i2c_init>:
DYNALIB_FN(14, hal_i2c, hal_i2c_set_callback_on_received, void(hal_i2c_interface_t, void(*)(int), void*))
DYNALIB_FN(15, hal_i2c, hal_i2c_set_callback_on_requested, void(hal_i2c_interface_t, void(*)(void), void*))
DYNALIB_FN(16, hal_i2c, hal_i2c_init, int(hal_i2c_interface_t, const hal_i2c_config_t*))
 23f8b38:	b509      	push	{r0, r3, lr}
 23f8b3a:	4804      	ldr	r0, [pc, #16]	; (23f8b4c <hal_i2c_init+0x14>)
 23f8b3c:	6800      	ldr	r0, [r0, #0]
 23f8b3e:	4b04      	ldr	r3, [pc, #16]	; (23f8b50 <hal_i2c_init+0x18>)
 23f8b40:	4403      	add	r3, r0
 23f8b42:	681b      	ldr	r3, [r3, #0]
 23f8b44:	6c1b      	ldr	r3, [r3, #64]	; 0x40
 23f8b46:	9302      	str	r3, [sp, #8]
 23f8b48:	bd09      	pop	{r0, r3, pc}
 23f8b4a:	0000      	.short	0x0000
 23f8b4c:	1006196c 	.word	0x1006196c
 23f8b50:	00000010 	.word	0x00000010

023f8b54 <hal_spi_init>:
DYNALIB_FN(2, hal_spi, hal_spi_set_bit_order, void(hal_spi_interface_t, uint8_t))
DYNALIB_FN(3, hal_spi, hal_spi_set_data_mode, void(hal_spi_interface_t, uint8_t))
DYNALIB_FN(4, hal_spi, hal_spi_set_clock_divider, void(hal_spi_interface_t, uint8_t))
DYNALIB_FN(5, hal_spi, hal_spi_transfer, uint16_t(hal_spi_interface_t, uint16_t))
DYNALIB_FN(6, hal_spi, hal_spi_is_enabled_deprecated, bool(void))
DYNALIB_FN(7, hal_spi, hal_spi_init, void(hal_spi_interface_t))
 23f8b54:	b509      	push	{r0, r3, lr}
 23f8b56:	4804      	ldr	r0, [pc, #16]	; (23f8b68 <hal_spi_init+0x14>)
 23f8b58:	6800      	ldr	r0, [r0, #0]
 23f8b5a:	4b04      	ldr	r3, [pc, #16]	; (23f8b6c <hal_spi_init+0x18>)
 23f8b5c:	4403      	add	r3, r0
 23f8b5e:	681b      	ldr	r3, [r3, #0]
 23f8b60:	69db      	ldr	r3, [r3, #28]
 23f8b62:	9302      	str	r3, [sp, #8]
 23f8b64:	bd09      	pop	{r0, r3, pc}
 23f8b66:	0000      	.short	0x0000
 23f8b68:	1006196c 	.word	0x1006196c
 23f8b6c:	00000018 	.word	0x00000018

023f8b70 <hal_spi_is_enabled>:
DYNALIB_FN(8, hal_spi, hal_spi_is_enabled, bool(hal_spi_interface_t))
 23f8b70:	b509      	push	{r0, r3, lr}
 23f8b72:	4804      	ldr	r0, [pc, #16]	; (23f8b84 <hal_spi_is_enabled+0x14>)
 23f8b74:	6800      	ldr	r0, [r0, #0]
 23f8b76:	4b04      	ldr	r3, [pc, #16]	; (23f8b88 <hal_spi_is_enabled+0x18>)
 23f8b78:	4403      	add	r3, r0
 23f8b7a:	681b      	ldr	r3, [r3, #0]
 23f8b7c:	6a1b      	ldr	r3, [r3, #32]
 23f8b7e:	9302      	str	r3, [sp, #8]
 23f8b80:	bd09      	pop	{r0, r3, pc}
 23f8b82:	0000      	.short	0x0000
 23f8b84:	1006196c 	.word	0x1006196c
 23f8b88:	00000018 	.word	0x00000018

023f8b8c <HAL_USB_USART_Init>:
// GNINRAW

DYNALIB_BEGIN(hal_usb)

#ifdef USB_CDC_ENABLE
DYNALIB_FN(0, hal_usb, HAL_USB_USART_Init, void(HAL_USB_USART_Serial, const HAL_USB_USART_Config*))
 23f8b8c:	b509      	push	{r0, r3, lr}
 23f8b8e:	4804      	ldr	r0, [pc, #16]	; (23f8ba0 <HAL_USB_USART_Init+0x14>)
 23f8b90:	6800      	ldr	r0, [r0, #0]
 23f8b92:	4b04      	ldr	r3, [pc, #16]	; (23f8ba4 <HAL_USB_USART_Init+0x18>)
 23f8b94:	4403      	add	r3, r0
 23f8b96:	681b      	ldr	r3, [r3, #0]
 23f8b98:	681b      	ldr	r3, [r3, #0]
 23f8b9a:	9302      	str	r3, [sp, #8]
 23f8b9c:	bd09      	pop	{r0, r3, pc}
 23f8b9e:	0000      	.short	0x0000
 23f8ba0:	1006196c 	.word	0x1006196c
 23f8ba4:	00000034 	.word	0x00000034

023f8ba8 <HAL_USB_USART_Begin>:
DYNALIB_FN(1, hal_usb, HAL_USB_USART_Begin, void(HAL_USB_USART_Serial, uint32_t, void *))
 23f8ba8:	b509      	push	{r0, r3, lr}
 23f8baa:	4804      	ldr	r0, [pc, #16]	; (23f8bbc <HAL_USB_USART_Begin+0x14>)
 23f8bac:	6800      	ldr	r0, [r0, #0]
 23f8bae:	4b04      	ldr	r3, [pc, #16]	; (23f8bc0 <HAL_USB_USART_Begin+0x18>)
 23f8bb0:	4403      	add	r3, r0
 23f8bb2:	681b      	ldr	r3, [r3, #0]
 23f8bb4:	685b      	ldr	r3, [r3, #4]
 23f8bb6:	9302      	str	r3, [sp, #8]
 23f8bb8:	bd09      	pop	{r0, r3, pc}
 23f8bba:	0000      	.short	0x0000
 23f8bbc:	1006196c 	.word	0x1006196c
 23f8bc0:	00000034 	.word	0x00000034

023f8bc4 <HAL_USB_USART_Available_Data>:
DYNALIB_FN(2, hal_usb, HAL_USB_USART_End, void(HAL_USB_USART_Serial))
DYNALIB_FN(3, hal_usb, HAL_USB_USART_Baud_Rate, unsigned int(HAL_USB_USART_Serial))
DYNALIB_FN(4, hal_usb, HAL_USB_USART_Available_Data, int32_t(HAL_USB_USART_Serial))
 23f8bc4:	b509      	push	{r0, r3, lr}
 23f8bc6:	4804      	ldr	r0, [pc, #16]	; (23f8bd8 <HAL_USB_USART_Available_Data+0x14>)
 23f8bc8:	6800      	ldr	r0, [r0, #0]
 23f8bca:	4b04      	ldr	r3, [pc, #16]	; (23f8bdc <HAL_USB_USART_Available_Data+0x18>)
 23f8bcc:	4403      	add	r3, r0
 23f8bce:	681b      	ldr	r3, [r3, #0]
 23f8bd0:	691b      	ldr	r3, [r3, #16]
 23f8bd2:	9302      	str	r3, [sp, #8]
 23f8bd4:	bd09      	pop	{r0, r3, pc}
 23f8bd6:	0000      	.short	0x0000
 23f8bd8:	1006196c 	.word	0x1006196c
 23f8bdc:	00000034 	.word	0x00000034

023f8be0 <HAL_USB_USART_Available_Data_For_Write>:
DYNALIB_FN(5, hal_usb, HAL_USB_USART_Available_Data_For_Write, int32_t(HAL_USB_USART_Serial))
 23f8be0:	b509      	push	{r0, r3, lr}
 23f8be2:	4804      	ldr	r0, [pc, #16]	; (23f8bf4 <HAL_USB_USART_Available_Data_For_Write+0x14>)
 23f8be4:	6800      	ldr	r0, [r0, #0]
 23f8be6:	4b04      	ldr	r3, [pc, #16]	; (23f8bf8 <HAL_USB_USART_Available_Data_For_Write+0x18>)
 23f8be8:	4403      	add	r3, r0
 23f8bea:	681b      	ldr	r3, [r3, #0]
 23f8bec:	695b      	ldr	r3, [r3, #20]
 23f8bee:	9302      	str	r3, [sp, #8]
 23f8bf0:	bd09      	pop	{r0, r3, pc}
 23f8bf2:	0000      	.short	0x0000
 23f8bf4:	1006196c 	.word	0x1006196c
 23f8bf8:	00000034 	.word	0x00000034

023f8bfc <HAL_USB_USART_Receive_Data>:
DYNALIB_FN(6, hal_usb, HAL_USB_USART_Receive_Data, int32_t(HAL_USB_USART_Serial, uint8_t))
 23f8bfc:	b509      	push	{r0, r3, lr}
 23f8bfe:	4804      	ldr	r0, [pc, #16]	; (23f8c10 <HAL_USB_USART_Receive_Data+0x14>)
 23f8c00:	6800      	ldr	r0, [r0, #0]
 23f8c02:	4b04      	ldr	r3, [pc, #16]	; (23f8c14 <HAL_USB_USART_Receive_Data+0x18>)
 23f8c04:	4403      	add	r3, r0
 23f8c06:	681b      	ldr	r3, [r3, #0]
 23f8c08:	699b      	ldr	r3, [r3, #24]
 23f8c0a:	9302      	str	r3, [sp, #8]
 23f8c0c:	bd09      	pop	{r0, r3, pc}
 23f8c0e:	0000      	.short	0x0000
 23f8c10:	1006196c 	.word	0x1006196c
 23f8c14:	00000034 	.word	0x00000034

023f8c18 <HAL_USB_USART_Send_Data>:
DYNALIB_FN(7, hal_usb, HAL_USB_USART_Send_Data, int32_t(HAL_USB_USART_Serial, uint8_t))
 23f8c18:	b509      	push	{r0, r3, lr}
 23f8c1a:	4804      	ldr	r0, [pc, #16]	; (23f8c2c <HAL_USB_USART_Send_Data+0x14>)
 23f8c1c:	6800      	ldr	r0, [r0, #0]
 23f8c1e:	4b04      	ldr	r3, [pc, #16]	; (23f8c30 <HAL_USB_USART_Send_Data+0x18>)
 23f8c20:	4403      	add	r3, r0
 23f8c22:	681b      	ldr	r3, [r3, #0]
 23f8c24:	69db      	ldr	r3, [r3, #28]
 23f8c26:	9302      	str	r3, [sp, #8]
 23f8c28:	bd09      	pop	{r0, r3, pc}
 23f8c2a:	0000      	.short	0x0000
 23f8c2c:	1006196c 	.word	0x1006196c
 23f8c30:	00000034 	.word	0x00000034

023f8c34 <HAL_USB_USART_Flush_Data>:
DYNALIB_FN(8, hal_usb, HAL_USB_USART_Flush_Data, void(HAL_USB_USART_Serial))
 23f8c34:	b509      	push	{r0, r3, lr}
 23f8c36:	4804      	ldr	r0, [pc, #16]	; (23f8c48 <HAL_USB_USART_Flush_Data+0x14>)
 23f8c38:	6800      	ldr	r0, [r0, #0]
 23f8c3a:	4b04      	ldr	r3, [pc, #16]	; (23f8c4c <HAL_USB_USART_Flush_Data+0x18>)
 23f8c3c:	4403      	add	r3, r0
 23f8c3e:	681b      	ldr	r3, [r3, #0]
 23f8c40:	6a1b      	ldr	r3, [r3, #32]
 23f8c42:	9302      	str	r3, [sp, #8]
 23f8c44:	bd09      	pop	{r0, r3, pc}
 23f8c46:	0000      	.short	0x0000
 23f8c48:	1006196c 	.word	0x1006196c
 23f8c4c:	00000034 	.word	0x00000034

023f8c50 <set_system_mode>:
#endif

DYNALIB_BEGIN(system)

DYNALIB_FN(0, system, system_mode, System_Mode_TypeDef(void))
DYNALIB_FN(1, system, set_system_mode, void(System_Mode_TypeDef))
 23f8c50:	b509      	push	{r0, r3, lr}
 23f8c52:	4804      	ldr	r0, [pc, #16]	; (23f8c64 <set_system_mode+0x14>)
 23f8c54:	6800      	ldr	r0, [r0, #0]
 23f8c56:	4b04      	ldr	r3, [pc, #16]	; (23f8c68 <set_system_mode+0x18>)
 23f8c58:	4403      	add	r3, r0
 23f8c5a:	681b      	ldr	r3, [r3, #0]
 23f8c5c:	685b      	ldr	r3, [r3, #4]
 23f8c5e:	9302      	str	r3, [sp, #8]
 23f8c60:	bd09      	pop	{r0, r3, pc}
 23f8c62:	0000      	.short	0x0000
 23f8c64:	1006196c 	.word	0x1006196c
 23f8c68:	00000008 	.word	0x00000008

023f8c6c <system_delay_ms>:

DYNALIB_FN(2, system, set_ymodem_serial_flash_update_handler, void(ymodem_serial_flash_update_handler))
DYNALIB_FN(3, system, system_firmwareUpdate, bool(Stream*, void*))
DYNALIB_FN(4, system, system_fileTransfer, bool(system_file_transfer_t*, void*))

DYNALIB_FN(5, system, system_delay_ms, void(unsigned long, bool))
 23f8c6c:	b509      	push	{r0, r3, lr}
 23f8c6e:	4804      	ldr	r0, [pc, #16]	; (23f8c80 <system_delay_ms+0x14>)
 23f8c70:	6800      	ldr	r0, [r0, #0]
 23f8c72:	4b04      	ldr	r3, [pc, #16]	; (23f8c84 <system_delay_ms+0x18>)
 23f8c74:	4403      	add	r3, r0
 23f8c76:	681b      	ldr	r3, [r3, #0]
 23f8c78:	695b      	ldr	r3, [r3, #20]
 23f8c7a:	9302      	str	r3, [sp, #8]
 23f8c7c:	bd09      	pop	{r0, r3, pc}
 23f8c7e:	0000      	.short	0x0000
 23f8c80:	1006196c 	.word	0x1006196c
 23f8c84:	00000008 	.word	0x00000008

023f8c88 <system_ctrl_set_app_request_handler>:
DYNALIB_FN(BASE_IDX + 6, system, led_pattern_period, uint16_t(int, int, void*))
DYNALIB_FN(BASE_IDX + 7, system, system_set_tester_handlers, int(system_tester_handlers_t*, void*))
DYNALIB_FN(BASE_IDX + 8, system, system_format_diag_data, int(const uint16_t*, size_t, unsigned, appender_fn, void*, void*))

// Control requests
DYNALIB_FN(BASE_IDX + 9, system, system_ctrl_set_app_request_handler, int(ctrl_request_handler_fn, void*))
 23f8c88:	b509      	push	{r0, r3, lr}
 23f8c8a:	4804      	ldr	r0, [pc, #16]	; (23f8c9c <system_ctrl_set_app_request_handler+0x14>)
 23f8c8c:	6800      	ldr	r0, [r0, #0]
 23f8c8e:	4b04      	ldr	r3, [pc, #16]	; (23f8ca0 <system_ctrl_set_app_request_handler+0x18>)
 23f8c90:	4403      	add	r3, r0
 23f8c92:	681b      	ldr	r3, [r3, #0]
 23f8c94:	f8d3 3088 	ldr.w	r3, [r3, #136]	; 0x88
 23f8c98:	9302      	str	r3, [sp, #8]
 23f8c9a:	bd09      	pop	{r0, r3, pc}
 23f8c9c:	1006196c 	.word	0x1006196c
 23f8ca0:	00000008 	.word	0x00000008

023f8ca4 <system_ctrl_set_result>:
DYNALIB_FN(BASE_IDX + 10, system, system_ctrl_alloc_reply_data, int(ctrl_request*, size_t, void*))
DYNALIB_FN(BASE_IDX + 11, system, system_ctrl_free_request_data, void(ctrl_request*, void*))
DYNALIB_FN(BASE_IDX + 12, system, system_ctrl_set_result, void(ctrl_request*, int, ctrl_completion_handler_fn, void*, void*))
 23f8ca4:	b509      	push	{r0, r3, lr}
 23f8ca6:	4804      	ldr	r0, [pc, #16]	; (23f8cb8 <system_ctrl_set_result+0x14>)
 23f8ca8:	6800      	ldr	r0, [r0, #0]
 23f8caa:	4b04      	ldr	r3, [pc, #16]	; (23f8cbc <system_ctrl_set_result+0x18>)
 23f8cac:	4403      	add	r3, r0
 23f8cae:	681b      	ldr	r3, [r3, #0]
 23f8cb0:	f8d3 3094 	ldr.w	r3, [r3, #148]	; 0x94
 23f8cb4:	9302      	str	r3, [sp, #8]
 23f8cb6:	bd09      	pop	{r0, r3, pc}
 23f8cb8:	1006196c 	.word	0x1006196c
 23f8cbc:	00000008 	.word	0x00000008

023f8cc0 <network_connect>:
#endif

DYNALIB_BEGIN(system_net)

DYNALIB_FN(0, system_net, network_config, const void*(network_handle_t, uint32_t, void*))
DYNALIB_FN(1, system_net, network_connect, void(network_handle_t, uint32_t, uint32_t, void*))
 23f8cc0:	b509      	push	{r0, r3, lr}
 23f8cc2:	4804      	ldr	r0, [pc, #16]	; (23f8cd4 <network_connect+0x14>)
 23f8cc4:	6800      	ldr	r0, [r0, #0]
 23f8cc6:	4b04      	ldr	r3, [pc, #16]	; (23f8cd8 <network_connect+0x18>)
 23f8cc8:	4403      	add	r3, r0
 23f8cca:	681b      	ldr	r3, [r3, #0]
 23f8ccc:	685b      	ldr	r3, [r3, #4]
 23f8cce:	9302      	str	r3, [sp, #8]
 23f8cd0:	bd09      	pop	{r0, r3, pc}
 23f8cd2:	0000      	.short	0x0000
 23f8cd4:	1006196c 	.word	0x1006196c
 23f8cd8:	00000028 	.word	0x00000028

023f8cdc <network_connecting>:
DYNALIB_FN(2, system_net, network_connecting, bool(network_handle_t, uint32_t, void*))
 23f8cdc:	b509      	push	{r0, r3, lr}
 23f8cde:	4804      	ldr	r0, [pc, #16]	; (23f8cf0 <network_connecting+0x14>)
 23f8ce0:	6800      	ldr	r0, [r0, #0]
 23f8ce2:	4b04      	ldr	r3, [pc, #16]	; (23f8cf4 <network_connecting+0x18>)
 23f8ce4:	4403      	add	r3, r0
 23f8ce6:	681b      	ldr	r3, [r3, #0]
 23f8ce8:	689b      	ldr	r3, [r3, #8]
 23f8cea:	9302      	str	r3, [sp, #8]
 23f8cec:	bd09      	pop	{r0, r3, pc}
 23f8cee:	0000      	.short	0x0000
 23f8cf0:	1006196c 	.word	0x1006196c
 23f8cf4:	00000028 	.word	0x00000028

023f8cf8 <network_disconnect>:
DYNALIB_FN(3, system_net, network_disconnect, void(network_handle_t, uint32_t, void*))
 23f8cf8:	b509      	push	{r0, r3, lr}
 23f8cfa:	4804      	ldr	r0, [pc, #16]	; (23f8d0c <network_disconnect+0x14>)
 23f8cfc:	6800      	ldr	r0, [r0, #0]
 23f8cfe:	4b04      	ldr	r3, [pc, #16]	; (23f8d10 <network_disconnect+0x18>)
 23f8d00:	4403      	add	r3, r0
 23f8d02:	681b      	ldr	r3, [r3, #0]
 23f8d04:	68db      	ldr	r3, [r3, #12]
 23f8d06:	9302      	str	r3, [sp, #8]
 23f8d08:	bd09      	pop	{r0, r3, pc}
 23f8d0a:	0000      	.short	0x0000
 23f8d0c:	1006196c 	.word	0x1006196c
 23f8d10:	00000028 	.word	0x00000028

023f8d14 <network_ready>:
DYNALIB_FN(4, system_net, network_ready, bool(network_handle_t, uint32_t, void*))
 23f8d14:	b509      	push	{r0, r3, lr}
 23f8d16:	4804      	ldr	r0, [pc, #16]	; (23f8d28 <network_ready+0x14>)
 23f8d18:	6800      	ldr	r0, [r0, #0]
 23f8d1a:	4b04      	ldr	r3, [pc, #16]	; (23f8d2c <network_ready+0x18>)
 23f8d1c:	4403      	add	r3, r0
 23f8d1e:	681b      	ldr	r3, [r3, #0]
 23f8d20:	691b      	ldr	r3, [r3, #16]
 23f8d22:	9302      	str	r3, [sp, #8]
 23f8d24:	bd09      	pop	{r0, r3, pc}
 23f8d26:	0000      	.short	0x0000
 23f8d28:	1006196c 	.word	0x1006196c
 23f8d2c:	00000028 	.word	0x00000028

023f8d30 <network_on>:
DYNALIB_FN(5, system_net, network_on, void(network_handle_t, uint32_t, uint32_t, void*))
 23f8d30:	b509      	push	{r0, r3, lr}
 23f8d32:	4804      	ldr	r0, [pc, #16]	; (23f8d44 <network_on+0x14>)
 23f8d34:	6800      	ldr	r0, [r0, #0]
 23f8d36:	4b04      	ldr	r3, [pc, #16]	; (23f8d48 <network_on+0x18>)
 23f8d38:	4403      	add	r3, r0
 23f8d3a:	681b      	ldr	r3, [r3, #0]
 23f8d3c:	695b      	ldr	r3, [r3, #20]
 23f8d3e:	9302      	str	r3, [sp, #8]
 23f8d40:	bd09      	pop	{r0, r3, pc}
 23f8d42:	0000      	.short	0x0000
 23f8d44:	1006196c 	.word	0x1006196c
 23f8d48:	00000028 	.word	0x00000028

023f8d4c <network_off>:
DYNALIB_FN(6, system_net, network_off, void(network_handle_t, uint32_t, uint32_t, void*))
 23f8d4c:	b509      	push	{r0, r3, lr}
 23f8d4e:	4804      	ldr	r0, [pc, #16]	; (23f8d60 <network_off+0x14>)
 23f8d50:	6800      	ldr	r0, [r0, #0]
 23f8d52:	4b04      	ldr	r3, [pc, #16]	; (23f8d64 <network_off+0x18>)
 23f8d54:	4403      	add	r3, r0
 23f8d56:	681b      	ldr	r3, [r3, #0]
 23f8d58:	699b      	ldr	r3, [r3, #24]
 23f8d5a:	9302      	str	r3, [sp, #8]
 23f8d5c:	bd09      	pop	{r0, r3, pc}
 23f8d5e:	0000      	.short	0x0000
 23f8d60:	1006196c 	.word	0x1006196c
 23f8d64:	00000028 	.word	0x00000028

023f8d68 <network_listen>:
DYNALIB_FN(7, system_net, network_listen, void(network_handle_t, uint32_t, void*))
 23f8d68:	b509      	push	{r0, r3, lr}
 23f8d6a:	4804      	ldr	r0, [pc, #16]	; (23f8d7c <network_listen+0x14>)
 23f8d6c:	6800      	ldr	r0, [r0, #0]
 23f8d6e:	4b04      	ldr	r3, [pc, #16]	; (23f8d80 <network_listen+0x18>)
 23f8d70:	4403      	add	r3, r0
 23f8d72:	681b      	ldr	r3, [r3, #0]
 23f8d74:	69db      	ldr	r3, [r3, #28]
 23f8d76:	9302      	str	r3, [sp, #8]
 23f8d78:	bd09      	pop	{r0, r3, pc}
 23f8d7a:	0000      	.short	0x0000
 23f8d7c:	1006196c 	.word	0x1006196c
 23f8d80:	00000028 	.word	0x00000028

023f8d84 <network_listening>:
DYNALIB_FN(8, system_net, network_listening, bool(network_handle_t, uint32_t, void*))
 23f8d84:	b509      	push	{r0, r3, lr}
 23f8d86:	4804      	ldr	r0, [pc, #16]	; (23f8d98 <network_listening+0x14>)
 23f8d88:	6800      	ldr	r0, [r0, #0]
 23f8d8a:	4b04      	ldr	r3, [pc, #16]	; (23f8d9c <network_listening+0x18>)
 23f8d8c:	4403      	add	r3, r0
 23f8d8e:	681b      	ldr	r3, [r3, #0]
 23f8d90:	6a1b      	ldr	r3, [r3, #32]
 23f8d92:	9302      	str	r3, [sp, #8]
 23f8d94:	bd09      	pop	{r0, r3, pc}
 23f8d96:	0000      	.short	0x0000
 23f8d98:	1006196c 	.word	0x1006196c
 23f8d9c:	00000028 	.word	0x00000028

023f8da0 <network_set_listen_timeout>:
DYNALIB_FN(9, system_net, network_has_credentials, bool(network_handle_t, uint32_t, void*))
DYNALIB_FN(10, system_net, network_set_credentials, int(network_handle_t, uint32_t, NetworkCredentials*, void*))
DYNALIB_FN(11, system_net, network_clear_credentials, bool(network_handle_t, uint32_t, NetworkCredentials*, void*))
DYNALIB_FN(12, system_net, network_set_listen_timeout, void(network_handle_t, uint16_t, void*))
 23f8da0:	b509      	push	{r0, r3, lr}
 23f8da2:	4804      	ldr	r0, [pc, #16]	; (23f8db4 <network_set_listen_timeout+0x14>)
 23f8da4:	6800      	ldr	r0, [r0, #0]
 23f8da6:	4b04      	ldr	r3, [pc, #16]	; (23f8db8 <network_set_listen_timeout+0x18>)
 23f8da8:	4403      	add	r3, r0
 23f8daa:	681b      	ldr	r3, [r3, #0]
 23f8dac:	6b1b      	ldr	r3, [r3, #48]	; 0x30
 23f8dae:	9302      	str	r3, [sp, #8]
 23f8db0:	bd09      	pop	{r0, r3, pc}
 23f8db2:	0000      	.short	0x0000
 23f8db4:	1006196c 	.word	0x1006196c
 23f8db8:	00000028 	.word	0x00000028

023f8dbc <network_get_listen_timeout>:
DYNALIB_FN(13, system_net, network_get_listen_timeout, uint16_t(network_handle_t, uint32_t, void*))
 23f8dbc:	b509      	push	{r0, r3, lr}
 23f8dbe:	4804      	ldr	r0, [pc, #16]	; (23f8dd0 <network_get_listen_timeout+0x14>)
 23f8dc0:	6800      	ldr	r0, [r0, #0]
 23f8dc2:	4b04      	ldr	r3, [pc, #16]	; (23f8dd4 <network_get_listen_timeout+0x18>)
 23f8dc4:	4403      	add	r3, r0
 23f8dc6:	681b      	ldr	r3, [r3, #0]
 23f8dc8:	6b5b      	ldr	r3, [r3, #52]	; 0x34
 23f8dca:	9302      	str	r3, [sp, #8]
 23f8dcc:	bd09      	pop	{r0, r3, pc}
 23f8dce:	0000      	.short	0x0000
 23f8dd0:	1006196c 	.word	0x1006196c
 23f8dd4:	00000028 	.word	0x00000028

023f8dd8 <network_is_on>:
DYNALIB_FN(14, system_net, network_set_hostname, int(network_handle_t, uint32_t, const char*, void*))
DYNALIB_FN(15, system_net, network_get_hostname, int(network_handle_t, uint32_t, char*, size_t, void*))
DYNALIB_FN(16, system_net, network_is_on, bool(network_handle_t, void*))
 23f8dd8:	b509      	push	{r0, r3, lr}
 23f8dda:	4804      	ldr	r0, [pc, #16]	; (23f8dec <network_is_on+0x14>)
 23f8ddc:	6800      	ldr	r0, [r0, #0]
 23f8dde:	4b04      	ldr	r3, [pc, #16]	; (23f8df0 <network_is_on+0x18>)
 23f8de0:	4403      	add	r3, r0
 23f8de2:	681b      	ldr	r3, [r3, #0]
 23f8de4:	6c1b      	ldr	r3, [r3, #64]	; 0x40
 23f8de6:	9302      	str	r3, [sp, #8]
 23f8de8:	bd09      	pop	{r0, r3, pc}
 23f8dea:	0000      	.short	0x0000
 23f8dec:	1006196c 	.word	0x1006196c
 23f8df0:	00000028 	.word	0x00000028

023f8df4 <network_is_off>:
DYNALIB_FN(17, system_net, network_is_off, bool(network_handle_t, void*))
 23f8df4:	b509      	push	{r0, r3, lr}
 23f8df6:	4804      	ldr	r0, [pc, #16]	; (23f8e08 <network_is_off+0x14>)
 23f8df8:	6800      	ldr	r0, [r0, #0]
 23f8dfa:	4b04      	ldr	r3, [pc, #16]	; (23f8e0c <network_is_off+0x18>)
 23f8dfc:	4403      	add	r3, r0
 23f8dfe:	681b      	ldr	r3, [r3, #0]
 23f8e00:	6c5b      	ldr	r3, [r3, #68]	; 0x44
 23f8e02:	9302      	str	r3, [sp, #8]
 23f8e04:	bd09      	pop	{r0, r3, pc}
 23f8e06:	0000      	.short	0x0000
 23f8e08:	1006196c 	.word	0x1006196c
 23f8e0c:	00000028 	.word	0x00000028

023f8e10 <network_preferred>:
DYNALIB_FN(18, system_net, network_set_configuration, int(network_handle_t, const network_configuration_t*, void*))
DYNALIB_FN(19, system_net, network_get_configuration, int(network_handle_t, network_configuration_t**, size_t*, const char*, size_t, void*))
DYNALIB_FN(20, system_net, network_free_configuration, int(network_configuration_t*, size_t, void*))
DYNALIB_FN(21, system_net, network_preferred, network_handle_t(network_handle_t, bool, void*))
 23f8e10:	b509      	push	{r0, r3, lr}
 23f8e12:	4804      	ldr	r0, [pc, #16]	; (23f8e24 <network_preferred+0x14>)
 23f8e14:	6800      	ldr	r0, [r0, #0]
 23f8e16:	4b04      	ldr	r3, [pc, #16]	; (23f8e28 <network_preferred+0x18>)
 23f8e18:	4403      	add	r3, r0
 23f8e1a:	681b      	ldr	r3, [r3, #0]
 23f8e1c:	6d5b      	ldr	r3, [r3, #84]	; 0x54
 23f8e1e:	9302      	str	r3, [sp, #8]
 23f8e20:	bd09      	pop	{r0, r3, pc}
 23f8e22:	0000      	.short	0x0000
 23f8e24:	1006196c 	.word	0x1006196c
 23f8e28:	00000028 	.word	0x00000028

023f8e2c <network_is_preferred>:
DYNALIB_FN(22, system_net, network_is_preferred, bool(network_handle_t, void*))
 23f8e2c:	b509      	push	{r0, r3, lr}
 23f8e2e:	4804      	ldr	r0, [pc, #16]	; (23f8e40 <network_is_preferred+0x14>)
 23f8e30:	6800      	ldr	r0, [r0, #0]
 23f8e32:	4b04      	ldr	r3, [pc, #16]	; (23f8e44 <network_is_preferred+0x18>)
 23f8e34:	4403      	add	r3, r0
 23f8e36:	681b      	ldr	r3, [r3, #0]
 23f8e38:	6d9b      	ldr	r3, [r3, #88]	; 0x58
 23f8e3a:	9302      	str	r3, [sp, #8]
 23f8e3c:	bd09      	pop	{r0, r3, pc}
 23f8e3e:	0000      	.short	0x0000
 23f8e40:	1006196c 	.word	0x1006196c
 23f8e44:	00000028 	.word	0x00000028

023f8e48 <spark_set_random_seed_from_cloud_handler>:
DYNALIB_FN(10, system_cloud, spark_unsubscribe, void(void*))
DYNALIB_FN(11, system_cloud, spark_sync_time, bool(void*))
DYNALIB_FN(12, system_cloud, spark_sync_time_pending, bool(void*))
DYNALIB_FN(13, system_cloud, spark_sync_time_last, system_tick_t(time32_t*, time_t*))
DYNALIB_FN(14, system_cloud, spark_set_connection_property, int(unsigned, unsigned, const void*, void*))
DYNALIB_FN(15, system_cloud, spark_set_random_seed_from_cloud_handler, int(void (*handler)(unsigned int), void*))
 23f8e48:	b509      	push	{r0, r3, lr}
 23f8e4a:	4804      	ldr	r0, [pc, #16]	; (23f8e5c <spark_set_random_seed_from_cloud_handler+0x14>)
 23f8e4c:	6800      	ldr	r0, [r0, #0]
 23f8e4e:	4b04      	ldr	r3, [pc, #16]	; (23f8e60 <spark_set_random_seed_from_cloud_handler+0x18>)
 23f8e50:	4403      	add	r3, r0
 23f8e52:	681b      	ldr	r3, [r3, #0]
 23f8e54:	6bdb      	ldr	r3, [r3, #60]	; 0x3c
 23f8e56:	9302      	str	r3, [sp, #8]
 23f8e58:	bd09      	pop	{r0, r3, pc}
 23f8e5a:	0000      	.short	0x0000
 23f8e5c:	1006196c 	.word	0x1006196c
 23f8e60:	0000002c 	.word	0x0000002c

023f8e64 <malloc>:
#include "hal_platform.h"
#endif // defined(DYNALIB_EXPORT) || (defined(DYNALIB_IMPORT) && !defined(RT_DYNALIB_NO_DEPENDENCY_BREAKING_IMPORTS))

DYNALIB_BEGIN(rt)

DYNALIB_FN(0, rt, malloc, void*(size_t))
 23f8e64:	b509      	push	{r0, r3, lr}
 23f8e66:	4804      	ldr	r0, [pc, #16]	; (23f8e78 <malloc+0x14>)
 23f8e68:	6800      	ldr	r0, [r0, #0]
 23f8e6a:	4b04      	ldr	r3, [pc, #16]	; (23f8e7c <malloc+0x18>)
 23f8e6c:	4403      	add	r3, r0
 23f8e6e:	681b      	ldr	r3, [r3, #0]
 23f8e70:	681b      	ldr	r3, [r3, #0]
 23f8e72:	9302      	str	r3, [sp, #8]
 23f8e74:	bd09      	pop	{r0, r3, pc}
 23f8e76:	0000      	.short	0x0000
 23f8e78:	1006196c 	.word	0x1006196c
 23f8e7c:	00000004 	.word	0x00000004

023f8e80 <free>:
DYNALIB_FN(1, rt, free, void(void*))
 23f8e80:	b509      	push	{r0, r3, lr}
 23f8e82:	4804      	ldr	r0, [pc, #16]	; (23f8e94 <free+0x14>)
 23f8e84:	6800      	ldr	r0, [r0, #0]
 23f8e86:	4b04      	ldr	r3, [pc, #16]	; (23f8e98 <free+0x18>)
 23f8e88:	4403      	add	r3, r0
 23f8e8a:	681b      	ldr	r3, [r3, #0]
 23f8e8c:	685b      	ldr	r3, [r3, #4]
 23f8e8e:	9302      	str	r3, [sp, #8]
 23f8e90:	bd09      	pop	{r0, r3, pc}
 23f8e92:	0000      	.short	0x0000
 23f8e94:	1006196c 	.word	0x1006196c
 23f8e98:	00000004 	.word	0x00000004

023f8e9c <abort>:
DYNALIB_FN(6, rt, siscanf, int(const char*, const char*, ...))
DYNALIB_FN(7, rt, snprintf, int(char*, size_t, const char*, ...))
DYNALIB_FN(8, rt, sniprintf, int(char*, size_t, const char*, ...))
DYNALIB_FN(9, rt, vsnprintf, int(char*, size_t, const char*, va_list))
DYNALIB_FN(10, rt, vsniprintf, int(char*, size_t, const char*, va_list))
DYNALIB_FN(11, rt, abort, void(void))
 23f8e9c:	b509      	push	{r0, r3, lr}
 23f8e9e:	4804      	ldr	r0, [pc, #16]	; (23f8eb0 <abort+0x14>)
 23f8ea0:	6800      	ldr	r0, [r0, #0]
 23f8ea2:	4b04      	ldr	r3, [pc, #16]	; (23f8eb4 <abort+0x18>)
 23f8ea4:	4403      	add	r3, r0
 23f8ea6:	681b      	ldr	r3, [r3, #0]
 23f8ea8:	6adb      	ldr	r3, [r3, #44]	; 0x2c
 23f8eaa:	9302      	str	r3, [sp, #8]
 23f8eac:	bd09      	pop	{r0, r3, pc}
 23f8eae:	0000      	.short	0x0000
 23f8eb0:	1006196c 	.word	0x1006196c
 23f8eb4:	00000004 	.word	0x00000004

023f8eb8 <__errno>:
DYNALIB_FN(12, rt, _malloc_r, void*(struct _reent*, size_t))
DYNALIB_FN(13, rt, _free_r, void(struct _reent*, void*))
DYNALIB_FN(14, rt, _realloc_r, void*(struct _reent*, void*, size_t))
DYNALIB_FN(15, rt, __errno, int*())
 23f8eb8:	b509      	push	{r0, r3, lr}
 23f8eba:	4804      	ldr	r0, [pc, #16]	; (23f8ecc <__errno+0x14>)
 23f8ebc:	6800      	ldr	r0, [r0, #0]
 23f8ebe:	4b04      	ldr	r3, [pc, #16]	; (23f8ed0 <__errno+0x18>)
 23f8ec0:	4403      	add	r3, r0
 23f8ec2:	681b      	ldr	r3, [r3, #0]
 23f8ec4:	6bdb      	ldr	r3, [r3, #60]	; 0x3c
 23f8ec6:	9302      	str	r3, [sp, #8]
 23f8ec8:	bd09      	pop	{r0, r3, pc}
 23f8eca:	0000      	.short	0x0000
 23f8ecc:	1006196c 	.word	0x1006196c
 23f8ed0:	00000004 	.word	0x00000004

023f8ed4 <__assert_func>:

#if defined(DYNALIB_EXPORT) || (defined(DYNALIB_IMPORT) && !defined(RT_DYNALIB_NO_DEPENDENCY_BREAKING_IMPORTS))
DYNALIB_FN(16, rt, __assert_func, void(const char*, int, const char*, const char*))
 23f8ed4:	b509      	push	{r0, r3, lr}
 23f8ed6:	4804      	ldr	r0, [pc, #16]	; (23f8ee8 <__assert_func+0x14>)
 23f8ed8:	6800      	ldr	r0, [r0, #0]
 23f8eda:	4b04      	ldr	r3, [pc, #16]	; (23f8eec <__assert_func+0x18>)
 23f8edc:	4403      	add	r3, r0
 23f8ede:	681b      	ldr	r3, [r3, #0]
 23f8ee0:	6c1b      	ldr	r3, [r3, #64]	; 0x40
 23f8ee2:	9302      	str	r3, [sp, #8]
 23f8ee4:	bd09      	pop	{r0, r3, pc}
 23f8ee6:	0000      	.short	0x0000
 23f8ee8:	1006196c 	.word	0x1006196c
 23f8eec:	00000004 	.word	0x00000004

023f8ef0 <newlib_impure_ptr_callback>:
DYNALIB_FN(17, rt, newlib_impure_ptr_callback, void(void (*)(struct _reent*, size_t, uint32_t, void*), void*))
 23f8ef0:	b509      	push	{r0, r3, lr}
 23f8ef2:	4804      	ldr	r0, [pc, #16]	; (23f8f04 <newlib_impure_ptr_callback+0x14>)
 23f8ef4:	6800      	ldr	r0, [r0, #0]
 23f8ef6:	4b04      	ldr	r3, [pc, #16]	; (23f8f08 <newlib_impure_ptr_callback+0x18>)
 23f8ef8:	4403      	add	r3, r0
 23f8efa:	681b      	ldr	r3, [r3, #0]
 23f8efc:	6c5b      	ldr	r3, [r3, #68]	; 0x44
 23f8efe:	9302      	str	r3, [sp, #8]
 23f8f00:	bd09      	pop	{r0, r3, pc}
 23f8f02:	0000      	.short	0x0000
 23f8f04:	1006196c 	.word	0x1006196c
 23f8f08:	00000004 	.word	0x00000004

023f8f0c <_ZN5spark13EthernetClass9listeningEv>:
    uint16_t getListenTimeout(void) {
        return network_get_listen_timeout(*this, 0, NULL);
    }

    bool listening(void) {
        return network_listening(*this, 0, NULL);
 23f8f0c:	2200      	movs	r2, #0
 23f8f0e:	6840      	ldr	r0, [r0, #4]
 23f8f10:	4611      	mov	r1, r2
 23f8f12:	f7ff bf37 	b.w	23f8d84 <network_listening>

023f8f16 <_ZN5spark13EthernetClass16getListenTimeoutEv>:
        return network_get_listen_timeout(*this, 0, NULL);
 23f8f16:	2200      	movs	r2, #0
 23f8f18:	6840      	ldr	r0, [r0, #4]
 23f8f1a:	4611      	mov	r1, r2
 23f8f1c:	f7ff bf4e 	b.w	23f8dbc <network_get_listen_timeout>

023f8f20 <_ZN5spark13EthernetClass16setListenTimeoutEt>:
        network_set_listen_timeout(*this, timeout, NULL);
 23f8f20:	2200      	movs	r2, #0
 23f8f22:	6840      	ldr	r0, [r0, #4]
 23f8f24:	f7ff bf3c 	b.w	23f8da0 <network_set_listen_timeout>

023f8f28 <_ZN5spark13EthernetClass6listenEb>:
        network_listen(*this, begin ? 0 : 1, NULL);
 23f8f28:	2200      	movs	r2, #0
 23f8f2a:	6840      	ldr	r0, [r0, #4]
 23f8f2c:	f081 0101 	eor.w	r1, r1, #1
 23f8f30:	f7ff bf1a 	b.w	23f8d68 <network_listen>

023f8f34 <_ZN5spark13EthernetClass3offEv>:
        network_off(*this, 0, 0, NULL);
 23f8f34:	2300      	movs	r3, #0
 23f8f36:	6840      	ldr	r0, [r0, #4]
 23f8f38:	461a      	mov	r2, r3
 23f8f3a:	4619      	mov	r1, r3
 23f8f3c:	f7ff bf06 	b.w	23f8d4c <network_off>

023f8f40 <_ZN5spark13EthernetClass2onEv>:
        network_on(*this, 0, 0, NULL);
 23f8f40:	2300      	movs	r3, #0
 23f8f42:	6840      	ldr	r0, [r0, #4]
 23f8f44:	461a      	mov	r2, r3
 23f8f46:	4619      	mov	r1, r3
 23f8f48:	f7ff bef2 	b.w	23f8d30 <network_on>

023f8f4c <_ZN5spark13EthernetClass5readyEv>:
    }

    bool ready() {
        return network_ready(*this, 0,  NULL);
 23f8f4c:	2200      	movs	r2, #0
 23f8f4e:	6840      	ldr	r0, [r0, #4]
 23f8f50:	4611      	mov	r1, r2
 23f8f52:	f7ff bedf 	b.w	23f8d14 <network_ready>

023f8f56 <_ZN5spark13EthernetClass10connectingEv>:
        return network_connecting(*this, 0, NULL);
 23f8f56:	2200      	movs	r2, #0
 23f8f58:	6840      	ldr	r0, [r0, #4]
 23f8f5a:	4611      	mov	r1, r2
 23f8f5c:	f7ff bebe 	b.w	23f8cdc <network_connecting>

023f8f60 <_ZN5spark13EthernetClass10disconnectEv>:
        network_disconnect(*this, NETWORK_DISCONNECT_REASON_USER, NULL);
 23f8f60:	2200      	movs	r2, #0
 23f8f62:	2102      	movs	r1, #2
 23f8f64:	6840      	ldr	r0, [r0, #4]
 23f8f66:	f7ff bec7 	b.w	23f8cf8 <network_disconnect>

023f8f6a <_ZN5spark13EthernetClass7connectEj>:
        network_connect(*this, flags, 0, NULL);
 23f8f6a:	2300      	movs	r3, #0
 23f8f6c:	6840      	ldr	r0, [r0, #4]
 23f8f6e:	461a      	mov	r2, r3
 23f8f70:	f7ff bea6 	b.w	23f8cc0 <network_connect>

023f8f74 <_GLOBAL__sub_I__ZN5spark8EthernetE>:
    static NetworkClass& from(network_interface_t nif);

    virtual IPAddress resolve(const char* name);

    explicit NetworkClass(network_interface_t iface)
            : iface_(iface) {
 23f8f74:	2203      	movs	r2, #3
 23f8f76:	4b02      	ldr	r3, [pc, #8]	; (23f8f80 <_GLOBAL__sub_I__ZN5spark8EthernetE+0xc>)
 23f8f78:	605a      	str	r2, [r3, #4]
            NetworkClass(NETWORK_INTERFACE_ETHERNET) {
 23f8f7a:	4a02      	ldr	r2, [pc, #8]	; (23f8f84 <_GLOBAL__sub_I__ZN5spark8EthernetE+0x10>)
 23f8f7c:	601a      	str	r2, [r3, #0]

namespace spark {

EthernetClass Ethernet;

} // spark
 23f8f7e:	4770      	bx	lr
 23f8f80:	1007ae8c 	.word	0x1007ae8c
 23f8f84:	023ffb8c 	.word	0x023ffb8c

023f8f88 <_ZN8SPIClassC1E19hal_spi_interface_t>:
    }
    return particle::SPISettings(info->clock, info->bit_order, info->data_mode);
}
} // namespace

SPIClass::SPIClass(hal_spi_interface_t spi)
 23f8f88:	b510      	push	{r4, lr}
 23f8f8a:	4604      	mov	r4, r0
 23f8f8c:	4608      	mov	r0, r1
{
    _spi = spi;
 23f8f8e:	7021      	strb	r1, [r4, #0]
    hal_spi_init(_spi);
 23f8f90:	f7ff fde0 	bl	23f8b54 <hal_spi_init>
    _dividerReference = SPI_CLK_SYSTEM; // 0 indicates the system clock
 23f8f94:	2300      	movs	r3, #0
}
 23f8f96:	4620      	mov	r0, r4
    _dividerReference = SPI_CLK_SYSTEM; // 0 indicates the system clock
 23f8f98:	6063      	str	r3, [r4, #4]
}
 23f8f9a:	bd10      	pop	{r4, pc}

023f8f9c <_GLOBAL__sub_I_System>:
} // namespace particle

// particle::Flag<TagT, ValueT>
template<typename TagT, typename ValueT>
inline particle::Flag<TagT, ValueT>::Flag(ValueT val) :
        val_(val) {
 23f8f9c:	2202      	movs	r2, #2

class SystemSleepResult {
public:
    SystemSleepResult()
            : wakeupSource_(nullptr),
              error_(SYSTEM_ERROR_NONE) {
 23f8f9e:	2000      	movs	r0, #0
 23f8fa0:	4b04      	ldr	r3, [pc, #16]	; (23f8fb4 <_GLOBAL__sub_I_System+0x18>)
 23f8fa2:	601a      	str	r2, [r3, #0]
 23f8fa4:	4b04      	ldr	r3, [pc, #16]	; (23f8fb8 <_GLOBAL__sub_I_System+0x1c>)
    SleepResult() {}
 23f8fa6:	4a05      	ldr	r2, [pc, #20]	; (23f8fbc <_GLOBAL__sub_I_System+0x20>)
              error_(SYSTEM_ERROR_NONE) {
 23f8fa8:	e9c3 0000 	strd	r0, r0, [r3]
    SleepResult() {}
 23f8fac:	609a      	str	r2, [r3, #8]

class SystemClass {
public:

    SystemClass(System_Mode_TypeDef mode = DEFAULT) {
        set_system_mode(mode);
 23f8fae:	f7ff be4f 	b.w	23f8c50 <set_system_mode>
 23f8fb2:	bf00      	nop
 23f8fb4:	1007aea0 	.word	0x1007aea0
 23f8fb8:	1007ae94 	.word	0x1007ae94
 23f8fbc:	ffff0000 	.word	0xffff0000

023f8fc0 <_GLOBAL__sub_I__ZN8particle3ble13WiringBleLock6mutex_E>:
    /**
     * Creates a shared mutex.
     */
    RecursiveMutex(os_mutex_recursive_t handle) : handle_(handle) {}

    RecursiveMutex() : handle_(nullptr)
 23f8fc0:	2300      	movs	r3, #0
 23f8fc2:	4802      	ldr	r0, [pc, #8]	; (23f8fcc <_GLOBAL__sub_I__ZN8particle3ble13WiringBleLock6mutex_E+0xc>)
 23f8fc4:	6003      	str	r3, [r0, #0]
    {
        os_mutex_recursive_create(&handle_);
 23f8fc6:	f7ff bcd7 	b.w	23f8978 <os_mutex_recursive_create>
 23f8fca:	bf00      	nop
 23f8fcc:	1007aea4 	.word	0x1007aea4

023f8fd0 <_ZN5Print5writeEPKhj>:

// Public Methods //////////////////////////////////////////////////////////////

/* default implementation: may be overridden */
size_t Print::write(const uint8_t *buffer, size_t size)
{
 23f8fd0:	b5f8      	push	{r3, r4, r5, r6, r7, lr}
 23f8fd2:	4606      	mov	r6, r0
 23f8fd4:	460d      	mov	r5, r1
  size_t n = 0;
 23f8fd6:	2400      	movs	r4, #0
 23f8fd8:	188f      	adds	r7, r1, r2
  while (size--) {
 23f8fda:	42bd      	cmp	r5, r7
 23f8fdc:	d00c      	beq.n	23f8ff8 <_ZN5Print5writeEPKhj+0x28>
     int chunk = write(*buffer++);
 23f8fde:	6833      	ldr	r3, [r6, #0]
 23f8fe0:	4630      	mov	r0, r6
 23f8fe2:	689b      	ldr	r3, [r3, #8]
 23f8fe4:	f815 1b01 	ldrb.w	r1, [r5], #1
 23f8fe8:	4798      	blx	r3
     if (chunk>=0)
 23f8fea:	1e03      	subs	r3, r0, #0
 23f8fec:	db01      	blt.n	23f8ff2 <_ZN5Print5writeEPKhj+0x22>
         n += chunk;
 23f8fee:	441c      	add	r4, r3
  while (size--) {
 23f8ff0:	e7f3      	b.n	23f8fda <_ZN5Print5writeEPKhj+0xa>
     int chunk = write(*buffer++);
 23f8ff2:	2c00      	cmp	r4, #0
 23f8ff4:	bf08      	it	eq
 23f8ff6:	461c      	moveq	r4, r3
             n = chunk;
         break;
     }
  }
  return n;
}
 23f8ff8:	4620      	mov	r0, r4
 23f8ffa:	bdf8      	pop	{r3, r4, r5, r6, r7, pc}

023f8ffc <_ZN5Print5writeEPKc>:

    int getWriteError() { return write_error; }
    void clearWriteError() { setWriteError(0); }

    virtual size_t write(uint8_t) = 0;
    size_t write(const char *str) {
 23f8ffc:	b513      	push	{r0, r1, r4, lr}
 23f8ffe:	4604      	mov	r4, r0
      if (str == NULL) return 0;
      return write((const uint8_t *)str, strlen(str));
    }
 23f9000:	4608      	mov	r0, r1
      if (str == NULL) return 0;
 23f9002:	b159      	cbz	r1, 23f901c <_ZN5Print5writeEPKc+0x20>
      return write((const uint8_t *)str, strlen(str));
 23f9004:	9101      	str	r1, [sp, #4]
 23f9006:	f7fd fd2b 	bl	23f6a60 <strlen>
 23f900a:	4602      	mov	r2, r0
 23f900c:	4620      	mov	r0, r4
 23f900e:	6823      	ldr	r3, [r4, #0]
 23f9010:	9901      	ldr	r1, [sp, #4]
 23f9012:	68db      	ldr	r3, [r3, #12]
    }
 23f9014:	b002      	add	sp, #8
 23f9016:	e8bd 4010 	ldmia.w	sp!, {r4, lr}
      return write((const uint8_t *)str, strlen(str));
 23f901a:	4718      	bx	r3
    }
 23f901c:	b002      	add	sp, #8
 23f901e:	bd10      	pop	{r4, pc}

023f9020 <_ZN5Print5printEPKc>:

size_t Print::print(const char str[])
{
 23f9020:	b508      	push	{r3, lr}
  return write(str);
 23f9022:	f7ff ffeb 	bl	23f8ffc <_ZN5Print5writeEPKc>
}
 23f9026:	bd08      	pop	{r3, pc}

023f9028 <_ZN5Print5printEc>:

size_t Print::print(char c)
{
  return write(c);
 23f9028:	6803      	ldr	r3, [r0, #0]
 23f902a:	689b      	ldr	r3, [r3, #8]
 23f902c:	4718      	bx	r3

023f902e <_ZN5Print7printlnEv>:
{
  return print(reinterpret_cast<const char*>(str));
}

size_t Print::println(void)
{
 23f902e:	b538      	push	{r3, r4, r5, lr}
  size_t n = print('\r');
 23f9030:	210d      	movs	r1, #13
{
 23f9032:	4605      	mov	r5, r0
  size_t n = print('\r');
 23f9034:	f7ff fff8 	bl	23f9028 <_ZN5Print5printEc>
  n += print('\n');
 23f9038:	210a      	movs	r1, #10
  size_t n = print('\r');
 23f903a:	4604      	mov	r4, r0
  n += print('\n');
 23f903c:	4628      	mov	r0, r5
 23f903e:	f7ff fff3 	bl	23f9028 <_ZN5Print5printEc>
  return n;
}
 23f9042:	4420      	add	r0, r4
 23f9044:	bd38      	pop	{r3, r4, r5, pc}

023f9046 <_ZN5Print7printlnEPKc>:

size_t Print::println(const char c[])
{
 23f9046:	b538      	push	{r3, r4, r5, lr}
 23f9048:	4605      	mov	r5, r0
  return write(str);
 23f904a:	f7ff ffd7 	bl	23f8ffc <_ZN5Print5writeEPKc>
 23f904e:	4604      	mov	r4, r0
  size_t n = print(c);
  n += println();
 23f9050:	4628      	mov	r0, r5
 23f9052:	f7ff ffec 	bl	23f902e <_ZN5Print7printlnEv>
  return n;
}
 23f9056:	4420      	add	r0, r4
 23f9058:	bd38      	pop	{r3, r4, r5, pc}

023f905a <_ZN5Print11printNumberEmh>:

size_t Print::printNumber(unsigned long n, uint8_t base) {
  char buf[8 * sizeof(n) + 1]; // Assumes 8-bit chars plus zero byte.
  char *str = &buf[sizeof(buf) - 1];

  *str = '\0';
 23f905a:	2300      	movs	r3, #0

  // prevent crash if called with base == 1
  if (base < 2) base = 10;
 23f905c:	2a01      	cmp	r2, #1
 23f905e:	bf98      	it	ls
 23f9060:	220a      	movls	r2, #10
size_t Print::printNumber(unsigned long n, uint8_t base) {
 23f9062:	b530      	push	{r4, r5, lr}
 23f9064:	b08b      	sub	sp, #44	; 0x2c
  *str = '\0';
 23f9066:	f88d 3024 	strb.w	r3, [sp, #36]	; 0x24
  if (base < 2) base = 10;
 23f906a:	ac09      	add	r4, sp, #36	; 0x24

  do {
   decltype(n) m = n;
   n /= base;
 23f906c:	460d      	mov	r5, r1
 23f906e:	fbb1 f1f2 	udiv	r1, r1, r2
   char c = m - base * n;
 23f9072:	fb01 5312 	mls	r3, r1, r2, r5
 23f9076:	f003 03ff 	and.w	r3, r3, #255	; 0xff
   *--str = c < 10 ? c + '0' : c + 'A' - 10;
 23f907a:	2b09      	cmp	r3, #9
 23f907c:	bf94      	ite	ls
 23f907e:	3330      	addls	r3, #48	; 0x30
 23f9080:	3337      	addhi	r3, #55	; 0x37
 23f9082:	b2db      	uxtb	r3, r3
  } while(n);
 23f9084:	42aa      	cmp	r2, r5
   *--str = c < 10 ? c + '0' : c + 'A' - 10;
 23f9086:	f804 3d01 	strb.w	r3, [r4, #-1]!
  } while(n);
 23f908a:	d9ef      	bls.n	23f906c <_ZN5Print11printNumberEmh+0x12>

  return write(str);
 23f908c:	4621      	mov	r1, r4
 23f908e:	f7ff ffb5 	bl	23f8ffc <_ZN5Print5writeEPKc>
}
 23f9092:	b00b      	add	sp, #44	; 0x2c
 23f9094:	bd30      	pop	{r4, r5, pc}
	...

023f9098 <_GLOBAL__sub_I__ZN5spark3LogE>:
    // This handler doesn't support direct logging
}

// spark::Logger
inline spark::Logger::Logger(const char *name) :
        name_(name) {
 23f9098:	4b01      	ldr	r3, [pc, #4]	; (23f90a0 <_GLOBAL__sub_I__ZN5spark3LogE+0x8>)
 23f909a:	4a02      	ldr	r2, [pc, #8]	; (23f90a4 <_GLOBAL__sub_I__ZN5spark3LogE+0xc>)
 23f909c:	601a      	str	r2, [r3, #0]
#if Wiring_LogConfig

// spark::
void spark::logProcessControlRequest(ctrl_request* req) {
    JSONRequestHandler::process(req);
}
 23f909e:	4770      	bx	lr
 23f90a0:	1007aea8 	.word	0x1007aea8
 23f90a4:	023ffbc8 	.word	0x023ffbc8

023f90a8 <_GLOBAL__sub_I_TIME_FORMAT_DEFAULT>:
            calendar_time_cache = Convert_UnixTime_To_CalendarTime(unix_time);
            unix_time_cache = unix_time;
    }
}

const char* TimeClass::format_spec = TIME_FORMAT_DEFAULT;
 23f90a8:	4b02      	ldr	r3, [pc, #8]	; (23f90b4 <_GLOBAL__sub_I_TIME_FORMAT_DEFAULT+0xc>)
 23f90aa:	681a      	ldr	r2, [r3, #0]
 23f90ac:	4b02      	ldr	r3, [pc, #8]	; (23f90b8 <_GLOBAL__sub_I_TIME_FORMAT_DEFAULT+0x10>)
 23f90ae:	601a      	str	r2, [r3, #0]
{
  return isValid();
}


TimeClass Time;
 23f90b0:	4770      	bx	lr
 23f90b2:	bf00      	nop
 23f90b4:	10061984 	.word	0x10061984
 23f90b8:	1007aeac 	.word	0x1007aeac

023f90bc <delay>:
    return (value - fromStart) * (toEnd - toStart) / (fromEnd - fromStart) + toStart;
}

void delay(unsigned long ms)
{
    system_delay_ms(ms, false);
 23f90bc:	2100      	movs	r1, #0
 23f90be:	f7ff bdd5 	b.w	23f8c6c <system_delay_ms>
	...

023f90c4 <_GLOBAL__sub_I_RGB>:
    _Function_base() : _M_manager(nullptr) { }
 23f90c4:	2200      	movs	r2, #0
 23f90c6:	4b01      	ldr	r3, [pc, #4]	; (23f90cc <_GLOBAL__sub_I_RGB+0x8>)
 23f90c8:	609a      	str	r2, [r3, #8]
{
    RGBClass* const d = static_cast<RGBClass*>(data);
    if (d->changeHandler_) {
        d->changeHandler_(r, g, b);
    }
}
 23f90ca:	4770      	bx	lr
 23f90cc:	1007aeb0 	.word	0x1007aeb0

023f90d0 <_ZZ21module_user_init_hookENUlP6_reentjmPvE_4_FUNES0_jmS1_>:

void module_user_init_hook()
{
#if HAL_PLATFORM_NEWLIB
    newlib_impure_ptr_callback([](struct _reent* r, size_t size, uint32_t version, void* ctx) -> void {
        _impure_ptr = r;
 23f90d0:	4b01      	ldr	r3, [pc, #4]	; (23f90d8 <_ZZ21module_user_init_hookENUlP6_reentjmPvE_4_FUNES0_jmS1_+0x8>)
 23f90d2:	6018      	str	r0, [r3, #0]
    }, nullptr);
 23f90d4:	4770      	bx	lr
 23f90d6:	bf00      	nop
 23f90d8:	1006198c 	.word	0x1006198c

023f90dc <serialEventRun>:
{
 23f90dc:	b508      	push	{r3, lr}
    if (serialEvent && Serial.available()>0)
 23f90de:	4b0f      	ldr	r3, [pc, #60]	; (23f911c <serialEventRun+0x40>)
 23f90e0:	b143      	cbz	r3, 23f90f4 <serialEventRun+0x18>
 23f90e2:	f000 f973 	bl	23f93cc <_Z16_fetch_usbserialv>
 23f90e6:	6803      	ldr	r3, [r0, #0]
 23f90e8:	691b      	ldr	r3, [r3, #16]
 23f90ea:	4798      	blx	r3
 23f90ec:	2800      	cmp	r0, #0
 23f90ee:	dd01      	ble.n	23f90f4 <serialEventRun+0x18>
        serialEvent();
 23f90f0:	e000      	b.n	23f90f4 <serialEventRun+0x18>
 23f90f2:	bf00      	nop
    if (serialEvent1 && Serial1.available()>0)
 23f90f4:	4b0a      	ldr	r3, [pc, #40]	; (23f9120 <serialEventRun+0x44>)
 23f90f6:	b143      	cbz	r3, 23f910a <serialEventRun+0x2e>
 23f90f8:	f000 fbce 	bl	23f9898 <_Z22__fetch_global_Serial1v>
 23f90fc:	6803      	ldr	r3, [r0, #0]
 23f90fe:	691b      	ldr	r3, [r3, #16]
 23f9100:	4798      	blx	r3
 23f9102:	2800      	cmp	r0, #0
 23f9104:	dd01      	ble.n	23f910a <serialEventRun+0x2e>
        serialEvent1();
 23f9106:	e000      	b.n	23f910a <serialEventRun+0x2e>
 23f9108:	bf00      	nop
    if (serialEvent2) serialEventRun2();
 23f910a:	4b06      	ldr	r3, [pc, #24]	; (23f9124 <serialEventRun+0x48>)
 23f910c:	b10b      	cbz	r3, 23f9112 <serialEventRun+0x36>
 23f910e:	f000 fc09 	bl	23f9924 <_Z15serialEventRun2v>
    if (serialEvent3) serialEventRun3();
 23f9112:	4b05      	ldr	r3, [pc, #20]	; (23f9128 <serialEventRun+0x4c>)
 23f9114:	b10b      	cbz	r3, 23f911a <serialEventRun+0x3e>
 23f9116:	f000 fc3b 	bl	23f9990 <_Z15serialEventRun3v>
}
 23f911a:	bd08      	pop	{r3, pc}
	...

023f912c <_post_loop>:
{
 23f912c:	b508      	push	{r3, lr}
	serialEventRun();
 23f912e:	f7ff ffd5 	bl	23f90dc <serialEventRun>
		return !thread || !thread->isRunning();
	}

	static inline system_tick_t current_time()
	{
		return HAL_Timer_Get_Milli_Seconds();
 23f9132:	f7ff fc13 	bl	23f895c <HAL_Timer_Get_Milli_Seconds>
	/**
	 * Lifesign that the application is still working normally.
	 */
	static void checkin()
	{
		last_checkin = current_time();
 23f9136:	4b01      	ldr	r3, [pc, #4]	; (23f913c <_post_loop+0x10>)
 23f9138:	6018      	str	r0, [r3, #0]
}
 23f913a:	bd08      	pop	{r3, pc}
 23f913c:	1007af44 	.word	0x1007af44

023f9140 <_Z33system_initialize_user_backup_ramv>:
    memcpy(&link_global_retained_start, &link_global_retained_initial_values, len);
 23f9140:	4805      	ldr	r0, [pc, #20]	; (23f9158 <_Z33system_initialize_user_backup_ramv+0x18>)
 23f9142:	4a06      	ldr	r2, [pc, #24]	; (23f915c <_Z33system_initialize_user_backup_ramv+0x1c>)
{
 23f9144:	b508      	push	{r3, lr}
    memcpy(&link_global_retained_start, &link_global_retained_initial_values, len);
 23f9146:	1a12      	subs	r2, r2, r0
 23f9148:	4905      	ldr	r1, [pc, #20]	; (23f9160 <_Z33system_initialize_user_backup_ramv+0x20>)
 23f914a:	f003 fc0f 	bl	23fc96c <memcpy>
    __backup_sram_signature = signature;
 23f914e:	4b05      	ldr	r3, [pc, #20]	; (23f9164 <_Z33system_initialize_user_backup_ramv+0x24>)
 23f9150:	4a05      	ldr	r2, [pc, #20]	; (23f9168 <_Z33system_initialize_user_backup_ramv+0x28>)
 23f9152:	601a      	str	r2, [r3, #0]
}
 23f9154:	bd08      	pop	{r3, pc}
 23f9156:	bf00      	nop
 23f9158:	1007b400 	.word	0x1007b400
 23f915c:	1007b404 	.word	0x1007b404
 23f9160:	085ff090 	.word	0x085ff090
 23f9164:	1007b400 	.word	0x1007b400
 23f9168:	9a271c1e 	.word	0x9a271c1e

023f916c <_Z27ctrl_request_custom_handlerP12ctrl_request>:
    system_ctrl_set_result(req, SYSTEM_ERROR_NOT_SUPPORTED, nullptr, nullptr, nullptr);
 23f916c:	2300      	movs	r3, #0
void __attribute((weak)) ctrl_request_custom_handler(ctrl_request* req) {
 23f916e:	b507      	push	{r0, r1, r2, lr}
    system_ctrl_set_result(req, SYSTEM_ERROR_NOT_SUPPORTED, nullptr, nullptr, nullptr);
 23f9170:	461a      	mov	r2, r3
 23f9172:	f06f 0177 	mvn.w	r1, #119	; 0x77
 23f9176:	9300      	str	r3, [sp, #0]
 23f9178:	f7ff fd94 	bl	23f8ca4 <system_ctrl_set_result>
}
 23f917c:	b003      	add	sp, #12
 23f917e:	f85d fb04 	ldr.w	pc, [sp], #4
	...

023f9184 <_ZL20ctrl_request_handlerP12ctrl_request>:
static void ctrl_request_handler(ctrl_request* req) {
 23f9184:	b507      	push	{r0, r1, r2, lr}
    switch (req->type) {
 23f9186:	8843      	ldrh	r3, [r0, #2]
 23f9188:	2b0a      	cmp	r3, #10
 23f918a:	d008      	beq.n	23f919e <_ZL20ctrl_request_handlerP12ctrl_request+0x1a>
 23f918c:	2b50      	cmp	r3, #80	; 0x50
 23f918e:	d10b      	bne.n	23f91a8 <_ZL20ctrl_request_handlerP12ctrl_request+0x24>
        if (log_process_ctrl_request_callback) {
 23f9190:	4b09      	ldr	r3, [pc, #36]	; (23f91b8 <_ZL20ctrl_request_handlerP12ctrl_request+0x34>)
 23f9192:	681b      	ldr	r3, [r3, #0]
 23f9194:	b14b      	cbz	r3, 23f91aa <_ZL20ctrl_request_handlerP12ctrl_request+0x26>
}
 23f9196:	b003      	add	sp, #12
 23f9198:	f85d eb04 	ldr.w	lr, [sp], #4
            log_process_ctrl_request_callback(req);
 23f919c:	4718      	bx	r3
        ctrl_request_custom_handler(req);
 23f919e:	f7ff ffe5 	bl	23f916c <_Z27ctrl_request_custom_handlerP12ctrl_request>
}
 23f91a2:	b003      	add	sp, #12
 23f91a4:	f85d fb04 	ldr.w	pc, [sp], #4
        system_ctrl_set_result(req, SYSTEM_ERROR_NOT_SUPPORTED, nullptr, nullptr, nullptr);
 23f91a8:	2300      	movs	r3, #0
 23f91aa:	461a      	mov	r2, r3
 23f91ac:	f06f 0177 	mvn.w	r1, #119	; 0x77
 23f91b0:	9300      	str	r3, [sp, #0]
 23f91b2:	f7ff fd77 	bl	23f8ca4 <system_ctrl_set_result>
}
 23f91b6:	e7f4      	b.n	23f91a2 <_ZL20ctrl_request_handlerP12ctrl_request+0x1e>
 23f91b8:	1007aec4 	.word	0x1007aec4

023f91bc <module_user_init_hook>:
    newlib_impure_ptr_callback([](struct _reent* r, size_t size, uint32_t version, void* ctx) -> void {
 23f91bc:	2100      	movs	r1, #0
{
 23f91be:	b510      	push	{r4, lr}
    newlib_impure_ptr_callback([](struct _reent* r, size_t size, uint32_t version, void* ctx) -> void {
 23f91c0:	4811      	ldr	r0, [pc, #68]	; (23f9208 <module_user_init_hook+0x4c>)
 23f91c2:	f7ff fe95 	bl	23f8ef0 <newlib_impure_ptr_callback>
#endif // HAL_PLATFORM_NEWLIB

#if HAL_PLATFORM_BACKUP_RAM
    backup_ram_was_valid_ = __backup_sram_signature == signature;
 23f91c6:	4b11      	ldr	r3, [pc, #68]	; (23f920c <module_user_init_hook+0x50>)
 23f91c8:	681a      	ldr	r2, [r3, #0]
 23f91ca:	4b11      	ldr	r3, [pc, #68]	; (23f9210 <module_user_init_hook+0x54>)
 23f91cc:	429a      	cmp	r2, r3
 23f91ce:	bf0c      	ite	eq
 23f91d0:	2201      	moveq	r2, #1
 23f91d2:	2200      	movne	r2, #0
 23f91d4:	4b0f      	ldr	r3, [pc, #60]	; (23f9214 <module_user_init_hook+0x58>)
 23f91d6:	701a      	strb	r2, [r3, #0]
    if (!backup_ram_was_valid_) {
 23f91d8:	d001      	beq.n	23f91de <module_user_init_hook+0x22>
        system_initialize_user_backup_ram();
 23f91da:	f7ff ffb1 	bl	23f9140 <_Z33system_initialize_user_backup_ramv>
    }
#endif

#if HAL_PLATFORM_RNG
    // Initialize the default stdlib PRNG using hardware RNG as a seed
    const uint32_t seed = HAL_RNG_GetRandomNumber();
 23f91de:	f7ff fba1 	bl	23f8924 <HAL_RNG_GetRandomNumber>
 23f91e2:	4604      	mov	r4, r0
    srand(seed);
 23f91e4:	f003 fbf2 	bl	23fc9cc <srand>

    // If the user defines random_seed_from_cloud, call it with a seed value
    // generated by a hardware RNG as well.
    if (random_seed_from_cloud) {
 23f91e8:	4b0b      	ldr	r3, [pc, #44]	; (23f9218 <module_user_init_hook+0x5c>)
 23f91ea:	b113      	cbz	r3, 23f91f2 <module_user_init_hook+0x36>
        random_seed_from_cloud(seed);
 23f91ec:	4620      	mov	r0, r4
 23f91ee:	e000      	b.n	23f91f2 <module_user_init_hook+0x36>
 23f91f0:	bf00      	nop
    }
#endif
    // Register the random_seed_from_cloud handler
    spark_set_random_seed_from_cloud_handler(&random_seed_from_cloud, nullptr);
 23f91f2:	2100      	movs	r1, #0
 23f91f4:	4808      	ldr	r0, [pc, #32]	; (23f9218 <module_user_init_hook+0x5c>)
 23f91f6:	f7ff fe27 	bl	23f8e48 <spark_set_random_seed_from_cloud_handler>

    // Register application handler for the control requests
    system_ctrl_set_app_request_handler(ctrl_request_handler, nullptr);
}
 23f91fa:	e8bd 4010 	ldmia.w	sp!, {r4, lr}
    system_ctrl_set_app_request_handler(ctrl_request_handler, nullptr);
 23f91fe:	2100      	movs	r1, #0
 23f9200:	4806      	ldr	r0, [pc, #24]	; (23f921c <module_user_init_hook+0x60>)
 23f9202:	f7ff bd41 	b.w	23f8c88 <system_ctrl_set_app_request_handler>
 23f9206:	bf00      	nop
 23f9208:	023f90d1 	.word	0x023f90d1
 23f920c:	1007b400 	.word	0x1007b400
 23f9210:	9a271c1e 	.word	0x9a271c1e
 23f9214:	1007aec0 	.word	0x1007aec0
 23f9218:	00000000 	.word	0x00000000
 23f921c:	023f9185 	.word	0x023f9185

023f9220 <_ZN9IPAddressD1Ev>:
    IPAddress(uint32_t address);
    // 4 bytes defining the IP address in network order
    IPAddress(const uint8_t* address);
    IPAddress(const HAL_IPAddress& address);

    virtual ~IPAddress() {}
 23f9220:	4770      	bx	lr

023f9222 <_ZN9IPAddressD0Ev>:
 23f9222:	b510      	push	{r4, lr}
 23f9224:	4604      	mov	r4, r0
 23f9226:	2118      	movs	r1, #24
 23f9228:	f7fd fc43 	bl	23f6ab2 <_ZdlPvj>
 23f922c:	4620      	mov	r0, r4
 23f922e:	bd10      	pop	{r4, pc}

023f9230 <_ZNK9IPAddress7printToER5Print>:
#endif // Wiring_IPv6
	return address.ipv4==that.address.ipv4;
}

size_t IPAddress::printTo(Print& p) const
{
 23f9230:	b5f0      	push	{r4, r5, r6, r7, lr}
#if Wiring_IPv6
#if HAL_USE_INET_HAL_POSIX
	if (address.v==6) {
 23f9232:	7d03      	ldrb	r3, [r0, #20]
{
 23f9234:	460e      	mov	r6, r1
	if (address.v==6) {
 23f9236:	2b06      	cmp	r3, #6
 23f9238:	f04f 0400 	mov.w	r4, #0
{
 23f923c:	b08d      	sub	sp, #52	; 0x34
		char buf[INET6_ADDRSTRLEN+1];
		buf[0] = 0;
		inet_inet_ntop(AF_INET6, address.ipv6, buf, sizeof(buf));
 23f923e:	f100 0704 	add.w	r7, r0, #4
	if (address.v==6) {
 23f9242:	d012      	beq.n	23f926a <_ZNK9IPAddress7printToER5Print+0x3a>
 23f9244:	f100 0508 	add.w	r5, r0, #8
            val = n;
        }
#if __GNUC__ >= 9
#pragma GCC diagnostic pop
#endif // __GNUC__ >= 9
        return printNumber(val, base) + t;
 23f9248:	f815 1d01 	ldrb.w	r1, [r5, #-1]!
 23f924c:	220a      	movs	r2, #10
 23f924e:	4630      	mov	r0, r6
 23f9250:	f7ff ff03 	bl	23f905a <_ZN5Print11printNumberEmh>
#else
#pragma message "HAL_USE_INET_HAL_POSIX is required for IPv6 support in IPAddress::printTo()"
#endif // HAL_USE_INET_HAL_POSIX
#endif // Wiring_IPv6
    size_t n = 0;
    for (int i = 0; i < 4; i++)
 23f9254:	42af      	cmp	r7, r5
    {
        if (n)
            n += p.print('.');
        n += p.print((*this)[i], DEC);
 23f9256:	4404      	add	r4, r0
    for (int i = 0; i < 4; i++)
 23f9258:	d019      	beq.n	23f928e <_ZNK9IPAddress7printToER5Print+0x5e>
        if (n)
 23f925a:	2c00      	cmp	r4, #0
 23f925c:	d0f4      	beq.n	23f9248 <_ZNK9IPAddress7printToER5Print+0x18>
            n += p.print('.');
 23f925e:	212e      	movs	r1, #46	; 0x2e
 23f9260:	4630      	mov	r0, r6
 23f9262:	f7ff fee1 	bl	23f9028 <_ZN5Print5printEc>
 23f9266:	4404      	add	r4, r0
 23f9268:	e7ee      	b.n	23f9248 <_ZNK9IPAddress7printToER5Print+0x18>
		inet_inet_ntop(AF_INET6, address.ipv6, buf, sizeof(buf));
 23f926a:	232f      	movs	r3, #47	; 0x2f
 23f926c:	466a      	mov	r2, sp
 23f926e:	4639      	mov	r1, r7
 23f9270:	200a      	movs	r0, #10
		buf[0] = 0;
 23f9272:	f88d 4000 	strb.w	r4, [sp]
		inet_inet_ntop(AF_INET6, address.ipv6, buf, sizeof(buf));
 23f9276:	f7ff fb8d 	bl	23f8994 <inet_inet_ntop>
      return write((const uint8_t *)str, strlen(str));
 23f927a:	4668      	mov	r0, sp
 23f927c:	f7fd fbf0 	bl	23f6a60 <strlen>
 23f9280:	6833      	ldr	r3, [r6, #0]
 23f9282:	4602      	mov	r2, r0
 23f9284:	4669      	mov	r1, sp
 23f9286:	4630      	mov	r0, r6
 23f9288:	68db      	ldr	r3, [r3, #12]
 23f928a:	4798      	blx	r3
 23f928c:	4604      	mov	r4, r0
    }
    return n;
}
 23f928e:	4620      	mov	r0, r4
 23f9290:	b00d      	add	sp, #52	; 0x34
 23f9292:	bdf0      	pop	{r4, r5, r6, r7, pc}

023f9294 <_ZN9IPAddressC1Ev>:
IPAddress::IPAddress()
 23f9294:	b510      	push	{r4, lr}
 23f9296:	4604      	mov	r4, r0
 23f9298:	4b04      	ldr	r3, [pc, #16]	; (23f92ac <_ZN9IPAddressC1Ev+0x18>)
        return address;
    }

    virtual size_t printTo(Print& p) const;

    void clear() { memset(&address, 0, sizeof (address)); }
 23f929a:	2211      	movs	r2, #17
 23f929c:	2100      	movs	r1, #0
 23f929e:	f840 3b04 	str.w	r3, [r0], #4
 23f92a2:	f003 fb8a 	bl	23fc9ba <memset>
}
 23f92a6:	4620      	mov	r0, r4
 23f92a8:	bd10      	pop	{r4, pc}
 23f92aa:	bf00      	nop
 23f92ac:	023ffbf0 	.word	0x023ffbf0

023f92b0 <_ZN9IPAddressC1ERK16_HAL_IPAddress_t>:
IPAddress::IPAddress(const HAL_IPAddress& address)
 23f92b0:	4603      	mov	r3, r0
 23f92b2:	4a07      	ldr	r2, [pc, #28]	; (23f92d0 <_ZN9IPAddressC1ERK16_HAL_IPAddress_t+0x20>)
 23f92b4:	b510      	push	{r4, lr}
 23f92b6:	f843 2b04 	str.w	r2, [r3], #4
    memcpy(&this->address, &address, sizeof(address));
 23f92ba:	f101 0210 	add.w	r2, r1, #16
 23f92be:	f851 4b04 	ldr.w	r4, [r1], #4
 23f92c2:	4291      	cmp	r1, r2
 23f92c4:	f843 4b04 	str.w	r4, [r3], #4
 23f92c8:	d1f9      	bne.n	23f92be <_ZN9IPAddressC1ERK16_HAL_IPAddress_t+0xe>
 23f92ca:	780a      	ldrb	r2, [r1, #0]
 23f92cc:	701a      	strb	r2, [r3, #0]
}
 23f92ce:	bd10      	pop	{r4, pc}
 23f92d0:	023ffbf0 	.word	0x023ffbf0

023f92d4 <_ZN9IPAddress8set_ipv4Ehhhh>:
{
 23f92d4:	b510      	push	{r4, lr}
    address.ipv4 = b0<<24 | b1 << 16 | b2 << 8 | b3;
 23f92d6:	f89d 4008 	ldrb.w	r4, [sp, #8]
 23f92da:	ea44 2303 	orr.w	r3, r4, r3, lsl #8
 23f92de:	ea43 4202 	orr.w	r2, r3, r2, lsl #16
        address.v = version;
 23f92e2:	2304      	movs	r3, #4
 23f92e4:	ea42 6101 	orr.w	r1, r2, r1, lsl #24
 23f92e8:	6041      	str	r1, [r0, #4]
 23f92ea:	7503      	strb	r3, [r0, #20]
}
 23f92ec:	bd10      	pop	{r4, pc}
	...

023f92f0 <_ZN9IPAddressC1EPKh>:
IPAddress::IPAddress(const uint8_t* addr)
 23f92f0:	b507      	push	{r0, r1, r2, lr}
 23f92f2:	4b06      	ldr	r3, [pc, #24]	; (23f930c <_ZN9IPAddressC1EPKh+0x1c>)
 23f92f4:	6003      	str	r3, [r0, #0]
    set_ipv4(addr[0], addr[1], addr[2], addr[3]);
 23f92f6:	78cb      	ldrb	r3, [r1, #3]
 23f92f8:	9300      	str	r3, [sp, #0]
 23f92fa:	788b      	ldrb	r3, [r1, #2]
 23f92fc:	784a      	ldrb	r2, [r1, #1]
 23f92fe:	7809      	ldrb	r1, [r1, #0]
 23f9300:	f7ff ffe8 	bl	23f92d4 <_ZN9IPAddress8set_ipv4Ehhhh>
}
 23f9304:	b003      	add	sp, #12
 23f9306:	f85d fb04 	ldr.w	pc, [sp], #4
 23f930a:	bf00      	nop
 23f930c:	023ffbf0 	.word	0x023ffbf0

023f9310 <_ZN9USBSerial14blockOnOverrunEb>:
  HAL_USB_USART_Flush_Data(_serial);
}

void USBSerial::blockOnOverrun(bool block)
{
  _blocking = block;
 23f9310:	7441      	strb	r1, [r0, #17]
}
 23f9312:	4770      	bx	lr

023f9314 <__tcf_0>:
}

USBSerial& _fetch_usbserial()
{
  HAL_USB_USART_Config conf = acquireSerialBuffer();
	static USBSerial _usbserial(HAL_USB_USART_SERIAL, conf);
 23f9314:	4770      	bx	lr

023f9316 <_ZN9USBSerialD1Ev>:
#include "usb_hal.h"
#include "system_task.h"
#include "spark_wiring_startup.h"
#include "concurrent_hal.h"

class USBSerial : public Stream
 23f9316:	4770      	bx	lr

023f9318 <_ZN9USBSerial4readEv>:
{
 23f9318:	b508      	push	{r3, lr}
	return std::max(-1, (int)HAL_USB_USART_Receive_Data(_serial, false));
 23f931a:	2100      	movs	r1, #0
 23f931c:	7c00      	ldrb	r0, [r0, #16]
 23f931e:	f7ff fc6d 	bl	23f8bfc <HAL_USB_USART_Receive_Data>
}
 23f9322:	ea40 70e0 	orr.w	r0, r0, r0, asr #31
 23f9326:	bd08      	pop	{r3, pc}

023f9328 <_ZN9USBSerial4peekEv>:
{
 23f9328:	b508      	push	{r3, lr}
	return std::max(-1, (int)HAL_USB_USART_Receive_Data(_serial, true));
 23f932a:	2101      	movs	r1, #1
 23f932c:	7c00      	ldrb	r0, [r0, #16]
 23f932e:	f7ff fc65 	bl	23f8bfc <HAL_USB_USART_Receive_Data>
}
 23f9332:	ea40 70e0 	orr.w	r0, r0, r0, asr #31
 23f9336:	bd08      	pop	{r3, pc}

023f9338 <_ZN9USBSerial17availableForWriteEv>:
{
 23f9338:	b508      	push	{r3, lr}
  return std::max(0, (int)HAL_USB_USART_Available_Data_For_Write(_serial));
 23f933a:	7c00      	ldrb	r0, [r0, #16]
 23f933c:	f7ff fc50 	bl	23f8be0 <HAL_USB_USART_Available_Data_For_Write>
}
 23f9340:	ea20 70e0 	bic.w	r0, r0, r0, asr #31
 23f9344:	bd08      	pop	{r3, pc}

023f9346 <_ZN9USBSerial9availableEv>:
{
 23f9346:	b508      	push	{r3, lr}
	return std::max(0, (int)HAL_USB_USART_Available_Data(_serial));
 23f9348:	7c00      	ldrb	r0, [r0, #16]
 23f934a:	f7ff fc3b 	bl	23f8bc4 <HAL_USB_USART_Available_Data>
}
 23f934e:	ea20 70e0 	bic.w	r0, r0, r0, asr #31
 23f9352:	bd08      	pop	{r3, pc}

023f9354 <_ZN9USBSerial5writeEh>:
{
 23f9354:	b513      	push	{r0, r1, r4, lr}
 23f9356:	4604      	mov	r4, r0
  if (HAL_USB_USART_Available_Data_For_Write(_serial) > 0 || _blocking) {
 23f9358:	7c00      	ldrb	r0, [r0, #16]
{
 23f935a:	9101      	str	r1, [sp, #4]
  if (HAL_USB_USART_Available_Data_For_Write(_serial) > 0 || _blocking) {
 23f935c:	f7ff fc40 	bl	23f8be0 <HAL_USB_USART_Available_Data_For_Write>
 23f9360:	2800      	cmp	r0, #0
 23f9362:	9901      	ldr	r1, [sp, #4]
 23f9364:	dc01      	bgt.n	23f936a <_ZN9USBSerial5writeEh+0x16>
 23f9366:	7c60      	ldrb	r0, [r4, #17]
 23f9368:	b120      	cbz	r0, 23f9374 <_ZN9USBSerial5writeEh+0x20>
    return std::max(0, (int)HAL_USB_USART_Send_Data(_serial, byte));
 23f936a:	7c20      	ldrb	r0, [r4, #16]
 23f936c:	f7ff fc54 	bl	23f8c18 <HAL_USB_USART_Send_Data>
 23f9370:	ea20 70e0 	bic.w	r0, r0, r0, asr #31
}
 23f9374:	b002      	add	sp, #8
 23f9376:	bd10      	pop	{r4, pc}

023f9378 <_ZN9USBSerial5flushEv>:
  HAL_USB_USART_Flush_Data(_serial);
 23f9378:	7c00      	ldrb	r0, [r0, #16]
 23f937a:	f7ff bc5b 	b.w	23f8c34 <HAL_USB_USART_Flush_Data>

023f937e <_ZN9USBSerialD0Ev>:
 23f937e:	b510      	push	{r4, lr}
 23f9380:	4604      	mov	r4, r0
 23f9382:	2114      	movs	r1, #20
 23f9384:	f7fd fb95 	bl	23f6ab2 <_ZdlPvj>
 23f9388:	4620      	mov	r0, r4
 23f938a:	bd10      	pop	{r4, pc}

023f938c <_ZN9USBSerialC1E20HAL_USB_USART_SerialRK20HAL_USB_USART_Config>:
USBSerial::USBSerial(HAL_USB_USART_Serial serial, const HAL_USB_USART_Config& conf)
 23f938c:	b510      	push	{r4, lr}
    virtual int available() = 0;
    virtual int read() = 0;
    virtual int peek() = 0;
    virtual void flush() = 0;

    Stream() {_timeout=1000;}
 23f938e:	f44f 737a 	mov.w	r3, #1000	; 0x3e8
 23f9392:	4604      	mov	r4, r0
 23f9394:	4608      	mov	r0, r1
 23f9396:	2100      	movs	r1, #0
 23f9398:	e9c4 1301 	strd	r1, r3, [r4, #4]
 23f939c:	4b04      	ldr	r3, [pc, #16]	; (23f93b0 <_ZN9USBSerialC1E20HAL_USB_USART_SerialRK20HAL_USB_USART_Config+0x24>)
  _serial = serial;
 23f939e:	7420      	strb	r0, [r4, #16]
USBSerial::USBSerial(HAL_USB_USART_Serial serial, const HAL_USB_USART_Config& conf)
 23f93a0:	6023      	str	r3, [r4, #0]
  _blocking = true;
 23f93a2:	2301      	movs	r3, #1
  HAL_USB_USART_Init(_serial, &conf);
 23f93a4:	4611      	mov	r1, r2
  _blocking = true;
 23f93a6:	7463      	strb	r3, [r4, #17]
  HAL_USB_USART_Init(_serial, &conf);
 23f93a8:	f7ff fbf0 	bl	23f8b8c <HAL_USB_USART_Init>
}
 23f93ac:	4620      	mov	r0, r4
 23f93ae:	bd10      	pop	{r4, pc}
 23f93b0:	023ffc04 	.word	0x023ffc04

023f93b4 <_ZN9USBSerial5beginEl>:
    HAL_USB_USART_Begin(_serial, speed, NULL);
 23f93b4:	2200      	movs	r2, #0
 23f93b6:	7c00      	ldrb	r0, [r0, #16]
 23f93b8:	f7ff bbf6 	b.w	23f8ba8 <HAL_USB_USART_Begin>

023f93bc <_Z19acquireSerialBufferv>:
{
 23f93bc:	b510      	push	{r4, lr}
 23f93be:	4604      	mov	r4, r0
  HAL_USB_USART_Config conf = {};
 23f93c0:	2214      	movs	r2, #20
 23f93c2:	2100      	movs	r1, #0
 23f93c4:	f003 faf9 	bl	23fc9ba <memset>
}
 23f93c8:	4620      	mov	r0, r4
 23f93ca:	bd10      	pop	{r4, pc}

023f93cc <_Z16_fetch_usbserialv>:
{
 23f93cc:	b510      	push	{r4, lr}
 23f93ce:	b088      	sub	sp, #32
  HAL_USB_USART_Config conf = acquireSerialBuffer();
 23f93d0:	a803      	add	r0, sp, #12
 23f93d2:	f7ff fff3 	bl	23f93bc <_Z19acquireSerialBufferv>
	static USBSerial _usbserial(HAL_USB_USART_SERIAL, conf);
 23f93d6:	4c0c      	ldr	r4, [pc, #48]	; (23f9408 <_Z16_fetch_usbserialv+0x3c>)
 23f93d8:	e8d4 1f8f 	ldab	r1, [r4]
 23f93dc:	f011 0101 	ands.w	r1, r1, #1
 23f93e0:	d10f      	bne.n	23f9402 <_Z16_fetch_usbserialv+0x36>
 23f93e2:	4620      	mov	r0, r4
 23f93e4:	9101      	str	r1, [sp, #4]
 23f93e6:	f7fd fb66 	bl	23f6ab6 <__cxa_guard_acquire>
 23f93ea:	9901      	ldr	r1, [sp, #4]
 23f93ec:	b148      	cbz	r0, 23f9402 <_Z16_fetch_usbserialv+0x36>
 23f93ee:	aa03      	add	r2, sp, #12
 23f93f0:	4806      	ldr	r0, [pc, #24]	; (23f940c <_Z16_fetch_usbserialv+0x40>)
 23f93f2:	f7ff ffcb 	bl	23f938c <_ZN9USBSerialC1E20HAL_USB_USART_SerialRK20HAL_USB_USART_Config>
 23f93f6:	4620      	mov	r0, r4
 23f93f8:	f7fd fb62 	bl	23f6ac0 <__cxa_guard_release>
 23f93fc:	4804      	ldr	r0, [pc, #16]	; (23f9410 <_Z16_fetch_usbserialv+0x44>)
 23f93fe:	f003 faaf 	bl	23fc960 <atexit>
	return _usbserial;
}
 23f9402:	4802      	ldr	r0, [pc, #8]	; (23f940c <_Z16_fetch_usbserialv+0x40>)
 23f9404:	b008      	add	sp, #32
 23f9406:	bd10      	pop	{r4, pc}
 23f9408:	1007aec8 	.word	0x1007aec8
 23f940c:	1007aecc 	.word	0x1007aecc
 23f9410:	023f9315 	.word	0x023f9315

023f9414 <_ZN11USARTSerialD1Ev>:
private:
  hal_usart_interface_t _serial;
  bool _blocking;
public:
  USARTSerial(hal_usart_interface_t serial, const hal_usart_buffer_config_t& config);
  virtual ~USARTSerial() {};
 23f9414:	4770      	bx	lr

023f9416 <_ZN11USARTSerial14blockOnOverrunEb>:
    hal_usart_half_duplex(_serial, Enable);
}

void USARTSerial::blockOnOverrun(bool block)
{
  _blocking = block;
 23f9416:	7441      	strb	r1, [r0, #17]
}
 23f9418:	4770      	bx	lr

023f941a <_ZN11USARTSerial17availableForWriteEv>:


int USARTSerial::availableForWrite(void)
{
 23f941a:	b508      	push	{r3, lr}
  return std::max(0, (int)hal_usart_available_data_for_write(_serial));
 23f941c:	7c00      	ldrb	r0, [r0, #16]
 23f941e:	f7ff fb1b 	bl	23f8a58 <hal_usart_available_data_for_write>
}
 23f9422:	ea20 70e0 	bic.w	r0, r0, r0, asr #31
 23f9426:	bd08      	pop	{r3, pc}

023f9428 <_ZN11USARTSerial9availableEv>:

int USARTSerial::available(void)
{
 23f9428:	b508      	push	{r3, lr}
  return std::max(0, (int)hal_usart_available(_serial));
 23f942a:	7c00      	ldrb	r0, [r0, #16]
 23f942c:	f7ff face 	bl	23f89cc <hal_usart_available>
}
 23f9430:	ea20 70e0 	bic.w	r0, r0, r0, asr #31
 23f9434:	bd08      	pop	{r3, pc}

023f9436 <_ZN11USARTSerial4peekEv>:

int USARTSerial::peek(void)
{
 23f9436:	b508      	push	{r3, lr}
  return std::max(-1, (int)hal_usart_peek(_serial));
 23f9438:	7c00      	ldrb	r0, [r0, #16]
 23f943a:	f7ff fae3 	bl	23f8a04 <hal_usart_peek>
}
 23f943e:	ea40 70e0 	orr.w	r0, r0, r0, asr #31
 23f9442:	bd08      	pop	{r3, pc}

023f9444 <_ZN11USARTSerial4readEv>:

int USARTSerial::read(void)
{
 23f9444:	b508      	push	{r3, lr}
  return std::max(-1, (int)hal_usart_read(_serial));
 23f9446:	7c00      	ldrb	r0, [r0, #16]
 23f9448:	f7ff face 	bl	23f89e8 <hal_usart_read>
}
 23f944c:	ea40 70e0 	orr.w	r0, r0, r0, asr #31
 23f9450:	bd08      	pop	{r3, pc}

023f9452 <_ZN11USARTSerial5flushEv>:

void USARTSerial::flush()
{
  hal_usart_flush(_serial);
 23f9452:	7c00      	ldrb	r0, [r0, #16]
 23f9454:	f7ff bae4 	b.w	23f8a20 <hal_usart_flush>

023f9458 <_ZN11USARTSerial5writeEh>:
}

size_t USARTSerial::write(uint8_t c)
{
 23f9458:	b537      	push	{r0, r1, r2, r4, r5, lr}
  // attempt a write if blocking, or for non-blocking if there is room.
  if (_blocking || hal_usart_available_data_for_write(_serial) > 0) {
 23f945a:	7c45      	ldrb	r5, [r0, #17]
{
 23f945c:	4604      	mov	r4, r0
  if (_blocking || hal_usart_available_data_for_write(_serial) > 0) {
 23f945e:	b12d      	cbz	r5, 23f946c <_ZN11USARTSerial5writeEh+0x14>
    // the HAL always blocks.
	  return hal_usart_write(_serial, c);
 23f9460:	7c20      	ldrb	r0, [r4, #16]
  }
  return 0;
}
 23f9462:	b003      	add	sp, #12
 23f9464:	e8bd 4030 	ldmia.w	sp!, {r4, r5, lr}
	  return hal_usart_write(_serial, c);
 23f9468:	f7ff baa2 	b.w	23f89b0 <hal_usart_write>
  if (_blocking || hal_usart_available_data_for_write(_serial) > 0) {
 23f946c:	7c00      	ldrb	r0, [r0, #16]
 23f946e:	9101      	str	r1, [sp, #4]
 23f9470:	f7ff faf2 	bl	23f8a58 <hal_usart_available_data_for_write>
 23f9474:	2800      	cmp	r0, #0
 23f9476:	9901      	ldr	r1, [sp, #4]
 23f9478:	dcf2      	bgt.n	23f9460 <_ZN11USARTSerial5writeEh+0x8>
}
 23f947a:	4628      	mov	r0, r5
 23f947c:	b003      	add	sp, #12
 23f947e:	bd30      	pop	{r4, r5, pc}

023f9480 <_ZN11USARTSerialD0Ev>:
 23f9480:	b510      	push	{r4, lr}
 23f9482:	4604      	mov	r4, r0
 23f9484:	2114      	movs	r1, #20
 23f9486:	f7fd fb14 	bl	23f6ab2 <_ZdlPvj>
 23f948a:	4620      	mov	r0, r4
 23f948c:	bd10      	pop	{r4, pc}
	...

023f9490 <_ZN11USARTSerialC1E21hal_usart_interface_tRK25hal_usart_buffer_config_t>:
USARTSerial::USARTSerial(hal_usart_interface_t serial, const hal_usart_buffer_config_t& config)
 23f9490:	b510      	push	{r4, lr}
 23f9492:	f44f 737a 	mov.w	r3, #1000	; 0x3e8
 23f9496:	4604      	mov	r4, r0
 23f9498:	4608      	mov	r0, r1
 23f949a:	4611      	mov	r1, r2
 23f949c:	2200      	movs	r2, #0
 23f949e:	e9c4 2301 	strd	r2, r3, [r4, #4]
 23f94a2:	4b04      	ldr	r3, [pc, #16]	; (23f94b4 <_ZN11USARTSerialC1E21hal_usart_interface_tRK25hal_usart_buffer_config_t+0x24>)
  _serial = serial;
 23f94a4:	7420      	strb	r0, [r4, #16]
USARTSerial::USARTSerial(hal_usart_interface_t serial, const hal_usart_buffer_config_t& config)
 23f94a6:	6023      	str	r3, [r4, #0]
  _blocking = true;
 23f94a8:	2301      	movs	r3, #1
 23f94aa:	7463      	strb	r3, [r4, #17]
  hal_usart_init_ex(serial, &config, nullptr);
 23f94ac:	f7ff fae2 	bl	23f8a74 <hal_usart_init_ex>
}
 23f94b0:	4620      	mov	r0, r4
 23f94b2:	bd10      	pop	{r4, pc}
 23f94b4:	023ffc34 	.word	0x023ffc34

023f94b8 <_ZN11USARTSerial9isEnabledEv>:
USARTSerial::operator bool() {
  return true;
}

bool USARTSerial::isEnabled() {
  return hal_usart_is_enabled(_serial);
 23f94b8:	7c00      	ldrb	r0, [r0, #16]
 23f94ba:	f7ff babf 	b.w	23f8a3c <hal_usart_is_enabled>

023f94be <_ZN7TwoWireD1Ev>:
private:
  hal_i2c_interface_t _i2c;

public:
  TwoWire(hal_i2c_interface_t i2c, const hal_i2c_config_t& config);
  virtual ~TwoWire() {};
 23f94be:	4770      	bx	lr

023f94c0 <_ZN7TwoWire5writeEPKhj>:

// must be called in:
// slave tx event callback
// or after beginTransmission(address)
size_t TwoWire::write(const uint8_t *data, size_t quantity)
{
 23f94c0:	b5f8      	push	{r3, r4, r5, r6, r7, lr}
 23f94c2:	4606      	mov	r6, r0
 23f94c4:	4615      	mov	r5, r2
 23f94c6:	460c      	mov	r4, r1
 23f94c8:	188f      	adds	r7, r1, r2
  // in master/slave transmitter mode
  for(size_t i = 0; i < quantity; ++i)
 23f94ca:	42bc      	cmp	r4, r7
 23f94cc:	d006      	beq.n	23f94dc <_ZN7TwoWire5writeEPKhj+0x1c>
  {
    write(data[i]);
 23f94ce:	6833      	ldr	r3, [r6, #0]
 23f94d0:	4630      	mov	r0, r6
 23f94d2:	689b      	ldr	r3, [r3, #8]
 23f94d4:	f814 1b01 	ldrb.w	r1, [r4], #1
 23f94d8:	4798      	blx	r3
  for(size_t i = 0; i < quantity; ++i)
 23f94da:	e7f6      	b.n	23f94ca <_ZN7TwoWire5writeEPKhj+0xa>
  }

  return quantity;
}
 23f94dc:	4628      	mov	r0, r5
 23f94de:	bdf8      	pop	{r3, r4, r5, r6, r7, pc}

023f94e0 <_ZN7TwoWire5writeEh>:
  return hal_i2c_write(_i2c, data, NULL);
 23f94e0:	2200      	movs	r2, #0
 23f94e2:	7c00      	ldrb	r0, [r0, #16]
 23f94e4:	f7ff bad4 	b.w	23f8a90 <hal_i2c_write>

023f94e8 <_ZN7TwoWire9availableEv>:
// must be called in:
// slave rx event callback
// or after requestFrom(address, numBytes)
int TwoWire::available(void)
{
  return hal_i2c_available(_i2c, NULL);
 23f94e8:	2100      	movs	r1, #0
 23f94ea:	7c00      	ldrb	r0, [r0, #16]
 23f94ec:	f7ff bade 	b.w	23f8aac <hal_i2c_available>

023f94f0 <_ZN7TwoWire4readEv>:
// must be called in:
// slave rx event callback
// or after requestFrom(address, numBytes)
int TwoWire::read(void)
{
  return hal_i2c_read(_i2c, NULL);
 23f94f0:	2100      	movs	r1, #0
 23f94f2:	7c00      	ldrb	r0, [r0, #16]
 23f94f4:	f7ff bae8 	b.w	23f8ac8 <hal_i2c_read>

023f94f8 <_ZN7TwoWire4peekEv>:
// must be called in:
// slave rx event callback
// or after requestFrom(address, numBytes)
int TwoWire::peek(void)
{
  return hal_i2c_peek(_i2c, NULL);
 23f94f8:	2100      	movs	r1, #0
 23f94fa:	7c00      	ldrb	r0, [r0, #16]
 23f94fc:	f7ff baf2 	b.w	23f8ae4 <hal_i2c_peek>

023f9500 <_ZN7TwoWire5flushEv>:
}

void TwoWire::flush(void)
{
  hal_i2c_flush(_i2c, NULL);
 23f9500:	2100      	movs	r1, #0
 23f9502:	7c00      	ldrb	r0, [r0, #16]
 23f9504:	f7ff bafc 	b.w	23f8b00 <hal_i2c_flush>

023f9508 <_ZN7TwoWireD0Ev>:
 23f9508:	b510      	push	{r4, lr}
 23f950a:	4604      	mov	r4, r0
 23f950c:	2114      	movs	r1, #20
 23f950e:	f7fd fad0 	bl	23f6ab2 <_ZdlPvj>
 23f9512:	4620      	mov	r0, r4
 23f9514:	bd10      	pop	{r4, pc}
	...

023f9518 <_ZN7TwoWireC1E19hal_i2c_interface_tRK16hal_i2c_config_t>:
TwoWire::TwoWire(hal_i2c_interface_t i2c, const hal_i2c_config_t& conf)
 23f9518:	b538      	push	{r3, r4, r5, lr}
 23f951a:	4604      	mov	r4, r0
 23f951c:	4615      	mov	r5, r2
 23f951e:	f44f 737a 	mov.w	r3, #1000	; 0x3e8
 23f9522:	2200      	movs	r2, #0
 23f9524:	e9c4 2301 	strd	r2, r3, [r4, #4]
 23f9528:	4b09      	ldr	r3, [pc, #36]	; (23f9550 <_ZN7TwoWireC1E19hal_i2c_interface_tRK16hal_i2c_config_t+0x38>)
 23f952a:	4608      	mov	r0, r1
  _i2c = i2c;
 23f952c:	7421      	strb	r1, [r4, #16]
TwoWire::TwoWire(hal_i2c_interface_t i2c, const hal_i2c_config_t& conf)
 23f952e:	6023      	str	r3, [r4, #0]
  int result = hal_i2c_init(_i2c, &conf);
 23f9530:	4629      	mov	r1, r5
 23f9532:	f7ff fb01 	bl	23f8b38 <hal_i2c_init>
  if (result == SYSTEM_ERROR_NOT_ENOUGH_DATA && 
 23f9536:	30bf      	adds	r0, #191	; 0xbf
 23f9538:	d108      	bne.n	23f954c <_ZN7TwoWireC1E19hal_i2c_interface_tRK16hal_i2c_config_t+0x34>
      (conf.flags & HAL_I2C_CONFIG_FLAG_FREEABLE)) {
 23f953a:	696b      	ldr	r3, [r5, #20]
  if (result == SYSTEM_ERROR_NOT_ENOUGH_DATA && 
 23f953c:	07db      	lsls	r3, r3, #31
 23f953e:	d505      	bpl.n	23f954c <_ZN7TwoWireC1E19hal_i2c_interface_tRK16hal_i2c_config_t+0x34>
    free(conf.rx_buffer);
 23f9540:	6868      	ldr	r0, [r5, #4]
 23f9542:	f7ff fc9d 	bl	23f8e80 <free>
    free(conf.tx_buffer);
 23f9546:	68e8      	ldr	r0, [r5, #12]
 23f9548:	f7ff fc9a 	bl	23f8e80 <free>
}
 23f954c:	4620      	mov	r0, r4
 23f954e:	bd38      	pop	{r3, r4, r5, pc}
 23f9550:	023ffc64 	.word	0x023ffc64

023f9554 <_ZN5spark9WiFiClass5readyEv>:
    bool connecting(void) {
        return network_connecting(*this, 0, NULL);
    }

    bool ready(void) {
        return network_ready(*this, 0, NULL);
 23f9554:	2200      	movs	r2, #0
 23f9556:	6840      	ldr	r0, [r0, #4]
 23f9558:	4611      	mov	r1, r2
 23f955a:	f7ff bbdb 	b.w	23f8d14 <network_ready>

023f955e <_ZN5spark9WiFiClass9listeningEv>:
    uint16_t getListenTimeout(void) {
        return network_get_listen_timeout(*this, 0, NULL);
    }

    bool listening(void) {
        return network_listening(*this, 0, NULL);
 23f955e:	2200      	movs	r2, #0
 23f9560:	6840      	ldr	r0, [r0, #4]
 23f9562:	4611      	mov	r1, r2
 23f9564:	f7ff bc0e 	b.w	23f8d84 <network_listening>

023f9568 <_ZN5spark9WiFiClass16getListenTimeoutEv>:
        return network_get_listen_timeout(*this, 0, NULL);
 23f9568:	2200      	movs	r2, #0
 23f956a:	6840      	ldr	r0, [r0, #4]
 23f956c:	4611      	mov	r1, r2
 23f956e:	f7ff bc25 	b.w	23f8dbc <network_get_listen_timeout>

023f9572 <_ZN5spark9WiFiClass16setListenTimeoutEt>:
        network_set_listen_timeout(*this, timeout, NULL);
 23f9572:	2200      	movs	r2, #0
 23f9574:	6840      	ldr	r0, [r0, #4]
 23f9576:	f7ff bc13 	b.w	23f8da0 <network_set_listen_timeout>

023f957a <_ZN5spark9WiFiClass6listenEb>:
        network_listen(*this, begin ? 0 : 1, NULL);
 23f957a:	2200      	movs	r2, #0
 23f957c:	6840      	ldr	r0, [r0, #4]
 23f957e:	f081 0101 	eor.w	r1, r1, #1
 23f9582:	f7ff bbf1 	b.w	23f8d68 <network_listen>

023f9586 <_ZN5spark9WiFiClass3offEv>:
        network_off(*this, 0, 0, NULL);
 23f9586:	2300      	movs	r3, #0
 23f9588:	6840      	ldr	r0, [r0, #4]
 23f958a:	461a      	mov	r2, r3
 23f958c:	4619      	mov	r1, r3
 23f958e:	f7ff bbdd 	b.w	23f8d4c <network_off>

023f9592 <_ZN5spark9WiFiClass2onEv>:
        network_on(*this, 0, 0, NULL);
 23f9592:	2300      	movs	r3, #0
 23f9594:	6840      	ldr	r0, [r0, #4]
 23f9596:	461a      	mov	r2, r3
 23f9598:	4619      	mov	r1, r3
 23f959a:	f7ff bbc9 	b.w	23f8d30 <network_on>

023f959e <_ZN5spark9WiFiClass10connectingEv>:
        return network_connecting(*this, 0, NULL);
 23f959e:	2200      	movs	r2, #0
 23f95a0:	6840      	ldr	r0, [r0, #4]
 23f95a2:	4611      	mov	r1, r2
 23f95a4:	f7ff bb9a 	b.w	23f8cdc <network_connecting>

023f95a8 <_ZN5spark9WiFiClass10disconnectEv>:
        network_disconnect(*this, NETWORK_DISCONNECT_REASON_USER, NULL);
 23f95a8:	2200      	movs	r2, #0
 23f95aa:	2102      	movs	r1, #2
 23f95ac:	6840      	ldr	r0, [r0, #4]
 23f95ae:	f7ff bba3 	b.w	23f8cf8 <network_disconnect>

023f95b2 <_ZN5spark9WiFiClass7connectEj>:
        network_connect(*this, flags, 0, NULL);
 23f95b2:	2300      	movs	r3, #0
 23f95b4:	6840      	ldr	r0, [r0, #4]
 23f95b6:	461a      	mov	r2, r3
 23f95b8:	f7ff bb82 	b.w	23f8cc0 <network_connect>

023f95bc <_GLOBAL__sub_I__ZN10WiFiSignalC2ERK21wlan_connected_info_t>:
 23f95bc:	2204      	movs	r2, #4
 23f95be:	4b02      	ldr	r3, [pc, #8]	; (23f95c8 <_GLOBAL__sub_I__ZN10WiFiSignalC2ERK21wlan_connected_info_t+0xc>)
 23f95c0:	605a      	str	r2, [r3, #4]
            NetworkClass(NETWORK_INTERFACE_WIFI_STA) {
 23f95c2:	4a02      	ldr	r2, [pc, #8]	; (23f95cc <_GLOBAL__sub_I__ZN10WiFiSignalC2ERK21wlan_connected_info_t+0x10>)
 23f95c4:	601a      	str	r2, [r3, #0]
the same way.
*****************************************************************************/

    WiFiClass WiFi;
    // NetworkClass& Network = WiFi;
}
 23f95c6:	4770      	bx	lr
 23f95c8:	1007aee0 	.word	0x1007aee0
 23f95cc:	023ffc8c 	.word	0x023ffc8c

023f95d0 <_ZN5spark12NetworkClass7connectEj>:
        return Network;
    }
}

void NetworkClass::connect(unsigned flags) {
    network_connect(*this, flags, 0, nullptr);
 23f95d0:	2300      	movs	r3, #0
 23f95d2:	6840      	ldr	r0, [r0, #4]
 23f95d4:	461a      	mov	r2, r3
 23f95d6:	f7ff bb73 	b.w	23f8cc0 <network_connect>

023f95da <_ZN5spark12NetworkClass10disconnectEv>:
}

void NetworkClass::disconnect() {
    network_disconnect(*this, NETWORK_DISCONNECT_REASON_USER, nullptr);
 23f95da:	2200      	movs	r2, #0
 23f95dc:	2102      	movs	r1, #2
 23f95de:	6840      	ldr	r0, [r0, #4]
 23f95e0:	f7ff bb8a 	b.w	23f8cf8 <network_disconnect>

023f95e4 <_ZN5spark12NetworkClass10connectingEv>:
}

bool NetworkClass::connecting() {
    return network_connecting(*this, 0, nullptr);
 23f95e4:	2200      	movs	r2, #0
 23f95e6:	6840      	ldr	r0, [r0, #4]
 23f95e8:	4611      	mov	r1, r2
 23f95ea:	f7ff bb77 	b.w	23f8cdc <network_connecting>

023f95ee <_ZN5spark12NetworkClass5readyEv>:
}

bool NetworkClass::ready() {
    return network_ready(*this, 0, nullptr);
 23f95ee:	2200      	movs	r2, #0
 23f95f0:	6840      	ldr	r0, [r0, #4]
 23f95f2:	4611      	mov	r1, r2
 23f95f4:	f7ff bb8e 	b.w	23f8d14 <network_ready>

023f95f8 <_ZN5spark12NetworkClass2onEv>:
}

void NetworkClass::on() {
    network_on(*this, 0, 0, nullptr);
 23f95f8:	2300      	movs	r3, #0
 23f95fa:	6840      	ldr	r0, [r0, #4]
 23f95fc:	461a      	mov	r2, r3
 23f95fe:	4619      	mov	r1, r3
 23f9600:	f7ff bb96 	b.w	23f8d30 <network_on>

023f9604 <_ZN5spark12NetworkClass3offEv>:
}

void NetworkClass::off() {
    network_off(*this, 0, 0, nullptr);
 23f9604:	2300      	movs	r3, #0
 23f9606:	6840      	ldr	r0, [r0, #4]
 23f9608:	461a      	mov	r2, r3
 23f960a:	4619      	mov	r1, r3
 23f960c:	f7ff bb9e 	b.w	23f8d4c <network_off>

023f9610 <_ZN5spark12NetworkClass4isOnEv>:
}

bool NetworkClass::isOn() {
    return network_is_on(*this, nullptr);
 23f9610:	2100      	movs	r1, #0
 23f9612:	6840      	ldr	r0, [r0, #4]
 23f9614:	f7ff bbe0 	b.w	23f8dd8 <network_is_on>

023f9618 <_ZN5spark12NetworkClass5isOffEv>:
}

bool NetworkClass::isOff() {
    return network_is_off(*this, nullptr);
 23f9618:	2100      	movs	r1, #0
 23f961a:	6840      	ldr	r0, [r0, #4]
 23f961c:	f7ff bbea 	b.w	23f8df4 <network_is_off>

023f9620 <_ZN5spark12NetworkClass6listenEb>:
}

void NetworkClass::listen(bool begin) {
    network_listen(*this, begin ? 0 : 1, nullptr);
 23f9620:	2200      	movs	r2, #0
 23f9622:	6840      	ldr	r0, [r0, #4]
 23f9624:	f081 0101 	eor.w	r1, r1, #1
 23f9628:	f7ff bb9e 	b.w	23f8d68 <network_listen>

023f962c <_ZN5spark12NetworkClass16setListenTimeoutEt>:
}

void NetworkClass::setListenTimeout(uint16_t timeout) {
    network_set_listen_timeout(*this, timeout, nullptr);
 23f962c:	2200      	movs	r2, #0
 23f962e:	6840      	ldr	r0, [r0, #4]
 23f9630:	f7ff bbb6 	b.w	23f8da0 <network_set_listen_timeout>

023f9634 <_ZN5spark12NetworkClass16getListenTimeoutEv>:
}

uint16_t NetworkClass::getListenTimeout() {
    return network_get_listen_timeout(*this, 0, nullptr);
 23f9634:	2200      	movs	r2, #0
 23f9636:	6840      	ldr	r0, [r0, #4]
 23f9638:	4611      	mov	r1, r2
 23f963a:	f7ff bbbf 	b.w	23f8dbc <network_get_listen_timeout>

023f963e <_ZN5spark12NetworkClass9listeningEv>:
}

bool NetworkClass::listening() {
    return network_listening(*this, 0, nullptr);
 23f963e:	2200      	movs	r2, #0
 23f9640:	6840      	ldr	r0, [r0, #4]
 23f9642:	4611      	mov	r1, r2
 23f9644:	f7ff bb9e 	b.w	23f8d84 <network_listening>

023f9648 <_ZN5spark12NetworkClass11isPreferredEv>:
    network_handle_t network = network_preferred(*this, preferred, nullptr);
    return Network.from(network);
}

bool NetworkClass::isPreferred() {
    return network_is_preferred(*this, nullptr);
 23f9648:	2100      	movs	r1, #0
 23f964a:	6840      	ldr	r0, [r0, #4]
 23f964c:	f7ff bbee 	b.w	23f8e2c <network_is_preferred>

023f9650 <_ZN5spark12NetworkClass7resolveEPKc>:
}

IPAddress NetworkClass::resolve(const char* name) {
 23f9650:	e92d 43f0 	stmdb	sp!, {r4, r5, r6, r7, r8, r9, lr}
 23f9654:	b095      	sub	sp, #84	; 0x54
 23f9656:	4614      	mov	r4, r2
 23f9658:	460d      	mov	r5, r1
 23f965a:	4607      	mov	r7, r0
    IPAddress addr;
 23f965c:	f7ff fe1a 	bl	23f9294 <_ZN9IPAddressC1Ev>
#if HAL_USE_INET_HAL_POSIX
    struct addrinfo *ai = nullptr;
 23f9660:	2100      	movs	r1, #0
    struct addrinfo hints = {};
 23f9662:	221c      	movs	r2, #28
 23f9664:	a80d      	add	r0, sp, #52	; 0x34
    struct addrinfo *ai = nullptr;
 23f9666:	9100      	str	r1, [sp, #0]
    struct addrinfo hints = {};
 23f9668:	f003 f9a7 	bl	23fc9ba <memset>
    hints.ai_flags = AI_ADDRCONFIG;
 23f966c:	2340      	movs	r3, #64	; 0x40
    hints.ai_family = AF_UNSPEC;
    const int r = getaddrinfo(name, nullptr, &hints, &ai);
 23f966e:	4620      	mov	r0, r4
    hints.ai_flags = AI_ADDRCONFIG;
 23f9670:	930c      	str	r3, [sp, #48]	; 0x30
    const int r = getaddrinfo(name, nullptr, &hints, &ai);
 23f9672:	2100      	movs	r1, #0
 23f9674:	466b      	mov	r3, sp
 23f9676:	aa0c      	add	r2, sp, #48	; 0x30
 23f9678:	f7ff f91c 	bl	23f88b4 <netdb_getaddrinfo>
    if (!r) {
 23f967c:	4604      	mov	r4, r0
 23f967e:	2800      	cmp	r0, #0
 23f9680:	d14b      	bne.n	23f971a <_ZN5spark12NetworkClass7resolveEPKc+0xca>
        bool ok = false;
        // This is not really needed if AI_ADDRCONFIG is properly supported
        bool ipv4 = network_ready(*this, NETWORK_READY_TYPE_IPV4, nullptr);
 23f9682:	4602      	mov	r2, r0
 23f9684:	2101      	movs	r1, #1
 23f9686:	6868      	ldr	r0, [r5, #4]
 23f9688:	f7ff fb44 	bl	23f8d14 <network_ready>
        bool ipv6 = network_ready(*this, NETWORK_READY_TYPE_IPV6, nullptr);
 23f968c:	2102      	movs	r1, #2
        bool ipv4 = network_ready(*this, NETWORK_READY_TYPE_IPV4, nullptr);
 23f968e:	4680      	mov	r8, r0
        bool ipv6 = network_ready(*this, NETWORK_READY_TYPE_IPV6, nullptr);
 23f9690:	4622      	mov	r2, r4
 23f9692:	6868      	ldr	r0, [r5, #4]
 23f9694:	f7ff fb3e 	bl	23f8d14 <network_ready>
        bool ok = false;
 23f9698:	4621      	mov	r1, r4
        bool ipv6 = network_ready(*this, NETWORK_READY_TYPE_IPV6, nullptr);
 23f969a:	4681      	mov	r9, r0
        for (auto cur = ai; cur != nullptr && !ok; cur = cur->ai_next) {
 23f969c:	9e00      	ldr	r6, [sp, #0]
 23f969e:	2e00      	cmp	r6, #0
 23f96a0:	d03b      	beq.n	23f971a <_ZN5spark12NetworkClass7resolveEPKc+0xca>
 23f96a2:	2900      	cmp	r1, #0
 23f96a4:	d139      	bne.n	23f971a <_ZN5spark12NetworkClass7resolveEPKc+0xca>
            // NOTE: using only the first entry that matches the current state of IPv4/IPv6 connectivity
            switch (cur->ai_family) {
 23f96a6:	6873      	ldr	r3, [r6, #4]
 23f96a8:	2b02      	cmp	r3, #2
 23f96aa:	d003      	beq.n	23f96b4 <_ZN5spark12NetworkClass7resolveEPKc+0x64>
 23f96ac:	2b0a      	cmp	r3, #10
 23f96ae:	d011      	beq.n	23f96d4 <_ZN5spark12NetworkClass7resolveEPKc+0x84>
        for (auto cur = ai; cur != nullptr && !ok; cur = cur->ai_next) {
 23f96b0:	69f6      	ldr	r6, [r6, #28]
 23f96b2:	e7f4      	b.n	23f969e <_ZN5spark12NetworkClass7resolveEPKc+0x4e>
                case AF_INET: {
                    if (!ipv4) {
 23f96b4:	f1b8 0f00 	cmp.w	r8, #0
 23f96b8:	d0fa      	beq.n	23f96b0 <_ZN5spark12NetworkClass7resolveEPKc+0x60>
                        continue;
                    }
                    // NOTE: HAL_IPAddress is little-endian
                    auto in = (struct sockaddr_in*)cur->ai_addr;
                    addr = (const uint8_t*)(&in->sin_addr.s_addr);
 23f96ba:	6971      	ldr	r1, [r6, #20]
        return *this = IPAddress(address);
 23f96bc:	a806      	add	r0, sp, #24
 23f96be:	3104      	adds	r1, #4
class IPAddress : public Printable {
 23f96c0:	1d3c      	adds	r4, r7, #4
 23f96c2:	ad07      	add	r5, sp, #28
        return *this = IPAddress(address);
 23f96c4:	f7ff fe14 	bl	23f92f0 <_ZN9IPAddressC1EPKh>
class IPAddress : public Printable {
 23f96c8:	cd0f      	ldmia	r5!, {r0, r1, r2, r3}
 23f96ca:	c40f      	stmia	r4!, {r0, r1, r2, r3}
 23f96cc:	682b      	ldr	r3, [r5, #0]
                    ok = true;
 23f96ce:	4641      	mov	r1, r8
 23f96d0:	7023      	strb	r3, [r4, #0]
        return *this = IPAddress(address);
 23f96d2:	e7ed      	b.n	23f96b0 <_ZN5spark12NetworkClass7resolveEPKc+0x60>
                    break;
                }
                case AF_INET6: {
                    if (!ipv6) {
 23f96d4:	f1b9 0f00 	cmp.w	r9, #0
 23f96d8:	d0ea      	beq.n	23f96b0 <_ZN5spark12NetworkClass7resolveEPKc+0x60>
                        continue;
                    }
                    auto in6 = (struct sockaddr_in6*)cur->ai_addr;
                    HAL_IPAddress a = {};
 23f96da:	2210      	movs	r2, #16
 23f96dc:	a801      	add	r0, sp, #4
                    auto in6 = (struct sockaddr_in6*)cur->ai_addr;
 23f96de:	6974      	ldr	r4, [r6, #20]
                    HAL_IPAddress a = {};
 23f96e0:	f003 f96b 	bl	23fc9ba <memset>
                    a.v = 6;
 23f96e4:	2306      	movs	r3, #6
                    memcpy(a.ipv6, in6->sin6_addr.s6_addr, sizeof(a.ipv6));
 23f96e6:	ad01      	add	r5, sp, #4
                    a.v = 6;
 23f96e8:	f88d 3014 	strb.w	r3, [sp, #20]
                    memcpy(a.ipv6, in6->sin6_addr.s6_addr, sizeof(a.ipv6));
 23f96ec:	f104 0308 	add.w	r3, r4, #8
 23f96f0:	3418      	adds	r4, #24
 23f96f2:	462a      	mov	r2, r5
 23f96f4:	6818      	ldr	r0, [r3, #0]
 23f96f6:	6859      	ldr	r1, [r3, #4]
 23f96f8:	3308      	adds	r3, #8
 23f96fa:	c203      	stmia	r2!, {r0, r1}
 23f96fc:	42a3      	cmp	r3, r4
 23f96fe:	4615      	mov	r5, r2
 23f9700:	d1f7      	bne.n	23f96f2 <_ZN5spark12NetworkClass7resolveEPKc+0xa2>
                    addr = IPAddress(a);
 23f9702:	a901      	add	r1, sp, #4
 23f9704:	a806      	add	r0, sp, #24
class IPAddress : public Printable {
 23f9706:	1d3c      	adds	r4, r7, #4
 23f9708:	ad07      	add	r5, sp, #28
 23f970a:	f7ff fdd1 	bl	23f92b0 <_ZN9IPAddressC1ERK16_HAL_IPAddress_t>
 23f970e:	cd0f      	ldmia	r5!, {r0, r1, r2, r3}
 23f9710:	c40f      	stmia	r4!, {r0, r1, r2, r3}
 23f9712:	682b      	ldr	r3, [r5, #0]
                    ok = true;
 23f9714:	4649      	mov	r1, r9
 23f9716:	7023      	strb	r3, [r4, #0]
                    break;
 23f9718:	e7ca      	b.n	23f96b0 <_ZN5spark12NetworkClass7resolveEPKc+0x60>
                }
            }
        }
    }
    freeaddrinfo(ai);
 23f971a:	9800      	ldr	r0, [sp, #0]
 23f971c:	f7ff f8bc 	bl	23f8898 <netdb_freeaddrinfo>
    return Cellular.resolve(name);
#endif // Wiring_Cellular

#endif // HAL_USE_INET_HAL_POSIX
    return addr;
}
 23f9720:	4638      	mov	r0, r7
 23f9722:	b015      	add	sp, #84	; 0x54
 23f9724:	e8bd 83f0 	ldmia.w	sp!, {r4, r5, r6, r7, r8, r9, pc}

023f9728 <_ZN5spark12NetworkClass4fromEm>:
    switch (nif) {
 23f9728:	3803      	subs	r0, #3
 23f972a:	2802      	cmp	r0, #2
 23f972c:	bf9a      	itte	ls
 23f972e:	4b02      	ldrls	r3, [pc, #8]	; (23f9738 <_ZN5spark12NetworkClass4fromEm+0x10>)
 23f9730:	f853 0020 	ldrls.w	r0, [r3, r0, lsl #2]
NetworkClass& NetworkClass::from(network_interface_t nif) {
 23f9734:	4801      	ldrhi	r0, [pc, #4]	; (23f973c <_ZN5spark12NetworkClass4fromEm+0x14>)
}
 23f9736:	4770      	bx	lr
 23f9738:	023ffcc8 	.word	0x023ffcc8
 23f973c:	1007aee8 	.word	0x1007aee8

023f9740 <_ZN5spark12NetworkClass9preferredEb>:
NetworkClass& NetworkClass::preferred(bool preferred) {
 23f9740:	b508      	push	{r3, lr}
    network_handle_t network = network_preferred(*this, preferred, nullptr);
 23f9742:	2200      	movs	r2, #0
 23f9744:	6840      	ldr	r0, [r0, #4]
 23f9746:	f7ff fb63 	bl	23f8e10 <network_preferred>
}
 23f974a:	e8bd 4008 	ldmia.w	sp!, {r3, lr}
    return Network.from(network);
 23f974e:	f7ff bfeb 	b.w	23f9728 <_ZN5spark12NetworkClass4fromEm>
	...

023f9754 <_GLOBAL__sub_I__ZN5spark7NetworkE>:
 23f9754:	4b02      	ldr	r3, [pc, #8]	; (23f9760 <_GLOBAL__sub_I__ZN5spark7NetworkE+0xc>)
 23f9756:	4a03      	ldr	r2, [pc, #12]	; (23f9764 <_GLOBAL__sub_I__ZN5spark7NetworkE+0x10>)
 23f9758:	601a      	str	r2, [r3, #0]
 23f975a:	2200      	movs	r2, #0
 23f975c:	605a      	str	r2, [r3, #4]
    network_free_configuration(c, count, nullptr);
    return res;
}
#endif // HAL_USE_SOCKET_HAL_POSIX

} // spark
 23f975e:	4770      	bx	lr
 23f9760:	1007aee8 	.word	0x1007aee8
 23f9764:	023ffcdc 	.word	0x023ffcdc

023f9768 <pinAvailable>:
/*
 * @brief Perform safety check on desired pin to see if it's already
 * being used.  Return 0 if used, otherwise return 1 if available.
 */
bool pinAvailable(uint16_t pin) {
  if (pin >= TOTAL_PINS) {
 23f9768:	281b      	cmp	r0, #27
bool pinAvailable(uint16_t pin) {
 23f976a:	b537      	push	{r0, r1, r2, r4, r5, lr}
 23f976c:	4604      	mov	r4, r0
  if (pin >= TOTAL_PINS) {
 23f976e:	d902      	bls.n	23f9776 <pinAvailable+0xe>
    return false;
 23f9770:	2000      	movs	r0, #0
    return false; // 'pin' is used
  }
#endif

  return true; // 'pin' is available
}
 23f9772:	b003      	add	sp, #12
 23f9774:	bd30      	pop	{r4, r5, pc}
  if((pin == SCK || pin == MOSI || pin == MISO) && hal_spi_is_enabled(SPI.interface()) == true)
 23f9776:	f1a0 030f 	sub.w	r3, r0, #15
 23f977a:	2b02      	cmp	r3, #2
 23f977c:	d90b      	bls.n	23f9796 <pinAvailable+0x2e>
  if((pin == SCL || pin == SDA) && hal_i2c_is_enabled(Wire.interface(), nullptr) == true)
 23f977e:	2801      	cmp	r0, #1
 23f9780:	d821      	bhi.n	23f97c6 <pinAvailable+0x5e>
 23f9782:	f000 f935 	bl	23f99f0 <_Z19__fetch_global_Wirev>
 23f9786:	2100      	movs	r1, #0
 23f9788:	7c00      	ldrb	r0, [r0, #16]
 23f978a:	f7ff f9c7 	bl	23f8b1c <hal_i2c_is_enabled>
  if((pin == RX || pin == TX) && hal_usart_is_enabled(Serial1.interface()) == true)
 23f978e:	f080 0001 	eor.w	r0, r0, #1
 23f9792:	b2c0      	uxtb	r0, r0
 23f9794:	e7ed      	b.n	23f9772 <pinAvailable+0xa>

template <hal_spi_interface_t Interface>
class SpiProxy {
public:
    static SPIClass& instance() {
        static SPIClass instance(Interface);
 23f9796:	4d11      	ldr	r5, [pc, #68]	; (23f97dc <pinAvailable+0x74>)
 23f9798:	e8d5 1f8f 	ldab	r1, [r5]
 23f979c:	f011 0101 	ands.w	r1, r1, #1
 23f97a0:	d10b      	bne.n	23f97ba <pinAvailable+0x52>
 23f97a2:	4628      	mov	r0, r5
 23f97a4:	9101      	str	r1, [sp, #4]
 23f97a6:	f7fd f986 	bl	23f6ab6 <__cxa_guard_acquire>
 23f97aa:	9901      	ldr	r1, [sp, #4]
 23f97ac:	b128      	cbz	r0, 23f97ba <pinAvailable+0x52>
 23f97ae:	480c      	ldr	r0, [pc, #48]	; (23f97e0 <pinAvailable+0x78>)
 23f97b0:	f7ff fbea 	bl	23f8f88 <_ZN8SPIClassC1E19hal_spi_interface_t>
 23f97b4:	4628      	mov	r0, r5
 23f97b6:	f7fd f983 	bl	23f6ac0 <__cxa_guard_release>
  if((pin == SCK || pin == MOSI || pin == MISO) && hal_spi_is_enabled(SPI.interface()) == true)
 23f97ba:	4b09      	ldr	r3, [pc, #36]	; (23f97e0 <pinAvailable+0x78>)
 23f97bc:	7818      	ldrb	r0, [r3, #0]
 23f97be:	f7ff f9d7 	bl	23f8b70 <hal_spi_is_enabled>
 23f97c2:	2800      	cmp	r0, #0
 23f97c4:	d1d4      	bne.n	23f9770 <pinAvailable+0x8>
  if((pin == RX || pin == TX) && hal_usart_is_enabled(Serial1.interface()) == true)
 23f97c6:	3c08      	subs	r4, #8
 23f97c8:	2c01      	cmp	r4, #1
 23f97ca:	d805      	bhi.n	23f97d8 <pinAvailable+0x70>
 23f97cc:	f000 f864 	bl	23f9898 <_Z22__fetch_global_Serial1v>
 23f97d0:	7c00      	ldrb	r0, [r0, #16]
 23f97d2:	f7ff f933 	bl	23f8a3c <hal_usart_is_enabled>
 23f97d6:	e7da      	b.n	23f978e <pinAvailable+0x26>
  return true; // 'pin' is available
 23f97d8:	2001      	movs	r0, #1
 23f97da:	e7ca      	b.n	23f9772 <pinAvailable+0xa>
 23f97dc:	1007aef0 	.word	0x1007aef0
 23f97e0:	1007aef4 	.word	0x1007aef4

023f97e4 <pinMode>:
  if(pin >= TOTAL_PINS || setMode == PIN_MODE_NONE )
 23f97e4:	281b      	cmp	r0, #27
{
 23f97e6:	b538      	push	{r3, r4, r5, lr}
 23f97e8:	4604      	mov	r4, r0
 23f97ea:	460d      	mov	r5, r1
  if(pin >= TOTAL_PINS || setMode == PIN_MODE_NONE )
 23f97ec:	d80a      	bhi.n	23f9804 <pinMode+0x20>
 23f97ee:	29ff      	cmp	r1, #255	; 0xff
 23f97f0:	d008      	beq.n	23f9804 <pinMode+0x20>
  if( !pinAvailable(pin) ) {
 23f97f2:	f7ff ffb9 	bl	23f9768 <pinAvailable>
 23f97f6:	b128      	cbz	r0, 23f9804 <pinMode+0x20>
  hal_gpio_mode(pin, setMode);
 23f97f8:	4629      	mov	r1, r5
 23f97fa:	4620      	mov	r0, r4
}
 23f97fc:	e8bd 4038 	ldmia.w	sp!, {r3, r4, r5, lr}
  hal_gpio_mode(pin, setMode);
 23f9800:	f7ff b866 	b.w	23f88d0 <hal_gpio_mode>
}
 23f9804:	bd38      	pop	{r3, r4, r5, pc}

023f9806 <digitalWrite>:

/*
 * @brief Sets a GPIO pin to HIGH or LOW.
 */
void digitalWrite(hal_pin_t pin, uint8_t value)
{
 23f9806:	b538      	push	{r3, r4, r5, lr}
 23f9808:	4604      	mov	r4, r0
 23f980a:	460d      	mov	r5, r1
    PinMode mode = hal_gpio_get_mode(pin);
 23f980c:	f7ff f86e 	bl	23f88ec <hal_gpio_get_mode>
    if (mode==PIN_MODE_NONE || is_input_mode(mode))
 23f9810:	28ff      	cmp	r0, #255	; 0xff
 23f9812:	d010      	beq.n	23f9836 <digitalWrite+0x30>
            mode == INPUT_PULLDOWN ||
 23f9814:	2806      	cmp	r0, #6
 23f9816:	d804      	bhi.n	23f9822 <digitalWrite+0x1c>
 23f9818:	234d      	movs	r3, #77	; 0x4d
 23f981a:	fa23 f000 	lsr.w	r0, r3, r0
 23f981e:	07c3      	lsls	r3, r0, #31
 23f9820:	d409      	bmi.n	23f9836 <digitalWrite+0x30>
        return;
  // Safety check
  if( !pinAvailable(pin) ) {
 23f9822:	4620      	mov	r0, r4
 23f9824:	f7ff ffa0 	bl	23f9768 <pinAvailable>
 23f9828:	b128      	cbz	r0, 23f9836 <digitalWrite+0x30>
    return;
  }

  hal_gpio_write(pin, value);
 23f982a:	4629      	mov	r1, r5
 23f982c:	4620      	mov	r0, r4
}
 23f982e:	e8bd 4038 	ldmia.w	sp!, {r3, r4, r5, lr}
  hal_gpio_write(pin, value);
 23f9832:	f7ff b869 	b.w	23f8908 <hal_gpio_write>
}
 23f9836:	bd38      	pop	{r3, r4, r5, pc}

023f9838 <__tcf_0>:
}
#endif

USARTSerial& __fetch_global_Serial1()
{
    static USARTSerial serial1(HAL_USART_SERIAL1, acquireSerial1Buffer());
 23f9838:	4770      	bx	lr
	...

023f983c <_ZN12_GLOBAL__N_118defaultUsartConfigEv>:
hal_usart_buffer_config_t defaultUsartConfig() {
 23f983c:	b538      	push	{r3, r4, r5, lr}
    hal_usart_buffer_config_t config = {
 23f983e:	2514      	movs	r5, #20
hal_usart_buffer_config_t defaultUsartConfig() {
 23f9840:	4604      	mov	r4, r0
    hal_usart_buffer_config_t config = {
 23f9842:	462a      	mov	r2, r5
 23f9844:	2100      	movs	r1, #0
 23f9846:	f003 f8b8 	bl	23fc9ba <memset>
 23f984a:	8025      	strh	r5, [r4, #0]
 23f984c:	2540      	movs	r5, #64	; 0x40
        .rx_buffer = new (std::nothrow) uint8_t[bufferSize],
 23f984e:	4907      	ldr	r1, [pc, #28]	; (23f986c <_ZN12_GLOBAL__N_118defaultUsartConfigEv+0x30>)
 23f9850:	4628      	mov	r0, r5
    hal_usart_buffer_config_t config = {
 23f9852:	8125      	strh	r5, [r4, #8]
 23f9854:	8225      	strh	r5, [r4, #16]
        .rx_buffer = new (std::nothrow) uint8_t[bufferSize],
 23f9856:	f000 fa8d 	bl	23f9d74 <_ZnajRKSt9nothrow_t>
        .tx_buffer = new (std::nothrow) uint8_t[bufferSize],
 23f985a:	4904      	ldr	r1, [pc, #16]	; (23f986c <_ZN12_GLOBAL__N_118defaultUsartConfigEv+0x30>)
    };
 23f985c:	6060      	str	r0, [r4, #4]
        .tx_buffer = new (std::nothrow) uint8_t[bufferSize],
 23f985e:	4628      	mov	r0, r5
 23f9860:	f000 fa88 	bl	23f9d74 <_ZnajRKSt9nothrow_t>
    };
 23f9864:	60e0      	str	r0, [r4, #12]
}
 23f9866:	4620      	mov	r0, r4
 23f9868:	bd38      	pop	{r3, r4, r5, pc}
 23f986a:	bf00      	nop
 23f986c:	023ffd47 	.word	0x023ffd47

023f9870 <__tcf_2>:
 23f9870:	4770      	bx	lr

023f9872 <__tcf_1>:
 23f9872:	4770      	bx	lr

023f9874 <_Z20acquireSerial1Bufferv>:
{
 23f9874:	b510      	push	{r4, lr}
 23f9876:	4604      	mov	r4, r0
    return defaultUsartConfig();
 23f9878:	f7ff ffe0 	bl	23f983c <_ZN12_GLOBAL__N_118defaultUsartConfigEv>
}
 23f987c:	4620      	mov	r0, r4
 23f987e:	bd10      	pop	{r4, pc}

023f9880 <_Z20acquireSerial2Bufferv>:
 23f9880:	b510      	push	{r4, lr}
 23f9882:	4604      	mov	r4, r0
 23f9884:	f7ff ffda 	bl	23f983c <_ZN12_GLOBAL__N_118defaultUsartConfigEv>
 23f9888:	4620      	mov	r0, r4
 23f988a:	bd10      	pop	{r4, pc}

023f988c <_Z20acquireSerial3Bufferv>:
 23f988c:	b510      	push	{r4, lr}
 23f988e:	4604      	mov	r4, r0
 23f9890:	f7ff ffd4 	bl	23f983c <_ZN12_GLOBAL__N_118defaultUsartConfigEv>
 23f9894:	4620      	mov	r0, r4
 23f9896:	bd10      	pop	{r4, pc}

023f9898 <_Z22__fetch_global_Serial1v>:
{
 23f9898:	b530      	push	{r4, r5, lr}
    static USARTSerial serial1(HAL_USART_SERIAL1, acquireSerial1Buffer());
 23f989a:	4d0e      	ldr	r5, [pc, #56]	; (23f98d4 <_Z22__fetch_global_Serial1v+0x3c>)
{
 23f989c:	b087      	sub	sp, #28
    static USARTSerial serial1(HAL_USART_SERIAL1, acquireSerial1Buffer());
 23f989e:	e8d5 1f8f 	ldab	r1, [r5]
 23f98a2:	f011 0401 	ands.w	r4, r1, #1
 23f98a6:	d111      	bne.n	23f98cc <_Z22__fetch_global_Serial1v+0x34>
 23f98a8:	4628      	mov	r0, r5
 23f98aa:	f7fd f904 	bl	23f6ab6 <__cxa_guard_acquire>
 23f98ae:	b168      	cbz	r0, 23f98cc <_Z22__fetch_global_Serial1v+0x34>
 23f98b0:	a801      	add	r0, sp, #4
 23f98b2:	f7ff ffdf 	bl	23f9874 <_Z20acquireSerial1Bufferv>
 23f98b6:	4621      	mov	r1, r4
 23f98b8:	aa01      	add	r2, sp, #4
 23f98ba:	4807      	ldr	r0, [pc, #28]	; (23f98d8 <_Z22__fetch_global_Serial1v+0x40>)
 23f98bc:	f7ff fde8 	bl	23f9490 <_ZN11USARTSerialC1E21hal_usart_interface_tRK25hal_usart_buffer_config_t>
 23f98c0:	4628      	mov	r0, r5
 23f98c2:	f7fd f8fd 	bl	23f6ac0 <__cxa_guard_release>
 23f98c6:	4805      	ldr	r0, [pc, #20]	; (23f98dc <_Z22__fetch_global_Serial1v+0x44>)
 23f98c8:	f003 f84a 	bl	23fc960 <atexit>
    return serial1;
}
 23f98cc:	4802      	ldr	r0, [pc, #8]	; (23f98d8 <_Z22__fetch_global_Serial1v+0x40>)
 23f98ce:	b007      	add	sp, #28
 23f98d0:	bd30      	pop	{r4, r5, pc}
 23f98d2:	bf00      	nop
 23f98d4:	1007aefc 	.word	0x1007aefc
 23f98d8:	1007af08 	.word	0x1007af08
 23f98dc:	023f9839 	.word	0x023f9839

023f98e0 <_Z22__fetch_global_Serial2v>:

#if Wiring_Serial2
USARTSerial& __fetch_global_Serial2()
{
 23f98e0:	b510      	push	{r4, lr}
	static USARTSerial serial2(HAL_USART_SERIAL2, acquireSerial2Buffer());
 23f98e2:	4c0d      	ldr	r4, [pc, #52]	; (23f9918 <_Z22__fetch_global_Serial2v+0x38>)
{
 23f98e4:	b086      	sub	sp, #24
	static USARTSerial serial2(HAL_USART_SERIAL2, acquireSerial2Buffer());
 23f98e6:	e8d4 3f8f 	ldab	r3, [r4]
 23f98ea:	07db      	lsls	r3, r3, #31
 23f98ec:	d411      	bmi.n	23f9912 <_Z22__fetch_global_Serial2v+0x32>
 23f98ee:	4620      	mov	r0, r4
 23f98f0:	f7fd f8e1 	bl	23f6ab6 <__cxa_guard_acquire>
 23f98f4:	b168      	cbz	r0, 23f9912 <_Z22__fetch_global_Serial2v+0x32>
 23f98f6:	a801      	add	r0, sp, #4
 23f98f8:	f7ff ffc2 	bl	23f9880 <_Z20acquireSerial2Bufferv>
 23f98fc:	2101      	movs	r1, #1
 23f98fe:	aa01      	add	r2, sp, #4
 23f9900:	4806      	ldr	r0, [pc, #24]	; (23f991c <_Z22__fetch_global_Serial2v+0x3c>)
 23f9902:	f7ff fdc5 	bl	23f9490 <_ZN11USARTSerialC1E21hal_usart_interface_tRK25hal_usart_buffer_config_t>
 23f9906:	4620      	mov	r0, r4
 23f9908:	f7fd f8da 	bl	23f6ac0 <__cxa_guard_release>
 23f990c:	4804      	ldr	r0, [pc, #16]	; (23f9920 <_Z22__fetch_global_Serial2v+0x40>)
 23f990e:	f003 f827 	bl	23fc960 <atexit>
	return serial2;
}
 23f9912:	4802      	ldr	r0, [pc, #8]	; (23f991c <_Z22__fetch_global_Serial2v+0x3c>)
 23f9914:	b006      	add	sp, #24
 23f9916:	bd10      	pop	{r4, pc}
 23f9918:	1007af00 	.word	0x1007af00
 23f991c:	1007af1c 	.word	0x1007af1c
 23f9920:	023f9873 	.word	0x023f9873

023f9924 <_Z15serialEventRun2v>:

void serialEventRun2()
{
 23f9924:	b510      	push	{r4, lr}
    __handleSerialEvent(Serial2, serialEvent2);
 23f9926:	f7ff ffdb 	bl	23f98e0 <_Z22__fetch_global_Serial2v>

inline void __handleSerialEvent(USARTSerial& serial, void (*handler)(void)) __attribute__((always_inline));

inline void __handleSerialEvent(USARTSerial& serial, void (*handler)(void))
{
    if (handler && serial.isEnabled() && serial.available()>0)
 23f992a:	4b07      	ldr	r3, [pc, #28]	; (23f9948 <_Z15serialEventRun2v+0x24>)
 23f992c:	4604      	mov	r4, r0
 23f992e:	b153      	cbz	r3, 23f9946 <_Z15serialEventRun2v+0x22>
 23f9930:	f7ff fdc2 	bl	23f94b8 <_ZN11USARTSerial9isEnabledEv>
 23f9934:	b138      	cbz	r0, 23f9946 <_Z15serialEventRun2v+0x22>
 23f9936:	6823      	ldr	r3, [r4, #0]
 23f9938:	4620      	mov	r0, r4
 23f993a:	691b      	ldr	r3, [r3, #16]
 23f993c:	4798      	blx	r3
 23f993e:	2800      	cmp	r0, #0
 23f9940:	dd01      	ble.n	23f9946 <_Z15serialEventRun2v+0x22>
        handler();
 23f9942:	e000      	b.n	23f9946 <_Z15serialEventRun2v+0x22>
 23f9944:	bf00      	nop
}
 23f9946:	bd10      	pop	{r4, pc}
 23f9948:	00000000 	.word	0x00000000

023f994c <_Z22__fetch_global_Serial3v>:
#endif

#if Wiring_Serial3
USARTSerial& __fetch_global_Serial3()
{
 23f994c:	b510      	push	{r4, lr}
	static USARTSerial serial3(HAL_USART_SERIAL3, acquireSerial3Buffer());
 23f994e:	4c0d      	ldr	r4, [pc, #52]	; (23f9984 <_Z22__fetch_global_Serial3v+0x38>)
{
 23f9950:	b086      	sub	sp, #24
	static USARTSerial serial3(HAL_USART_SERIAL3, acquireSerial3Buffer());
 23f9952:	e8d4 3f8f 	ldab	r3, [r4]
 23f9956:	07db      	lsls	r3, r3, #31
 23f9958:	d411      	bmi.n	23f997e <_Z22__fetch_global_Serial3v+0x32>
 23f995a:	4620      	mov	r0, r4
 23f995c:	f7fd f8ab 	bl	23f6ab6 <__cxa_guard_acquire>
 23f9960:	b168      	cbz	r0, 23f997e <_Z22__fetch_global_Serial3v+0x32>
 23f9962:	a801      	add	r0, sp, #4
 23f9964:	f7ff ff92 	bl	23f988c <_Z20acquireSerial3Bufferv>
 23f9968:	2102      	movs	r1, #2
 23f996a:	aa01      	add	r2, sp, #4
 23f996c:	4806      	ldr	r0, [pc, #24]	; (23f9988 <_Z22__fetch_global_Serial3v+0x3c>)
 23f996e:	f7ff fd8f 	bl	23f9490 <_ZN11USARTSerialC1E21hal_usart_interface_tRK25hal_usart_buffer_config_t>
 23f9972:	4620      	mov	r0, r4
 23f9974:	f7fd f8a4 	bl	23f6ac0 <__cxa_guard_release>
 23f9978:	4804      	ldr	r0, [pc, #16]	; (23f998c <_Z22__fetch_global_Serial3v+0x40>)
 23f997a:	f002 fff1 	bl	23fc960 <atexit>
	return serial3;
}
 23f997e:	4802      	ldr	r0, [pc, #8]	; (23f9988 <_Z22__fetch_global_Serial3v+0x3c>)
 23f9980:	b006      	add	sp, #24
 23f9982:	bd10      	pop	{r4, pc}
 23f9984:	1007af04 	.word	0x1007af04
 23f9988:	1007af30 	.word	0x1007af30
 23f998c:	023f9871 	.word	0x023f9871

023f9990 <_Z15serialEventRun3v>:

void serialEventRun3()
{
 23f9990:	b510      	push	{r4, lr}
    __handleSerialEvent(Serial3, serialEvent3);
 23f9992:	f7ff ffdb 	bl	23f994c <_Z22__fetch_global_Serial3v>
    if (handler && serial.isEnabled() && serial.available()>0)
 23f9996:	4b07      	ldr	r3, [pc, #28]	; (23f99b4 <_Z15serialEventRun3v+0x24>)
 23f9998:	4604      	mov	r4, r0
 23f999a:	b153      	cbz	r3, 23f99b2 <_Z15serialEventRun3v+0x22>
 23f999c:	f7ff fd8c 	bl	23f94b8 <_ZN11USARTSerial9isEnabledEv>
 23f99a0:	b138      	cbz	r0, 23f99b2 <_Z15serialEventRun3v+0x22>
 23f99a2:	6823      	ldr	r3, [r4, #0]
 23f99a4:	4620      	mov	r0, r4
 23f99a6:	691b      	ldr	r3, [r3, #16]
 23f99a8:	4798      	blx	r3
 23f99aa:	2800      	cmp	r0, #0
 23f99ac:	dd01      	ble.n	23f99b2 <_Z15serialEventRun3v+0x22>
        handler();
 23f99ae:	e000      	b.n	23f99b2 <_Z15serialEventRun3v+0x22>
 23f99b0:	bf00      	nop
}
 23f99b2:	bd10      	pop	{r4, pc}
 23f99b4:	00000000 	.word	0x00000000

023f99b8 <__tcf_0>:
}
#endif

TwoWire& __fetch_global_Wire()
{
	static TwoWire wire(HAL_I2C_INTERFACE1, acquireWireBuffer());
 23f99b8:	4770      	bx	lr
	...

023f99bc <_Z17acquireWireBufferv>:
{
 23f99bc:	b538      	push	{r3, r4, r5, lr}
	hal_i2c_config_t config = {
 23f99be:	4b0a      	ldr	r3, [pc, #40]	; (23f99e8 <_Z17acquireWireBufferv+0x2c>)
{
 23f99c0:	4604      	mov	r4, r0
	hal_i2c_config_t config = {
 23f99c2:	6003      	str	r3, [r0, #0]
 23f99c4:	2301      	movs	r3, #1
		.rx_buffer = new (std::nothrow) uint8_t[i2c_buffer_size],
 23f99c6:	4909      	ldr	r1, [pc, #36]	; (23f99ec <_Z17acquireWireBufferv+0x30>)
	hal_i2c_config_t config = {
 23f99c8:	6143      	str	r3, [r0, #20]
		.rx_buffer = new (std::nothrow) uint8_t[i2c_buffer_size],
 23f99ca:	2020      	movs	r0, #32
 23f99cc:	f000 f9d2 	bl	23f9d74 <_ZnajRKSt9nothrow_t>
	};
 23f99d0:	2520      	movs	r5, #32
 23f99d2:	6060      	str	r0, [r4, #4]
		.tx_buffer = new (std::nothrow) uint8_t[i2c_buffer_size],
 23f99d4:	4905      	ldr	r1, [pc, #20]	; (23f99ec <_Z17acquireWireBufferv+0x30>)
 23f99d6:	4628      	mov	r0, r5
	};
 23f99d8:	60a5      	str	r5, [r4, #8]
		.tx_buffer = new (std::nothrow) uint8_t[i2c_buffer_size],
 23f99da:	f000 f9cb 	bl	23f9d74 <_ZnajRKSt9nothrow_t>
	};
 23f99de:	e9c4 0503 	strd	r0, r5, [r4, #12]
}
 23f99e2:	4620      	mov	r0, r4
 23f99e4:	bd38      	pop	{r3, r4, r5, pc}
 23f99e6:	bf00      	nop
 23f99e8:	00010018 	.word	0x00010018
 23f99ec:	023ffd47 	.word	0x023ffd47

023f99f0 <_Z19__fetch_global_Wirev>:
{
 23f99f0:	b530      	push	{r4, r5, lr}
	static TwoWire wire(HAL_I2C_INTERFACE1, acquireWireBuffer());
 23f99f2:	4d0e      	ldr	r5, [pc, #56]	; (23f9a2c <_Z19__fetch_global_Wirev+0x3c>)
{
 23f99f4:	b087      	sub	sp, #28
	static TwoWire wire(HAL_I2C_INTERFACE1, acquireWireBuffer());
 23f99f6:	e8d5 1f8f 	ldab	r1, [r5]
 23f99fa:	f011 0401 	ands.w	r4, r1, #1
 23f99fe:	d111      	bne.n	23f9a24 <_Z19__fetch_global_Wirev+0x34>
 23f9a00:	4628      	mov	r0, r5
 23f9a02:	f7fd f858 	bl	23f6ab6 <__cxa_guard_acquire>
 23f9a06:	b168      	cbz	r0, 23f9a24 <_Z19__fetch_global_Wirev+0x34>
 23f9a08:	4668      	mov	r0, sp
 23f9a0a:	f7ff ffd7 	bl	23f99bc <_Z17acquireWireBufferv>
 23f9a0e:	466a      	mov	r2, sp
 23f9a10:	4621      	mov	r1, r4
 23f9a12:	4807      	ldr	r0, [pc, #28]	; (23f9a30 <_Z19__fetch_global_Wirev+0x40>)
 23f9a14:	f7ff fd80 	bl	23f9518 <_ZN7TwoWireC1E19hal_i2c_interface_tRK16hal_i2c_config_t>
 23f9a18:	4628      	mov	r0, r5
 23f9a1a:	f7fd f851 	bl	23f6ac0 <__cxa_guard_release>
 23f9a1e:	4805      	ldr	r0, [pc, #20]	; (23f9a34 <_Z19__fetch_global_Wirev+0x44>)
 23f9a20:	f002 ff9e 	bl	23fc960 <atexit>
	return wire;
}
 23f9a24:	4802      	ldr	r0, [pc, #8]	; (23f9a30 <_Z19__fetch_global_Wirev+0x40>)
 23f9a26:	b007      	add	sp, #28
 23f9a28:	bd30      	pop	{r4, r5, pc}
 23f9a2a:	bf00      	nop
 23f9a2c:	1007af48 	.word	0x1007af48
 23f9a30:	1007af4c 	.word	0x1007af4c
 23f9a34:	023f99b9 	.word	0x023f99b9

023f9a38 <PLL_Div>:
  */
void PLL_Div(u32 div)
{
	u32 Tmp;

	Tmp = HAL_READ32(SYSTEM_CTRL_BASE_HP, REG_HS_PERI_CLK_CTRL3);
 23f9a38:	f04f 4280 	mov.w	r2, #1073741824	; 0x40000000
 23f9a3c:	f8d2 3218 	ldr.w	r3, [r2, #536]	; 0x218
	Tmp &= ~(BIT_MASK_HSYS_I2S_CLKDIV << BIT_SHIFT_HSYS_I2S_CLKDIV);
 23f9a40:	f023 63fe 	bic.w	r3, r3, #133169152	; 0x7f00000
	Tmp |= ((u32)div) << BIT_SHIFT_HSYS_I2S_CLKDIV;
 23f9a44:	ea43 5000 	orr.w	r0, r3, r0, lsl #20
	HAL_WRITE32(SYSTEM_CTRL_BASE_HP, REG_HS_PERI_CLK_CTRL3, Tmp);
 23f9a48:	f8c2 0218 	str.w	r0, [r2, #536]	; 0x218
}
 23f9a4c:	4770      	bx	lr
	...

023f9a50 <PLL_I2S_Set>:
void PLL_I2S_Set(u32 new_state)
{
	u32 Tmp;


	if (ENABLE == new_state){
 23f9a50:	2801      	cmp	r0, #1
{
 23f9a52:	b570      	push	{r4, r5, r6, lr}
 23f9a54:	f04f 4480 	mov.w	r4, #1073741824	; 0x40000000
	if (ENABLE == new_state){
 23f9a58:	d14a      	bne.n	23f9af0 <PLL_I2S_Set+0xa0>
		//avoid repeated pll enable operation
		if((HAL_READ32(SYSTEM_CTRL_BASE_HP, REG_HS_PLL_TEST) & BIT_PLL_I2S_RDY)){
 23f9a5a:	f8d4 30a0 	ldr.w	r3, [r4, #160]	; 0xa0
 23f9a5e:	009a      	lsls	r2, r3, #2
 23f9a60:	d445      	bmi.n	23f9aee <PLL_I2S_Set+0x9e>
			return ;
		}
		//enable 98.304M PLL
		Tmp = HAL_READ32(SYSTEM_CTRL_BASE_LP, REG_LP_FUNC_EN0);
 23f9a62:	f04f 4590 	mov.w	r5, #1207959552	; 0x48000000
 23f9a66:	f8d5 3208 	ldr.w	r3, [r5, #520]	; 0x208

		Tmp = HAL_READ32(SYSTEM_CTRL_BASE_LP, REG_LP_SYSPLL_CTRL0);
		Tmp |= (BIT_LP_PLL_BG_I_EN |BIT_LP_PLL_BG_EN);
		HAL_WRITE32(SYSTEM_CTRL_BASE_LP, REG_LP_SYSPLL_CTRL0, Tmp);

		DelayUs(2);
 23f9a6a:	2002      	movs	r0, #2
		Tmp |= BIT_SYS_AMACRO_EN;
 23f9a6c:	f043 5380 	orr.w	r3, r3, #268435456	; 0x10000000
		HAL_WRITE32(SYSTEM_CTRL_BASE_LP, REG_LP_FUNC_EN0, Tmp);
 23f9a70:	f8c5 3208 	str.w	r3, [r5, #520]	; 0x208
		Tmp = HAL_READ32(SYSTEM_CTRL_BASE_LP, REG_LP_SYSPLL_CTRL0);
 23f9a74:	f8d5 3280 	ldr.w	r3, [r5, #640]	; 0x280
		DelayUs(2);
 23f9a78:	4e21      	ldr	r6, [pc, #132]	; (23f9b00 <PLL_I2S_Set+0xb0>)
		Tmp |= (BIT_LP_PLL_BG_I_EN |BIT_LP_PLL_BG_EN);
 23f9a7a:	f043 0303 	orr.w	r3, r3, #3
		HAL_WRITE32(SYSTEM_CTRL_BASE_LP, REG_LP_SYSPLL_CTRL0, Tmp);
 23f9a7e:	f8c5 3280 	str.w	r3, [r5, #640]	; 0x280
		DelayUs(2);
 23f9a82:	47b0      	blx	r6

		Tmp = HAL_READ32(SYSTEM_CTRL_BASE_LP, REG_LP_SYSPLL_CTRL0);
 23f9a84:	f8d5 3280 	ldr.w	r3, [r5, #640]	; 0x280

		Tmp = HAL_READ32(SYSTEM_CTRL_BASE_HP, REG_HS_PLL_I2S_CTRL0);
		Tmp |= BIT_PLL_I2S_POWCUT_EN;
		HAL_WRITE32(SYSTEM_CTRL_BASE_HP, REG_HS_PLL_I2S_CTRL0, Tmp);

		DelayUs(400);
 23f9a88:	f44f 70c8 	mov.w	r0, #400	; 0x190
		Tmp |= BIT_LP_PLL_MBIAS_EN;
 23f9a8c:	f043 0304 	orr.w	r3, r3, #4
		HAL_WRITE32(SYSTEM_CTRL_BASE_LP, REG_LP_SYSPLL_CTRL0, Tmp);
 23f9a90:	f8c5 3280 	str.w	r3, [r5, #640]	; 0x280
		Tmp = HAL_READ32(SYSTEM_CTRL_BASE_HP, REG_HS_PLL_I2S_CTRL0);
 23f9a94:	f8d4 3080 	ldr.w	r3, [r4, #128]	; 0x80
		Tmp |= BIT_PLL_I2S_POWCUT_EN;
 23f9a98:	f043 4300 	orr.w	r3, r3, #2147483648	; 0x80000000
		HAL_WRITE32(SYSTEM_CTRL_BASE_HP, REG_HS_PLL_I2S_CTRL0, Tmp);
 23f9a9c:	f8c4 3080 	str.w	r3, [r4, #128]	; 0x80
		DelayUs(400);
 23f9aa0:	47b0      	blx	r6

		Tmp = HAL_READ32(SYSTEM_CTRL_BASE_LP, REG_LP_XTAL_CTRL1);
 23f9aa2:	f8d5 3264 	ldr.w	r3, [r5, #612]	; 0x264
		Tmp &= ~BIT_XTAL_AAC_GM_EN;
 23f9aa6:	f023 5300 	bic.w	r3, r3, #536870912	; 0x20000000
		HAL_WRITE32(SYSTEM_CTRL_BASE_LP, REG_LP_XTAL_CTRL1, Tmp);
 23f9aaa:	f8c5 3264 	str.w	r3, [r5, #612]	; 0x264

		Tmp = HAL_READ32(SYSTEM_CTRL_BASE_HP, REG_HS_PLL_I2S_CTRL0);
 23f9aae:	f8d4 3080 	ldr.w	r3, [r4, #128]	; 0x80
		Tmp |= (BIT_PLL_I2S_DIV_EN | BIT_PLL_I2S_EN);
 23f9ab2:	f043 43c0 	orr.w	r3, r3, #1610612736	; 0x60000000
		HAL_WRITE32(SYSTEM_CTRL_BASE_HP, REG_HS_PLL_I2S_CTRL0, Tmp);
 23f9ab6:	f8c4 3080 	str.w	r3, [r4, #128]	; 0x80

		Tmp = HAL_READ32(SYSTEM_CTRL_BASE_HP, REG_HS_PWR_ISO_CTRL);
 23f9aba:	6823      	ldr	r3, [r4, #0]
		Tmp &= ~BIT_HSYS_ISO_AUXPLL_I2S;
 23f9abc:	f423 2380 	bic.w	r3, r3, #262144	; 0x40000
		HAL_WRITE32(SYSTEM_CTRL_BASE_HP, REG_HS_PWR_ISO_CTRL, Tmp);
 23f9ac0:	6023      	str	r3, [r4, #0]

		Tmp = HAL_READ32(SYSTEM_CTRL_BASE_HP, REG_HS_PLL_I2S_CTRL1);
 23f9ac2:	f8d4 3084 	ldr.w	r3, [r4, #132]	; 0x84
		Tmp |= BIT_PLL_I2S_POW_SDM_FCODE;
 23f9ac6:	f043 0301 	orr.w	r3, r3, #1
		HAL_WRITE32(SYSTEM_CTRL_BASE_HP, REG_HS_PLL_I2S_CTRL1, Tmp);
 23f9aca:	f8c4 3084 	str.w	r3, [r4, #132]	; 0x84

		while ((HAL_READ32(SYSTEM_CTRL_BASE_HP, REG_HS_PLL_TEST) & BIT_PLL_I2S_RDY) != BIT_PLL_I2S_RDY) ;
 23f9ace:	f8d4 30a0 	ldr.w	r3, [r4, #160]	; 0xa0
 23f9ad2:	009b      	lsls	r3, r3, #2
 23f9ad4:	d5fb      	bpl.n	23f9ace <PLL_I2S_Set+0x7e>

		Tmp = HAL_READ32(SYSTEM_CTRL_BASE_HP, REG_HS_PLL_I2S_CTRL0);
 23f9ad6:	f8d4 3080 	ldr.w	r3, [r4, #128]	; 0x80
		Tmp |= BIT_PLL_I2S_CLK_EN;
 23f9ada:	f443 7380 	orr.w	r3, r3, #256	; 0x100
		HAL_WRITE32(SYSTEM_CTRL_BASE_HP, REG_HS_PLL_I2S_CTRL0, Tmp);
 23f9ade:	f8c4 3080 	str.w	r3, [r4, #128]	; 0x80

		Tmp = HAL_READ32(SYSTEM_CTRL_BASE_HP, REG_HS_PLL_I2S_CTRL0);
 23f9ae2:	f8d4 3080 	ldr.w	r3, [r4, #128]	; 0x80
		Tmp |= BIT_PLL_I2S_DIV2_EN;
 23f9ae6:	f043 0380 	orr.w	r3, r3, #128	; 0x80
		HAL_WRITE32(SYSTEM_CTRL_BASE_HP, REG_HS_PLL_I2S_CTRL0, Tmp);
	}
	else{
		Tmp = HAL_READ32(SYSTEM_CTRL_BASE_HP, REG_HS_PLL_I2S_CTRL0);
		Tmp &= ~(BIT_PLL_I2S_CLK_EN|BIT_PLL_I2S_DIV2_EN|BIT_PLL_I2S_EN|BIT_PLL_I2S_DIV_EN|BIT_PLL_I2S_DIV_EN);
		HAL_WRITE32(SYSTEM_CTRL_BASE_HP, REG_HS_PLL_I2S_CTRL0, Tmp);
 23f9aea:	f8c4 3080 	str.w	r3, [r4, #128]	; 0x80
	}
}
 23f9aee:	bd70      	pop	{r4, r5, r6, pc}
		Tmp = HAL_READ32(SYSTEM_CTRL_BASE_HP, REG_HS_PLL_I2S_CTRL0);
 23f9af0:	f8d4 3080 	ldr.w	r3, [r4, #128]	; 0x80
		Tmp &= ~(BIT_PLL_I2S_CLK_EN|BIT_PLL_I2S_DIV2_EN|BIT_PLL_I2S_EN|BIT_PLL_I2S_DIV_EN|BIT_PLL_I2S_DIV_EN);
 23f9af4:	f023 43c0 	bic.w	r3, r3, #1610612736	; 0x60000000
 23f9af8:	f423 73c0 	bic.w	r3, r3, #384	; 0x180
 23f9afc:	e7f5      	b.n	23f9aea <PLL_I2S_Set+0x9a>
 23f9afe:	bf00      	nop
 23f9b00:	1010a949 	.word	0x1010a949

023f9b04 <AUDIO_SP_StructInit>:
  *         initialized.
  * @retval None
  */
void AUDIO_SP_StructInit(SP_InitTypeDef* SP_InitStruct)
{
	SP_InitStruct->SP_WordLen = SP_WL_16;
 23f9b04:	2300      	movs	r3, #0
	SP_InitStruct->SP_DataFormat = SP_DF_I2S;
 23f9b06:	e9c0 3300 	strd	r3, r3, [r0]
	SP_InitStruct->SP_MonoStereo = SP_CH_STEREO;
	SP_InitStruct->SP_SelRxCh = SP_RX_CH_LR;
 23f9b0a:	e9c0 3302 	strd	r3, r3, [r0, #8]
}
 23f9b0e:	4770      	bx	lr

023f9b10 <AUDIO_SP_TxStart>:
  * @retval None
  */
void AUDIO_SP_TxStart(AUDIO_SPORT_TypeDef* SPORTx, u32 NewState)
{
	if (NewState == ENABLE) {
		SPORTx->SP_CTRLR0 &= ~ SP_CTRLR0_TX_DISABLE;
 23f9b10:	6843      	ldr	r3, [r0, #4]
	if (NewState == ENABLE) {
 23f9b12:	2901      	cmp	r1, #1
		SPORTx->SP_CTRLR0 &= ~ SP_CTRLR0_TX_DISABLE;
 23f9b14:	bf0b      	itete	eq
 23f9b16:	f423 3380 	biceq.w	r3, r3, #65536	; 0x10000
		SPORTx->SP_CTRLR0 |= SP_CTRLR0_START_TX;
	} else {
		SPORTx->SP_CTRLR0 |= SP_CTRLR0_TX_DISABLE;
 23f9b1a:	f443 3380 	orrne.w	r3, r3, #65536	; 0x10000
		SPORTx->SP_CTRLR0 &= ~ SP_CTRLR0_TX_DISABLE;
 23f9b1e:	6043      	streq	r3, [r0, #4]
		SPORTx->SP_CTRLR0 |= SP_CTRLR0_TX_DISABLE;
 23f9b20:	6043      	strne	r3, [r0, #4]
		SPORTx->SP_CTRLR0 |= SP_CTRLR0_START_TX;
 23f9b22:	bf0b      	itete	eq
 23f9b24:	6843      	ldreq	r3, [r0, #4]
		SPORTx->SP_CTRLR0 &= ~ SP_CTRLR0_START_TX;
 23f9b26:	6843      	ldrne	r3, [r0, #4]
		SPORTx->SP_CTRLR0 |= SP_CTRLR0_START_TX;
 23f9b28:	f443 3300 	orreq.w	r3, r3, #131072	; 0x20000
		SPORTx->SP_CTRLR0 &= ~ SP_CTRLR0_START_TX;
 23f9b2c:	f423 3300 	bicne.w	r3, r3, #131072	; 0x20000
 23f9b30:	6043      	str	r3, [r0, #4]
	}
}
 23f9b32:	4770      	bx	lr

023f9b34 <AUDIO_SP_RxStart>:
  * @retval None
  */
void AUDIO_SP_RxStart(AUDIO_SPORT_TypeDef* SPORTx, u32 NewState)
{
	if (NewState == ENABLE) {
		SPORTx->SP_CTRLR0 &= ~ SP_CTRLR0_RX_DISABLE;
 23f9b34:	6843      	ldr	r3, [r0, #4]
	if (NewState == ENABLE) {
 23f9b36:	2901      	cmp	r1, #1
		SPORTx->SP_CTRLR0 &= ~ SP_CTRLR0_RX_DISABLE;
 23f9b38:	bf0b      	itete	eq
 23f9b3a:	f023 7380 	biceq.w	r3, r3, #16777216	; 0x1000000
		SPORTx->SP_CTRLR0 |= SP_CTRLR0_START_RX;
	} else {
		SPORTx->SP_CTRLR0 |= SP_CTRLR0_RX_DISABLE;
 23f9b3e:	f043 7380 	orrne.w	r3, r3, #16777216	; 0x1000000
		SPORTx->SP_CTRLR0 &= ~ SP_CTRLR0_RX_DISABLE;
 23f9b42:	6043      	streq	r3, [r0, #4]
		SPORTx->SP_CTRLR0 |= SP_CTRLR0_RX_DISABLE;
 23f9b44:	6043      	strne	r3, [r0, #4]
		SPORTx->SP_CTRLR0 |= SP_CTRLR0_START_RX;
 23f9b46:	bf0b      	itete	eq
 23f9b48:	6843      	ldreq	r3, [r0, #4]
		SPORTx->SP_CTRLR0 &= ~ SP_CTRLR0_START_RX;
 23f9b4a:	6843      	ldrne	r3, [r0, #4]
		SPORTx->SP_CTRLR0 |= SP_CTRLR0_START_RX;
 23f9b4c:	f043 7300 	orreq.w	r3, r3, #33554432	; 0x2000000
		SPORTx->SP_CTRLR0 &= ~ SP_CTRLR0_START_RX;
 23f9b50:	f023 7300 	bicne.w	r3, r3, #33554432	; 0x2000000
 23f9b54:	6043      	str	r3, [r0, #4]
	}
}
 23f9b56:	4770      	bx	lr

023f9b58 <AUDIO_SP_Init>:
{
 23f9b58:	b538      	push	{r3, r4, r5, lr}
	assert_param(IS_SP_WORD_LEN(SP_InitStruct->SP_WordLen));
 23f9b5a:	680b      	ldr	r3, [r1, #0]
{
 23f9b5c:	4605      	mov	r5, r0
 23f9b5e:	460c      	mov	r4, r1
	assert_param(IS_SP_WORD_LEN(SP_InitStruct->SP_WordLen));
 23f9b60:	b133      	cbz	r3, 23f9b70 <AUDIO_SP_Init+0x18>
 23f9b62:	3b02      	subs	r3, #2
 23f9b64:	2b01      	cmp	r3, #1
 23f9b66:	d903      	bls.n	23f9b70 <AUDIO_SP_Init+0x18>
 23f9b68:	213a      	movs	r1, #58	; 0x3a
 23f9b6a:	481f      	ldr	r0, [pc, #124]	; (23f9be8 <AUDIO_SP_Init+0x90>)
 23f9b6c:	f002 ffcc 	bl	23fcb08 <__io_assert_failed_veneer>
	assert_param(IS_SP_DATA_FMT(SP_InitStruct->SP_DataFormat));
 23f9b70:	6863      	ldr	r3, [r4, #4]
 23f9b72:	2b03      	cmp	r3, #3
 23f9b74:	d906      	bls.n	23f9b84 <AUDIO_SP_Init+0x2c>
 23f9b76:	3b06      	subs	r3, #6
 23f9b78:	2b01      	cmp	r3, #1
 23f9b7a:	d903      	bls.n	23f9b84 <AUDIO_SP_Init+0x2c>
 23f9b7c:	213b      	movs	r1, #59	; 0x3b
 23f9b7e:	481a      	ldr	r0, [pc, #104]	; (23f9be8 <AUDIO_SP_Init+0x90>)
 23f9b80:	f002 ffc2 	bl	23fcb08 <__io_assert_failed_veneer>
	assert_param(IS_SP_CHN_NUM(SP_InitStruct->SP_MonoStereo));
 23f9b84:	68a3      	ldr	r3, [r4, #8]
 23f9b86:	2b01      	cmp	r3, #1
 23f9b88:	d903      	bls.n	23f9b92 <AUDIO_SP_Init+0x3a>
 23f9b8a:	213c      	movs	r1, #60	; 0x3c
 23f9b8c:	4816      	ldr	r0, [pc, #88]	; (23f9be8 <AUDIO_SP_Init+0x90>)
 23f9b8e:	f002 ffbb 	bl	23fcb08 <__io_assert_failed_veneer>
	assert_param(IS_SP_SEL_RX_CH(SP_InitStruct->SP_SelRxCh));
 23f9b92:	68e3      	ldr	r3, [r4, #12]
 23f9b94:	2b03      	cmp	r3, #3
 23f9b96:	d903      	bls.n	23f9ba0 <AUDIO_SP_Init+0x48>
 23f9b98:	213d      	movs	r1, #61	; 0x3d
 23f9b9a:	4813      	ldr	r0, [pc, #76]	; (23f9be8 <AUDIO_SP_Init+0x90>)
 23f9b9c:	f002 ffb4 	bl	23fcb08 <__io_assert_failed_veneer>
	SPORTx->SP_CTRLR0 |= SP_CTRLR0_RST;
 23f9ba0:	686b      	ldr	r3, [r5, #4]
	AUDIO_SP_TxStart(SPORTx, DISABLE);
 23f9ba2:	2100      	movs	r1, #0
	SPORTx->SP_CTRLR0 |= SP_CTRLR0_RST;
 23f9ba4:	f043 0301 	orr.w	r3, r3, #1
 23f9ba8:	606b      	str	r3, [r5, #4]
	SPORTx->SP_CTRLR0 &= ~ SP_CTRLR0_RST;
 23f9baa:	686b      	ldr	r3, [r5, #4]
	AUDIO_SP_TxStart(SPORTx, DISABLE);
 23f9bac:	4628      	mov	r0, r5
	SPORTx->SP_CTRLR0 &= ~ SP_CTRLR0_RST;
 23f9bae:	f023 0301 	bic.w	r3, r3, #1
 23f9bb2:	606b      	str	r3, [r5, #4]
	SPORTx->SP_CLK_DIV = 0x271 | (0x10 << 16) | SP_CLK_MI_NI_UPDATE;
 23f9bb4:	4b0d      	ldr	r3, [pc, #52]	; (23f9bec <AUDIO_SP_Init+0x94>)
 23f9bb6:	61eb      	str	r3, [r5, #28]
	AUDIO_SP_TxStart(SPORTx, DISABLE);
 23f9bb8:	4b0d      	ldr	r3, [pc, #52]	; (23f9bf0 <AUDIO_SP_Init+0x98>)
 23f9bba:	4798      	blx	r3
	AUDIO_SP_RxStart(SPORTx, DISABLE);
 23f9bbc:	4b0d      	ldr	r3, [pc, #52]	; (23f9bf4 <AUDIO_SP_Init+0x9c>)
 23f9bbe:	4798      	blx	r3
		(SP_InitStruct->SP_DataFormat << 8) |
 23f9bc0:	e9d4 1300 	ldrd	r1, r3, [r4]
	Tmp = SPORTx->SP_CTRLR0;
 23f9bc4:	686a      	ldr	r2, [r5, #4]
		(SP_InitStruct->SP_DataFormat << 8) |
 23f9bc6:	021b      	lsls	r3, r3, #8
	Tmp &= ~(SP_CTRLR0_DATA_LEN_SEL |SP_CTRLR0_DATA_FORMAT_SEL | SP_CTRLR0_EN_I2S_MONO | SP_CTRLR0_SEL_I2S_RX_CH);
 23f9bc8:	f022 5240 	bic.w	r2, r2, #805306368	; 0x30000000
 23f9bcc:	f422 526c 	bic.w	r2, r2, #15104	; 0x3b00
	Tmp |= ((SP_InitStruct->SP_WordLen << 12) |
 23f9bd0:	ea43 3301 	orr.w	r3, r3, r1, lsl #12
 23f9bd4:	4313      	orrs	r3, r2
		(SP_InitStruct->SP_MonoStereo << 11) |
 23f9bd6:	68a2      	ldr	r2, [r4, #8]
 23f9bd8:	ea43 23c2 	orr.w	r3, r3, r2, lsl #11
		(SP_InitStruct->SP_SelRxCh << 28));
 23f9bdc:	68e2      	ldr	r2, [r4, #12]
	Tmp |= ((SP_InitStruct->SP_WordLen << 12) |
 23f9bde:	ea43 7302 	orr.w	r3, r3, r2, lsl #28
	SPORTx->SP_CTRLR0 = Tmp;
 23f9be2:	606b      	str	r3, [r5, #4]
}
 23f9be4:	bd38      	pop	{r3, r4, r5, pc}
 23f9be6:	bf00      	nop
 23f9be8:	023ffd39 	.word	0x023ffd39
 23f9bec:	80100271 	.word	0x80100271
 23f9bf0:	023f9b11 	.word	0x023f9b11
 23f9bf4:	023f9b35 	.word	0x023f9b35

023f9bf8 <AUDIO_SP_RdmaCmd>:
  * @retval None
  */
void AUDIO_SP_RdmaCmd(AUDIO_SPORT_TypeDef* SPORTx, u32 NewState)
{
	if (NewState == ENABLE) {
		SPORTx->SP_CTRLR1 |= SP_CTRLR1_RDMA_REQ;
 23f9bf8:	6883      	ldr	r3, [r0, #8]
	if (NewState == ENABLE) {
 23f9bfa:	2901      	cmp	r1, #1
		SPORTx->SP_CTRLR1 |= SP_CTRLR1_RDMA_REQ;
 23f9bfc:	bf0b      	itete	eq
 23f9bfe:	f443 2300 	orreq.w	r3, r3, #524288	; 0x80000
		SPORTx->SP_DSP_INT_CR &= ~ SP_RX_DMA_SINGLE_NO_REQ;
	} else {
		SPORTx->SP_CTRLR1 &= ~ SP_CTRLR1_RDMA_REQ;
 23f9c02:	f423 2300 	bicne.w	r3, r3, #524288	; 0x80000
		SPORTx->SP_CTRLR1 |= SP_CTRLR1_RDMA_REQ;
 23f9c06:	6083      	streq	r3, [r0, #8]
		SPORTx->SP_CTRLR1 &= ~ SP_CTRLR1_RDMA_REQ;
 23f9c08:	6083      	strne	r3, [r0, #8]
		SPORTx->SP_DSP_INT_CR &= ~ SP_RX_DMA_SINGLE_NO_REQ;
 23f9c0a:	bf0b      	itete	eq
 23f9c0c:	68c3      	ldreq	r3, [r0, #12]
		SPORTx->SP_DSP_INT_CR |= SP_RX_DMA_SINGLE_NO_REQ;
 23f9c0e:	68c3      	ldrne	r3, [r0, #12]
		SPORTx->SP_DSP_INT_CR &= ~ SP_RX_DMA_SINGLE_NO_REQ;
 23f9c10:	f423 2300 	biceq.w	r3, r3, #524288	; 0x80000
		SPORTx->SP_DSP_INT_CR |= SP_RX_DMA_SINGLE_NO_REQ;
 23f9c14:	f443 2300 	orrne.w	r3, r3, #524288	; 0x80000
 23f9c18:	60c3      	str	r3, [r0, #12]
	}
}
 23f9c1a:	4770      	bx	lr

023f9c1c <AUDIO_SP_RXGDMA_Init>:
	void *CallbackData,
	IRQ_FUN CallbackFunc,
	u8 *pRxData,
	u32 Length
	)
{
 23f9c1c:	e92d 43f7 	stmdb	sp!, {r0, r1, r2, r4, r5, r6, r7, r8, r9, lr}
 23f9c20:	461f      	mov	r7, r3
 23f9c22:	e9dd 560a 	ldrd	r5, r6, [sp, #40]	; 0x28
	u8 GdmaChnl;
	AUDIO_SPORT_TypeDef *SPORTx = AUDIO_DEV_TABLE[Index].SPORTx;
 23f9c26:	230c      	movs	r3, #12
 23f9c28:	4358      	muls	r0, r3
 23f9c2a:	4b4b      	ldr	r3, [pc, #300]	; (23f9d58 <AUDIO_SP_RXGDMA_Init+0x13c>)
	u32 WordLen = AUDIO_SP_GetWordLen(SPORTx);

	assert_param(GDMA_InitStruct != NULL);
 23f9c2c:	460c      	mov	r4, r1
	AUDIO_SPORT_TypeDef *SPORTx = AUDIO_DEV_TABLE[Index].SPORTx;
 23f9c2e:	f853 8000 	ldr.w	r8, [r3, r0]
	u32 len = ((SPORTx->SP_CTRLR0) & SP_CTRLR0_DATA_LEN_SEL) >> 12;
 23f9c32:	f8d8 9004 	ldr.w	r9, [r8, #4]
	assert_param(GDMA_InitStruct != NULL);
 23f9c36:	b931      	cbnz	r1, 23f9c46 <AUDIO_SP_RXGDMA_Init+0x2a>
 23f9c38:	f44f 71a7 	mov.w	r1, #334	; 0x14e
 23f9c3c:	4847      	ldr	r0, [pc, #284]	; (23f9d5c <AUDIO_SP_RXGDMA_Init+0x140>)
 23f9c3e:	9201      	str	r2, [sp, #4]
 23f9c40:	f002 ff62 	bl	23fcb08 <__io_assert_failed_veneer>
 23f9c44:	9a01      	ldr	r2, [sp, #4]
	/*obtain a DMA channel and register DMA interrupt handler*/
	GdmaChnl = GDMA_ChnlAlloc(0, CallbackFunc, (u32)CallbackData, 12);
 23f9c46:	4639      	mov	r1, r7
 23f9c48:	230c      	movs	r3, #12
 23f9c4a:	4f45      	ldr	r7, [pc, #276]	; (23f9d60 <AUDIO_SP_RXGDMA_Init+0x144>)
 23f9c4c:	2000      	movs	r0, #0
 23f9c4e:	47b8      	blx	r7
	if (GdmaChnl == 0xFF) {
 23f9c50:	28ff      	cmp	r0, #255	; 0xff
	GdmaChnl = GDMA_ChnlAlloc(0, CallbackFunc, (u32)CallbackData, 12);
 23f9c52:	4607      	mov	r7, r0
	if (GdmaChnl == 0xFF) {
 23f9c54:	d07e      	beq.n	23f9d54 <AUDIO_SP_RXGDMA_Init+0x138>
		// No Available DMA channel
		return _FALSE;
	}

	_memset((void *)GDMA_InitStruct, 0, sizeof(GDMA_InitTypeDef));
 23f9c56:	2254      	movs	r2, #84	; 0x54
 23f9c58:	2100      	movs	r1, #0
 23f9c5a:	4b42      	ldr	r3, [pc, #264]	; (23f9d64 <AUDIO_SP_RXGDMA_Init+0x148>)
 23f9c5c:	4620      	mov	r0, r4
 23f9c5e:	4798      	blx	r3
	/*set GDMA initial structure member value*/
	GDMA_InitStruct->MuliBlockCunt = 0;
	GDMA_InitStruct->GDMA_ReloadSrc = 0;
	GDMA_InitStruct->MaxMuliBlock = 1;
	GDMA_InitStruct->GDMA_DIR = TTFCPeriToMem;
	GDMA_InitStruct->GDMA_SrcHandshakeInterface = AUDIO_DEV_TABLE[Index].Rx_HandshakeInterface;
 23f9c60:	210b      	movs	r1, #11
 23f9c62:	6421      	str	r1, [r4, #64]	; 0x40
	GDMA_InitStruct->GDMA_SrcAddr = (u32)&AUDIO_DEV_TABLE[Index].SPORTx->SP_RX_DR;
 23f9c64:	f108 0110 	add.w	r1, r8, #16
	GDMA_InitStruct->MuliBlockCunt = 0;
 23f9c68:	2200      	movs	r2, #0
	GDMA_InitStruct->GDMA_DIR = TTFCPeriToMem;
 23f9c6a:	2302      	movs	r3, #2
	GDMA_InitStruct->MaxMuliBlock = 1;
 23f9c6c:	2001      	movs	r0, #1
	GDMA_InitStruct->GDMA_SrcAddr = (u32)&AUDIO_DEV_TABLE[Index].SPORTx->SP_RX_DR;
 23f9c6e:	6221      	str	r1, [r4, #32]
	GDMA_InitStruct->GDMA_Index = 0;
	GDMA_InitStruct->GDMA_ChNum = GdmaChnl;
	GDMA_InitStruct->GDMA_IsrType = (BlockType|TransferType|ErrType);	
 23f9c70:	2113      	movs	r1, #19
	u32 len = ((SPORTx->SP_CTRLR0) & SP_CTRLR0_DATA_LEN_SEL) >> 12;
 23f9c72:	f3c9 3901 	ubfx	r9, r9, #12, #2
	GDMA_InitStruct->GDMA_DstInc = IncType;
	GDMA_InitStruct->GDMA_SrcInc = NoChange;

	/*  Cofigure GDMA transfer */
	if (WordLen == SP_WL_8)  {
 23f9c76:	f1b9 0f03 	cmp.w	r9, #3
	GDMA_InitStruct->GDMA_SrcInc = NoChange;
 23f9c7a:	e9c4 2304 	strd	r2, r3, [r4, #16]
	GDMA_InitStruct->MuliBlockCunt = 0;
 23f9c7e:	64a2      	str	r2, [r4, #72]	; 0x48
	GDMA_InitStruct->GDMA_ReloadSrc = 0;
 23f9c80:	6322      	str	r2, [r4, #48]	; 0x30
	GDMA_InitStruct->MaxMuliBlock = 1;
 23f9c82:	64e0      	str	r0, [r4, #76]	; 0x4c
	GDMA_InitStruct->GDMA_DIR = TTFCPeriToMem;
 23f9c84:	6063      	str	r3, [r4, #4]
	GDMA_InitStruct->GDMA_Index = 0;
 23f9c86:	7022      	strb	r2, [r4, #0]
	GDMA_InitStruct->GDMA_ChNum = GdmaChnl;
 23f9c88:	7067      	strb	r7, [r4, #1]
	GDMA_InitStruct->GDMA_IsrType = (BlockType|TransferType|ErrType);	
 23f9c8a:	62e1      	str	r1, [r4, #44]	; 0x2c
	if (WordLen == SP_WL_8)  {
 23f9c8c:	d144      	bne.n	23f9d18 <AUDIO_SP_RXGDMA_Init+0xfc>
		GDMA_InitStruct->GDMA_SrcDataWidth = TrWidthOneByte;
		GDMA_InitStruct->GDMA_SrcMsize = MsizeFour;
		
		GDMA_InitStruct->GDMA_DstMsize = MsizeOne;
 23f9c8e:	e9c4 2006 	strd	r2, r0, [r4, #24]
		GDMA_InitStruct->GDMA_SrcDataWidth = TrWidthOneByte;
 23f9c92:	60e2      	str	r2, [r4, #12]
		GDMA_InitStruct->GDMA_DstDataWidth = TrWidthFourBytes;
 23f9c94:	60a3      	str	r3, [r4, #8]
		GDMA_InitStruct->GDMA_BlockSize = Length;
 23f9c96:	8526      	strh	r6, [r4, #40]	; 0x28
		GDMA_InitStruct->GDMA_DstDataWidth = TrWidthFourBytes;
		GDMA_InitStruct->GDMA_BlockSize = Length >> 2;
	}
	
	/*check GDMA block size*/
	assert_param(GDMA_InitStruct->GDMA_BlockSize <= 4096);
 23f9c98:	8d23      	ldrh	r3, [r4, #40]	; 0x28
 23f9c9a:	f5b3 5f80 	cmp.w	r3, #4096	; 0x1000
 23f9c9e:	d904      	bls.n	23f9caa <AUDIO_SP_RXGDMA_Init+0x8e>
 23f9ca0:	f240 1177 	movw	r1, #375	; 0x177
 23f9ca4:	482d      	ldr	r0, [pc, #180]	; (23f9d5c <AUDIO_SP_RXGDMA_Init+0x140>)
 23f9ca6:	f002 ff2f 	bl	23fcb08 <__io_assert_failed_veneer>

	/*configure GDMA destination address */
	GDMA_InitStruct->GDMA_DstAddr = (u32)pRxData;
	
	/*  Enable GDMA for RX */
	GDMA_Init(GDMA_InitStruct->GDMA_Index, GDMA_InitStruct->GDMA_ChNum, GDMA_InitStruct);
 23f9caa:	4622      	mov	r2, r4
 23f9cac:	4b2e      	ldr	r3, [pc, #184]	; (23f9d68 <AUDIO_SP_RXGDMA_Init+0x14c>)
 23f9cae:	7861      	ldrb	r1, [r4, #1]
 23f9cb0:	7820      	ldrb	r0, [r4, #0]
	GDMA_InitStruct->GDMA_DstAddr = (u32)pRxData;
 23f9cb2:	6265      	str	r5, [r4, #36]	; 0x24
	GDMA_Init(GDMA_InitStruct->GDMA_Index, GDMA_InitStruct->GDMA_ChNum, GDMA_InitStruct);
 23f9cb4:	4798      	blx	r3
  * @brief  Check DCache Enabled or not.
  */
__STATIC_INLINE
u32 DCache_IsEnabled(void)
{
	return ((SCB->CCR & (u32)SCB_CCR_DC_Msk)?1:0);
 23f9cb6:	4a2d      	ldr	r2, [pc, #180]	; (23f9d6c <AUDIO_SP_RXGDMA_Init+0x150>)
	GDMA_InitStruct->GDMA_DstAddr = (u32)pRxData;
 23f9cb8:	462f      	mov	r7, r5
 23f9cba:	6953      	ldr	r3, [r2, #20]
__STATIC_INLINE
void DCache_CleanInvalidate(u32 Address, u32 Bytes)
{
	u32 addr = Address, len = Bytes;

	if (DCache_IsEnabled() == 0)
 23f9cbc:	03db      	lsls	r3, r3, #15
 23f9cbe:	d522      	bpl.n	23f9d06 <AUDIO_SP_RXGDMA_Init+0xea>
		return;

	if ((Address == 0xFFFFFFFF) && (Bytes == 0xFFFFFFFF)) {
 23f9cc0:	1c68      	adds	r0, r5, #1
 23f9cc2:	d130      	bne.n	23f9d26 <AUDIO_SP_RXGDMA_Init+0x10a>
 23f9cc4:	1c71      	adds	r1, r6, #1
 23f9cc6:	d130      	bne.n	23f9d2a <AUDIO_SP_RXGDMA_Init+0x10e>
  #if defined (__DCACHE_PRESENT) && (__DCACHE_PRESENT == 1U)
    uint32_t ccsidr;
    uint32_t sets;
    uint32_t ways;

    SCB->CSSELR = 0U; /*(0U << 1U) | 0U;*/  /* Level 1 data cache */
 23f9cc8:	2300      	movs	r3, #0
 23f9cca:	f8c2 3084 	str.w	r3, [r2, #132]	; 0x84
  \details Acts as a special kind of Data Memory Barrier.
           It completes when all explicit memory accesses before this instruction complete.
 */
__attribute__((always_inline)) __STATIC_INLINE void __DSB(void)
{
  __ASM volatile ("dsb 0xF":::"memory");
 23f9cce:	f3bf 8f4f 	dsb	sy
                                            /* clean & invalidate D-Cache */
    sets = (uint32_t)(CCSIDR_SETS(ccsidr));
    do {
      ways = (uint32_t)(CCSIDR_WAYS(ccsidr));
      do {
        SCB->DCCISW = (((sets << SCB_DCCISW_SET_Pos) & SCB_DCCISW_SET_Msk) |
 23f9cd2:	f643 75e0 	movw	r5, #16352	; 0x3fe0
    ccsidr = SCB->CCSIDR;
 23f9cd6:	f8d2 3080 	ldr.w	r3, [r2, #128]	; 0x80
      ways = (uint32_t)(CCSIDR_WAYS(ccsidr));
 23f9cda:	f3c3 00c9 	ubfx	r0, r3, #3, #10
    sets = (uint32_t)(CCSIDR_SETS(ccsidr));
 23f9cde:	f3c3 334e 	ubfx	r3, r3, #13, #15
 23f9ce2:	015b      	lsls	r3, r3, #5
      ways = (uint32_t)(CCSIDR_WAYS(ccsidr));
 23f9ce4:	4601      	mov	r1, r0
        SCB->DCCISW = (((sets << SCB_DCCISW_SET_Pos) & SCB_DCCISW_SET_Msk) |
 23f9ce6:	ea03 0705 	and.w	r7, r3, r5
 23f9cea:	ea47 76c1 	orr.w	r6, r7, r1, lsl #31
                       ((ways << SCB_DCCISW_WAY_Pos) & SCB_DCCISW_WAY_Msk)  );
        #if defined ( __CC_ARM )
          __schedule_barrier();
        #endif
      } while (ways-- != 0U);
 23f9cee:	3901      	subs	r1, #1
        SCB->DCCISW = (((sets << SCB_DCCISW_SET_Pos) & SCB_DCCISW_SET_Msk) |
 23f9cf0:	f8c2 6274 	str.w	r6, [r2, #628]	; 0x274
      } while (ways-- != 0U);
 23f9cf4:	d2f9      	bcs.n	23f9cea <AUDIO_SP_RXGDMA_Init+0xce>
    } while(sets-- != 0U);
 23f9cf6:	3b20      	subs	r3, #32
 23f9cf8:	f113 0f20 	cmn.w	r3, #32
 23f9cfc:	d1f2      	bne.n	23f9ce4 <AUDIO_SP_RXGDMA_Init+0xc8>
 23f9cfe:	f3bf 8f4f 	dsb	sy
  __ASM volatile ("isb 0xF":::"memory");
 23f9d02:	f3bf 8f6f 	isb	sy
	DCache_CleanInvalidate((u32)pRxData, Length);
	GDMA_Cmd(GDMA_InitStruct->GDMA_Index, GDMA_InitStruct->GDMA_ChNum, ENABLE);
 23f9d06:	7820      	ldrb	r0, [r4, #0]
 23f9d08:	2201      	movs	r2, #1
 23f9d0a:	7861      	ldrb	r1, [r4, #1]
 23f9d0c:	4b18      	ldr	r3, [pc, #96]	; (23f9d70 <AUDIO_SP_RXGDMA_Init+0x154>)
 23f9d0e:	4798      	blx	r3

	return _TRUE;
 23f9d10:	2001      	movs	r0, #1
}
 23f9d12:	b003      	add	sp, #12
 23f9d14:	e8bd 83f0 	ldmia.w	sp!, {r4, r5, r6, r7, r8, r9, pc}
		GDMA_InitStruct->GDMA_DstMsize = MsizeEight;
 23f9d18:	e9c4 3306 	strd	r3, r3, [r4, #24]
		GDMA_InitStruct->GDMA_SrcDataWidth = TrWidthFourBytes;
 23f9d1c:	60e3      	str	r3, [r4, #12]
		GDMA_InitStruct->GDMA_DstDataWidth = TrWidthFourBytes;
 23f9d1e:	60a3      	str	r3, [r4, #8]
		GDMA_InitStruct->GDMA_BlockSize = Length >> 2;
 23f9d20:	08b3      	lsrs	r3, r6, #2
 23f9d22:	8523      	strh	r3, [r4, #40]	; 0x28
 23f9d24:	e7b8      	b.n	23f9c98 <AUDIO_SP_RXGDMA_Init+0x7c>
		SCB_CleanInvalidateDCache();
	} else {
		if ((addr & 0x1F) != 0) {
 23f9d26:	06eb      	lsls	r3, r5, #27
 23f9d28:	d007      	beq.n	23f9d3a <AUDIO_SP_RXGDMA_Init+0x11e>
			addr = (Address >> 5) << 5;   //32-byte aligned
 23f9d2a:	f025 071f 	bic.w	r7, r5, #31
			len = ((((Address + Bytes -1) >> 5) + 1) << 5) - addr; //next 32-byte aligned
 23f9d2e:	4435      	add	r5, r6
 23f9d30:	3d01      	subs	r5, #1
 23f9d32:	f025 051f 	bic.w	r5, r5, #31
 23f9d36:	3520      	adds	r5, #32
 23f9d38:	1bee      	subs	r6, r5, r7
		}

		SCB_CleanInvalidateDCache_by_Addr((u32*)addr, len);
 23f9d3a:	4635      	mov	r5, r6
  __ASM volatile ("dsb 0xF":::"memory");
 23f9d3c:	f3bf 8f4f 	dsb	sy
     int32_t linesize = 32;                /* in Cortex-M7 size of cache line is fixed to 8 words (32 bytes) */

    __DSB();

    while (op_size > 0) {
      SCB->DCCIMVAC = op_addr;
 23f9d40:	4a0a      	ldr	r2, [pc, #40]	; (23f9d6c <AUDIO_SP_RXGDMA_Init+0x150>)
 23f9d42:	4437      	add	r7, r6
    while (op_size > 0) {
 23f9d44:	2d00      	cmp	r5, #0
 23f9d46:	eba7 0305 	sub.w	r3, r7, r5
 23f9d4a:	ddd8      	ble.n	23f9cfe <AUDIO_SP_RXGDMA_Init+0xe2>
      SCB->DCCIMVAC = op_addr;
 23f9d4c:	f8c2 3270 	str.w	r3, [r2, #624]	; 0x270
      op_addr += (uint32_t)linesize;
      op_size -=           linesize;
 23f9d50:	3d20      	subs	r5, #32
 23f9d52:	e7f7      	b.n	23f9d44 <AUDIO_SP_RXGDMA_Init+0x128>
		return _FALSE;
 23f9d54:	2000      	movs	r0, #0
 23f9d56:	e7dc      	b.n	23f9d12 <AUDIO_SP_RXGDMA_Init+0xf6>
 23f9d58:	023ffd18 	.word	0x023ffd18
 23f9d5c:	023ffd24 	.word	0x023ffd24
 23f9d60:	1010c43d 	.word	0x1010c43d
 23f9d64:	10110ea1 	.word	0x10110ea1
 23f9d68:	1010bff9 	.word	0x1010bff9
 23f9d6c:	e000ed00 	.word	0xe000ed00
 23f9d70:	1010bf91 	.word	0x1010bf91

023f9d74 <_ZnajRKSt9nothrow_t>:
 23f9d74:	f7fc be9b 	b.w	23f6aae <_Znaj>

023f9d78 <_ZSt25__throw_bad_function_callv>:
 23f9d78:	b508      	push	{r3, lr}
 23f9d7a:	f7ff f88f 	bl	23f8e9c <abort>
	...

023f9d80 <ceil>:
 23f9d80:	ec51 0b10 	vmov	r0, r1, d0
 23f9d84:	b5f8      	push	{r3, r4, r5, r6, r7, lr}
 23f9d86:	f3c1 530a 	ubfx	r3, r1, #20, #11
 23f9d8a:	460c      	mov	r4, r1
 23f9d8c:	ee10 6a10 	vmov	r6, s0
 23f9d90:	f2a3 35ff 	subw	r5, r3, #1023	; 0x3ff
 23f9d94:	2d13      	cmp	r5, #19
 23f9d96:	dc32      	bgt.n	23f9dfe <ceil+0x7e>
 23f9d98:	2d00      	cmp	r5, #0
 23f9d9a:	db1e      	blt.n	23f9dda <ceil+0x5a>
 23f9d9c:	4f36      	ldr	r7, [pc, #216]	; (23f9e78 <ceil+0xf8>)
 23f9d9e:	412f      	asrs	r7, r5
 23f9da0:	ea01 0307 	and.w	r3, r1, r7
 23f9da4:	4303      	orrs	r3, r0
 23f9da6:	d02f      	beq.n	23f9e08 <ceil+0x88>
 23f9da8:	a331      	add	r3, pc, #196	; (adr r3, 23f9e70 <ceil+0xf0>)
 23f9daa:	e9d3 2300 	ldrd	r2, r3, [r3]
 23f9dae:	f7fc f979 	bl	23f60a4 <__adddf3>
 23f9db2:	2200      	movs	r2, #0
 23f9db4:	2300      	movs	r3, #0
 23f9db6:	f7fc fdbb 	bl	23f6930 <__aeabi_dcmpgt>
 23f9dba:	b148      	cbz	r0, 23f9dd0 <ceil+0x50>
 23f9dbc:	2c00      	cmp	r4, #0
 23f9dbe:	dd04      	ble.n	23f9dca <ceil+0x4a>
 23f9dc0:	f44f 1380 	mov.w	r3, #1048576	; 0x100000
 23f9dc4:	fa43 f505 	asr.w	r5, r3, r5
 23f9dc8:	442c      	add	r4, r5
 23f9dca:	ea24 0407 	bic.w	r4, r4, r7
 23f9dce:	2600      	movs	r6, #0
 23f9dd0:	4623      	mov	r3, r4
 23f9dd2:	4632      	mov	r2, r6
 23f9dd4:	ec43 2b10 	vmov	d0, r2, r3
 23f9dd8:	bdf8      	pop	{r3, r4, r5, r6, r7, pc}
 23f9dda:	a325      	add	r3, pc, #148	; (adr r3, 23f9e70 <ceil+0xf0>)
 23f9ddc:	e9d3 2300 	ldrd	r2, r3, [r3]
 23f9de0:	f7fc f960 	bl	23f60a4 <__adddf3>
 23f9de4:	2200      	movs	r2, #0
 23f9de6:	2300      	movs	r3, #0
 23f9de8:	f7fc fda2 	bl	23f6930 <__aeabi_dcmpgt>
 23f9dec:	2800      	cmp	r0, #0
 23f9dee:	d0ef      	beq.n	23f9dd0 <ceil+0x50>
 23f9df0:	2c00      	cmp	r4, #0
 23f9df2:	db39      	blt.n	23f9e68 <ceil+0xe8>
 23f9df4:	4326      	orrs	r6, r4
 23f9df6:	d033      	beq.n	23f9e60 <ceil+0xe0>
 23f9df8:	2600      	movs	r6, #0
 23f9dfa:	4c20      	ldr	r4, [pc, #128]	; (23f9e7c <ceil+0xfc>)
 23f9dfc:	e7e8      	b.n	23f9dd0 <ceil+0x50>
 23f9dfe:	2d33      	cmp	r5, #51	; 0x33
 23f9e00:	dd05      	ble.n	23f9e0e <ceil+0x8e>
 23f9e02:	f5b5 6f80 	cmp.w	r5, #1024	; 0x400
 23f9e06:	d023      	beq.n	23f9e50 <ceil+0xd0>
 23f9e08:	ec41 0b10 	vmov	d0, r0, r1
 23f9e0c:	bdf8      	pop	{r3, r4, r5, r6, r7, pc}
 23f9e0e:	f2a3 4313 	subw	r3, r3, #1043	; 0x413
 23f9e12:	f04f 37ff 	mov.w	r7, #4294967295
 23f9e16:	40df      	lsrs	r7, r3
 23f9e18:	4207      	tst	r7, r0
 23f9e1a:	d0f5      	beq.n	23f9e08 <ceil+0x88>
 23f9e1c:	a314      	add	r3, pc, #80	; (adr r3, 23f9e70 <ceil+0xf0>)
 23f9e1e:	e9d3 2300 	ldrd	r2, r3, [r3]
 23f9e22:	f7fc f93f 	bl	23f60a4 <__adddf3>
 23f9e26:	2200      	movs	r2, #0
 23f9e28:	2300      	movs	r3, #0
 23f9e2a:	f7fc fd81 	bl	23f6930 <__aeabi_dcmpgt>
 23f9e2e:	2800      	cmp	r0, #0
 23f9e30:	d0ce      	beq.n	23f9dd0 <ceil+0x50>
 23f9e32:	2c00      	cmp	r4, #0
 23f9e34:	dd09      	ble.n	23f9e4a <ceil+0xca>
 23f9e36:	2d14      	cmp	r5, #20
 23f9e38:	d014      	beq.n	23f9e64 <ceil+0xe4>
 23f9e3a:	2301      	movs	r3, #1
 23f9e3c:	f1c5 0534 	rsb	r5, r5, #52	; 0x34
 23f9e40:	fa03 f505 	lsl.w	r5, r3, r5
 23f9e44:	19ae      	adds	r6, r5, r6
 23f9e46:	bf28      	it	cs
 23f9e48:	18e4      	addcs	r4, r4, r3
 23f9e4a:	ea26 0607 	bic.w	r6, r6, r7
 23f9e4e:	e7bf      	b.n	23f9dd0 <ceil+0x50>
 23f9e50:	ee10 2a10 	vmov	r2, s0
 23f9e54:	460b      	mov	r3, r1
 23f9e56:	f7fc f925 	bl	23f60a4 <__adddf3>
 23f9e5a:	ec41 0b10 	vmov	d0, r0, r1
 23f9e5e:	bdf8      	pop	{r3, r4, r5, r6, r7, pc}
 23f9e60:	4634      	mov	r4, r6
 23f9e62:	e7b5      	b.n	23f9dd0 <ceil+0x50>
 23f9e64:	3401      	adds	r4, #1
 23f9e66:	e7f0      	b.n	23f9e4a <ceil+0xca>
 23f9e68:	2600      	movs	r6, #0
 23f9e6a:	f04f 4400 	mov.w	r4, #2147483648	; 0x80000000
 23f9e6e:	e7af      	b.n	23f9dd0 <ceil+0x50>
 23f9e70:	8800759c 	.word	0x8800759c
 23f9e74:	7e37e43c 	.word	0x7e37e43c
 23f9e78:	000fffff 	.word	0x000fffff
 23f9e7c:	3ff00000 	.word	0x3ff00000

023f9e80 <cos>:
 23f9e80:	ec51 0b10 	vmov	r0, r1, d0
 23f9e84:	4a26      	ldr	r2, [pc, #152]	; (23f9f20 <cos+0xa0>)
 23f9e86:	f021 4300 	bic.w	r3, r1, #2147483648	; 0x80000000
 23f9e8a:	4293      	cmp	r3, r2
 23f9e8c:	dd20      	ble.n	23f9ed0 <cos+0x50>
 23f9e8e:	4a25      	ldr	r2, [pc, #148]	; (23f9f24 <cos+0xa4>)
 23f9e90:	4293      	cmp	r3, r2
 23f9e92:	b500      	push	{lr}
 23f9e94:	b085      	sub	sp, #20
 23f9e96:	dd09      	ble.n	23f9eac <cos+0x2c>
 23f9e98:	ee10 2a10 	vmov	r2, s0
 23f9e9c:	460b      	mov	r3, r1
 23f9e9e:	f7fc f8ff 	bl	23f60a0 <__aeabi_dsub>
 23f9ea2:	ec41 0b10 	vmov	d0, r0, r1
 23f9ea6:	b005      	add	sp, #20
 23f9ea8:	f85d fb04 	ldr.w	pc, [sp], #4
 23f9eac:	4668      	mov	r0, sp
 23f9eae:	f001 faf3 	bl	23fb498 <__ieee754_rem_pio2>
 23f9eb2:	f000 0003 	and.w	r0, r0, #3
 23f9eb6:	2801      	cmp	r0, #1
 23f9eb8:	d00e      	beq.n	23f9ed8 <cos+0x58>
 23f9eba:	2802      	cmp	r0, #2
 23f9ebc:	d022      	beq.n	23f9f04 <cos+0x84>
 23f9ebe:	b1d0      	cbz	r0, 23f9ef6 <cos+0x76>
 23f9ec0:	2001      	movs	r0, #1
 23f9ec2:	ed9d 1b02 	vldr	d1, [sp, #8]
 23f9ec6:	ed9d 0b00 	vldr	d0, [sp]
 23f9eca:	f002 fb31 	bl	23fc530 <__kernel_sin>
 23f9ece:	e7ea      	b.n	23f9ea6 <cos+0x26>
 23f9ed0:	ed9f 1b11 	vldr	d1, [pc, #68]	; 23f9f18 <cos+0x98>
 23f9ed4:	f001 bdc8 	b.w	23fba68 <__kernel_cos>
 23f9ed8:	ed9d 1b02 	vldr	d1, [sp, #8]
 23f9edc:	ed9d 0b00 	vldr	d0, [sp]
 23f9ee0:	f002 fb26 	bl	23fc530 <__kernel_sin>
 23f9ee4:	ec53 2b10 	vmov	r2, r3, d0
 23f9ee8:	f103 4300 	add.w	r3, r3, #2147483648	; 0x80000000
 23f9eec:	ee00 3a90 	vmov	s1, r3
 23f9ef0:	b005      	add	sp, #20
 23f9ef2:	f85d fb04 	ldr.w	pc, [sp], #4
 23f9ef6:	ed9d 1b02 	vldr	d1, [sp, #8]
 23f9efa:	ed9d 0b00 	vldr	d0, [sp]
 23f9efe:	f001 fdb3 	bl	23fba68 <__kernel_cos>
 23f9f02:	e7d0      	b.n	23f9ea6 <cos+0x26>
 23f9f04:	ed9d 1b02 	vldr	d1, [sp, #8]
 23f9f08:	ed9d 0b00 	vldr	d0, [sp]
 23f9f0c:	f001 fdac 	bl	23fba68 <__kernel_cos>
 23f9f10:	e7e8      	b.n	23f9ee4 <cos+0x64>
 23f9f12:	bf00      	nop
 23f9f14:	f3af 8000 	nop.w
	...
 23f9f20:	3fe921fb 	.word	0x3fe921fb
 23f9f24:	7fefffff 	.word	0x7fefffff

023f9f28 <floor>:
 23f9f28:	ec51 0b10 	vmov	r0, r1, d0
 23f9f2c:	b5f8      	push	{r3, r4, r5, r6, r7, lr}
 23f9f2e:	f3c1 530a 	ubfx	r3, r1, #20, #11
 23f9f32:	460c      	mov	r4, r1
 23f9f34:	ee10 6a10 	vmov	r6, s0
 23f9f38:	f2a3 35ff 	subw	r5, r3, #1023	; 0x3ff
 23f9f3c:	2d13      	cmp	r5, #19
 23f9f3e:	dc30      	bgt.n	23f9fa2 <floor+0x7a>
 23f9f40:	2d00      	cmp	r5, #0
 23f9f42:	db1e      	blt.n	23f9f82 <floor+0x5a>
 23f9f44:	4f38      	ldr	r7, [pc, #224]	; (23fa028 <floor+0x100>)
 23f9f46:	412f      	asrs	r7, r5
 23f9f48:	ea01 0307 	and.w	r3, r1, r7
 23f9f4c:	4303      	orrs	r3, r0
 23f9f4e:	d02d      	beq.n	23f9fac <floor+0x84>
 23f9f50:	a333      	add	r3, pc, #204	; (adr r3, 23fa020 <floor+0xf8>)
 23f9f52:	e9d3 2300 	ldrd	r2, r3, [r3]
 23f9f56:	f7fc f8a5 	bl	23f60a4 <__adddf3>
 23f9f5a:	2200      	movs	r2, #0
 23f9f5c:	2300      	movs	r3, #0
 23f9f5e:	f7fc fce7 	bl	23f6930 <__aeabi_dcmpgt>
 23f9f62:	b148      	cbz	r0, 23f9f78 <floor+0x50>
 23f9f64:	2c00      	cmp	r4, #0
 23f9f66:	da04      	bge.n	23f9f72 <floor+0x4a>
 23f9f68:	f44f 1380 	mov.w	r3, #1048576	; 0x100000
 23f9f6c:	fa43 f505 	asr.w	r5, r3, r5
 23f9f70:	442c      	add	r4, r5
 23f9f72:	ea24 0407 	bic.w	r4, r4, r7
 23f9f76:	2600      	movs	r6, #0
 23f9f78:	4623      	mov	r3, r4
 23f9f7a:	4632      	mov	r2, r6
 23f9f7c:	ec43 2b10 	vmov	d0, r2, r3
 23f9f80:	bdf8      	pop	{r3, r4, r5, r6, r7, pc}
 23f9f82:	a327      	add	r3, pc, #156	; (adr r3, 23fa020 <floor+0xf8>)
 23f9f84:	e9d3 2300 	ldrd	r2, r3, [r3]
 23f9f88:	f7fc f88c 	bl	23f60a4 <__adddf3>
 23f9f8c:	2200      	movs	r2, #0
 23f9f8e:	2300      	movs	r3, #0
 23f9f90:	f7fc fcce 	bl	23f6930 <__aeabi_dcmpgt>
 23f9f94:	2800      	cmp	r0, #0
 23f9f96:	d0ef      	beq.n	23f9f78 <floor+0x50>
 23f9f98:	2c00      	cmp	r4, #0
 23f9f9a:	db29      	blt.n	23f9ff0 <floor+0xc8>
 23f9f9c:	2600      	movs	r6, #0
 23f9f9e:	4634      	mov	r4, r6
 23f9fa0:	e7ea      	b.n	23f9f78 <floor+0x50>
 23f9fa2:	2d33      	cmp	r5, #51	; 0x33
 23f9fa4:	dd05      	ble.n	23f9fb2 <floor+0x8a>
 23f9fa6:	f5b5 6f80 	cmp.w	r5, #1024	; 0x400
 23f9faa:	d019      	beq.n	23f9fe0 <floor+0xb8>
 23f9fac:	ec41 0b10 	vmov	d0, r0, r1
 23f9fb0:	bdf8      	pop	{r3, r4, r5, r6, r7, pc}
 23f9fb2:	f2a3 4313 	subw	r3, r3, #1043	; 0x413
 23f9fb6:	f04f 37ff 	mov.w	r7, #4294967295
 23f9fba:	40df      	lsrs	r7, r3
 23f9fbc:	4207      	tst	r7, r0
 23f9fbe:	d0f5      	beq.n	23f9fac <floor+0x84>
 23f9fc0:	a317      	add	r3, pc, #92	; (adr r3, 23fa020 <floor+0xf8>)
 23f9fc2:	e9d3 2300 	ldrd	r2, r3, [r3]
 23f9fc6:	f7fc f86d 	bl	23f60a4 <__adddf3>
 23f9fca:	2200      	movs	r2, #0
 23f9fcc:	2300      	movs	r3, #0
 23f9fce:	f7fc fcaf 	bl	23f6930 <__aeabi_dcmpgt>
 23f9fd2:	2800      	cmp	r0, #0
 23f9fd4:	d0d0      	beq.n	23f9f78 <floor+0x50>
 23f9fd6:	2c00      	cmp	r4, #0
 23f9fd8:	db13      	blt.n	23fa002 <floor+0xda>
 23f9fda:	ea26 0607 	bic.w	r6, r6, r7
 23f9fde:	e7cb      	b.n	23f9f78 <floor+0x50>
 23f9fe0:	ee10 2a10 	vmov	r2, s0
 23f9fe4:	460b      	mov	r3, r1
 23f9fe6:	f7fc f85d 	bl	23f60a4 <__adddf3>
 23f9fea:	ec41 0b10 	vmov	d0, r0, r1
 23f9fee:	bdf8      	pop	{r3, r4, r5, r6, r7, pc}
 23f9ff0:	f024 4300 	bic.w	r3, r4, #2147483648	; 0x80000000
 23f9ff4:	4a0d      	ldr	r2, [pc, #52]	; (23fa02c <floor+0x104>)
 23f9ff6:	4333      	orrs	r3, r6
 23f9ff8:	2600      	movs	r6, #0
 23f9ffa:	42b3      	cmp	r3, r6
 23f9ffc:	bf18      	it	ne
 23f9ffe:	4614      	movne	r4, r2
 23fa000:	e7ba      	b.n	23f9f78 <floor+0x50>
 23fa002:	2d14      	cmp	r5, #20
 23fa004:	d008      	beq.n	23fa018 <floor+0xf0>
 23fa006:	2301      	movs	r3, #1
 23fa008:	f1c5 0534 	rsb	r5, r5, #52	; 0x34
 23fa00c:	fa03 f505 	lsl.w	r5, r3, r5
 23fa010:	19ae      	adds	r6, r5, r6
 23fa012:	bf28      	it	cs
 23fa014:	18e4      	addcs	r4, r4, r3
 23fa016:	e7e0      	b.n	23f9fda <floor+0xb2>
 23fa018:	3401      	adds	r4, #1
 23fa01a:	e7de      	b.n	23f9fda <floor+0xb2>
 23fa01c:	f3af 8000 	nop.w
 23fa020:	8800759c 	.word	0x8800759c
 23fa024:	7e37e43c 	.word	0x7e37e43c
 23fa028:	000fffff 	.word	0x000fffff
 23fa02c:	bff00000 	.word	0xbff00000

023fa030 <sin>:
 23fa030:	ec51 0b10 	vmov	r0, r1, d0
 23fa034:	4a26      	ldr	r2, [pc, #152]	; (23fa0d0 <sin+0xa0>)
 23fa036:	f021 4300 	bic.w	r3, r1, #2147483648	; 0x80000000
 23fa03a:	4293      	cmp	r3, r2
 23fa03c:	dd27      	ble.n	23fa08e <sin+0x5e>
 23fa03e:	4a25      	ldr	r2, [pc, #148]	; (23fa0d4 <sin+0xa4>)
 23fa040:	4293      	cmp	r3, r2
 23fa042:	b500      	push	{lr}
 23fa044:	b085      	sub	sp, #20
 23fa046:	dd09      	ble.n	23fa05c <sin+0x2c>
 23fa048:	ee10 2a10 	vmov	r2, s0
 23fa04c:	460b      	mov	r3, r1
 23fa04e:	f7fc f827 	bl	23f60a0 <__aeabi_dsub>
 23fa052:	ec41 0b10 	vmov	d0, r0, r1
 23fa056:	b005      	add	sp, #20
 23fa058:	f85d fb04 	ldr.w	pc, [sp], #4
 23fa05c:	4668      	mov	r0, sp
 23fa05e:	f001 fa1b 	bl	23fb498 <__ieee754_rem_pio2>
 23fa062:	f000 0003 	and.w	r0, r0, #3
 23fa066:	2801      	cmp	r0, #1
 23fa068:	d016      	beq.n	23fa098 <sin+0x68>
 23fa06a:	2802      	cmp	r0, #2
 23fa06c:	d023      	beq.n	23fa0b6 <sin+0x86>
 23fa06e:	b1d0      	cbz	r0, 23fa0a6 <sin+0x76>
 23fa070:	ed9d 1b02 	vldr	d1, [sp, #8]
 23fa074:	ed9d 0b00 	vldr	d0, [sp]
 23fa078:	f001 fcf6 	bl	23fba68 <__kernel_cos>
 23fa07c:	ec53 2b10 	vmov	r2, r3, d0
 23fa080:	f103 4300 	add.w	r3, r3, #2147483648	; 0x80000000
 23fa084:	ee00 3a90 	vmov	s1, r3
 23fa088:	b005      	add	sp, #20
 23fa08a:	f85d fb04 	ldr.w	pc, [sp], #4
 23fa08e:	ed9f 1b0e 	vldr	d1, [pc, #56]	; 23fa0c8 <sin+0x98>
 23fa092:	2000      	movs	r0, #0
 23fa094:	f002 ba4c 	b.w	23fc530 <__kernel_sin>
 23fa098:	ed9d 1b02 	vldr	d1, [sp, #8]
 23fa09c:	ed9d 0b00 	vldr	d0, [sp]
 23fa0a0:	f001 fce2 	bl	23fba68 <__kernel_cos>
 23fa0a4:	e7d7      	b.n	23fa056 <sin+0x26>
 23fa0a6:	ed9d 1b02 	vldr	d1, [sp, #8]
 23fa0aa:	ed9d 0b00 	vldr	d0, [sp]
 23fa0ae:	2001      	movs	r0, #1
 23fa0b0:	f002 fa3e 	bl	23fc530 <__kernel_sin>
 23fa0b4:	e7cf      	b.n	23fa056 <sin+0x26>
 23fa0b6:	ed9d 1b02 	vldr	d1, [sp, #8]
 23fa0ba:	ed9d 0b00 	vldr	d0, [sp]
 23fa0be:	2001      	movs	r0, #1
 23fa0c0:	f002 fa36 	bl	23fc530 <__kernel_sin>
 23fa0c4:	e7da      	b.n	23fa07c <sin+0x4c>
 23fa0c6:	bf00      	nop
	...
 23fa0d0:	3fe921fb 	.word	0x3fe921fb
 23fa0d4:	7fefffff 	.word	0x7fefffff

023fa0d8 <log>:
 23fa0d8:	b538      	push	{r3, r4, r5, lr}
 23fa0da:	ed2d 8b02 	vpush	{d8}
 23fa0de:	ec55 4b10 	vmov	r4, r5, d0
 23fa0e2:	f000 f995 	bl	23fa410 <__ieee754_log>
 23fa0e6:	4b1e      	ldr	r3, [pc, #120]	; (23fa160 <log+0x88>)
 23fa0e8:	eeb0 8a40 	vmov.f32	s16, s0
 23fa0ec:	eef0 8a60 	vmov.f32	s17, s1
 23fa0f0:	f993 3000 	ldrsb.w	r3, [r3]
 23fa0f4:	3301      	adds	r3, #1
 23fa0f6:	d01a      	beq.n	23fa12e <log+0x56>
 23fa0f8:	4622      	mov	r2, r4
 23fa0fa:	462b      	mov	r3, r5
 23fa0fc:	4620      	mov	r0, r4
 23fa0fe:	4629      	mov	r1, r5
 23fa100:	f7fc fc20 	bl	23f6944 <__aeabi_dcmpun>
 23fa104:	b998      	cbnz	r0, 23fa12e <log+0x56>
 23fa106:	2200      	movs	r2, #0
 23fa108:	2300      	movs	r3, #0
 23fa10a:	4620      	mov	r0, r4
 23fa10c:	4629      	mov	r1, r5
 23fa10e:	f7fc fc0f 	bl	23f6930 <__aeabi_dcmpgt>
 23fa112:	b960      	cbnz	r0, 23fa12e <log+0x56>
 23fa114:	2200      	movs	r2, #0
 23fa116:	2300      	movs	r3, #0
 23fa118:	4620      	mov	r0, r4
 23fa11a:	4629      	mov	r1, r5
 23fa11c:	f7fc fbe0 	bl	23f68e0 <__aeabi_dcmpeq>
 23fa120:	b160      	cbz	r0, 23fa13c <log+0x64>
 23fa122:	f7fe fec9 	bl	23f8eb8 <__errno>
 23fa126:	2322      	movs	r3, #34	; 0x22
 23fa128:	ed9f 8b0b 	vldr	d8, [pc, #44]	; 23fa158 <log+0x80>
 23fa12c:	6003      	str	r3, [r0, #0]
 23fa12e:	eeb0 0a48 	vmov.f32	s0, s16
 23fa132:	eef0 0a68 	vmov.f32	s1, s17
 23fa136:	ecbd 8b02 	vpop	{d8}
 23fa13a:	bd38      	pop	{r3, r4, r5, pc}
 23fa13c:	f7fe febc 	bl	23f8eb8 <__errno>
 23fa140:	2221      	movs	r2, #33	; 0x21
 23fa142:	4603      	mov	r3, r0
 23fa144:	4807      	ldr	r0, [pc, #28]	; (23fa164 <log+0x8c>)
 23fa146:	ecbd 8b02 	vpop	{d8}
 23fa14a:	601a      	str	r2, [r3, #0]
 23fa14c:	e8bd 4038 	ldmia.w	sp!, {r3, r4, r5, lr}
 23fa150:	f002 bace 	b.w	23fc6f0 <nan>
 23fa154:	f3af 8000 	nop.w
 23fa158:	00000000 	.word	0x00000000
 23fa15c:	fff00000 	.word	0xfff00000
 23fa160:	10061988 	.word	0x10061988
 23fa164:	023ffd48 	.word	0x023ffd48

023fa168 <log10>:
 23fa168:	b538      	push	{r3, r4, r5, lr}
 23fa16a:	ed2d 8b02 	vpush	{d8}
 23fa16e:	ec55 4b10 	vmov	r4, r5, d0
 23fa172:	f000 fb65 	bl	23fa840 <__ieee754_log10>
 23fa176:	4b1e      	ldr	r3, [pc, #120]	; (23fa1f0 <log10+0x88>)
 23fa178:	eeb0 8a40 	vmov.f32	s16, s0
 23fa17c:	eef0 8a60 	vmov.f32	s17, s1
 23fa180:	f993 3000 	ldrsb.w	r3, [r3]
 23fa184:	3301      	adds	r3, #1
 23fa186:	d01a      	beq.n	23fa1be <log10+0x56>
 23fa188:	4622      	mov	r2, r4
 23fa18a:	462b      	mov	r3, r5
 23fa18c:	4620      	mov	r0, r4
 23fa18e:	4629      	mov	r1, r5
 23fa190:	f7fc fbd8 	bl	23f6944 <__aeabi_dcmpun>
 23fa194:	b998      	cbnz	r0, 23fa1be <log10+0x56>
 23fa196:	2200      	movs	r2, #0
 23fa198:	2300      	movs	r3, #0
 23fa19a:	4620      	mov	r0, r4
 23fa19c:	4629      	mov	r1, r5
 23fa19e:	f7fc fbb3 	bl	23f6908 <__aeabi_dcmple>
 23fa1a2:	b160      	cbz	r0, 23fa1be <log10+0x56>
 23fa1a4:	2200      	movs	r2, #0
 23fa1a6:	2300      	movs	r3, #0
 23fa1a8:	4620      	mov	r0, r4
 23fa1aa:	4629      	mov	r1, r5
 23fa1ac:	f7fc fb98 	bl	23f68e0 <__aeabi_dcmpeq>
 23fa1b0:	b160      	cbz	r0, 23fa1cc <log10+0x64>
 23fa1b2:	f7fe fe81 	bl	23f8eb8 <__errno>
 23fa1b6:	2322      	movs	r3, #34	; 0x22
 23fa1b8:	ed9f 8b0b 	vldr	d8, [pc, #44]	; 23fa1e8 <log10+0x80>
 23fa1bc:	6003      	str	r3, [r0, #0]
 23fa1be:	eeb0 0a48 	vmov.f32	s0, s16
 23fa1c2:	eef0 0a68 	vmov.f32	s1, s17
 23fa1c6:	ecbd 8b02 	vpop	{d8}
 23fa1ca:	bd38      	pop	{r3, r4, r5, pc}
 23fa1cc:	f7fe fe74 	bl	23f8eb8 <__errno>
 23fa1d0:	2221      	movs	r2, #33	; 0x21
 23fa1d2:	4603      	mov	r3, r0
 23fa1d4:	4807      	ldr	r0, [pc, #28]	; (23fa1f4 <log10+0x8c>)
 23fa1d6:	ecbd 8b02 	vpop	{d8}
 23fa1da:	601a      	str	r2, [r3, #0]
 23fa1dc:	e8bd 4038 	ldmia.w	sp!, {r3, r4, r5, lr}
 23fa1e0:	f002 ba86 	b.w	23fc6f0 <nan>
 23fa1e4:	f3af 8000 	nop.w
 23fa1e8:	00000000 	.word	0x00000000
 23fa1ec:	fff00000 	.word	0xfff00000
 23fa1f0:	10061988 	.word	0x10061988
 23fa1f4:	023ffd48 	.word	0x023ffd48

023fa1f8 <pow>:
 23fa1f8:	b5f8      	push	{r3, r4, r5, r6, r7, lr}
 23fa1fa:	ed2d 8b02 	vpush	{d8}
 23fa1fe:	ec57 6b10 	vmov	r6, r7, d0
 23fa202:	ec55 4b11 	vmov	r4, r5, d1
 23fa206:	f000 fbb3 	bl	23fa970 <__ieee754_pow>
 23fa20a:	4b63      	ldr	r3, [pc, #396]	; (23fa398 <pow+0x1a0>)
 23fa20c:	eeb0 8a40 	vmov.f32	s16, s0
 23fa210:	eef0 8a60 	vmov.f32	s17, s1
 23fa214:	f993 3000 	ldrsb.w	r3, [r3]
 23fa218:	3301      	adds	r3, #1
 23fa21a:	d02a      	beq.n	23fa272 <pow+0x7a>
 23fa21c:	4622      	mov	r2, r4
 23fa21e:	462b      	mov	r3, r5
 23fa220:	4620      	mov	r0, r4
 23fa222:	4629      	mov	r1, r5
 23fa224:	f7fc fb8e 	bl	23f6944 <__aeabi_dcmpun>
 23fa228:	bb18      	cbnz	r0, 23fa272 <pow+0x7a>
 23fa22a:	4632      	mov	r2, r6
 23fa22c:	463b      	mov	r3, r7
 23fa22e:	4630      	mov	r0, r6
 23fa230:	4639      	mov	r1, r7
 23fa232:	f7fc fb87 	bl	23f6944 <__aeabi_dcmpun>
 23fa236:	2800      	cmp	r0, #0
 23fa238:	d144      	bne.n	23fa2c4 <pow+0xcc>
 23fa23a:	2200      	movs	r2, #0
 23fa23c:	2300      	movs	r3, #0
 23fa23e:	4630      	mov	r0, r6
 23fa240:	4639      	mov	r1, r7
 23fa242:	f7fc fb4d 	bl	23f68e0 <__aeabi_dcmpeq>
 23fa246:	b1d8      	cbz	r0, 23fa280 <pow+0x88>
 23fa248:	2200      	movs	r2, #0
 23fa24a:	2300      	movs	r3, #0
 23fa24c:	4620      	mov	r0, r4
 23fa24e:	4629      	mov	r1, r5
 23fa250:	f7fc fb46 	bl	23f68e0 <__aeabi_dcmpeq>
 23fa254:	2800      	cmp	r0, #0
 23fa256:	d13d      	bne.n	23fa2d4 <pow+0xdc>
 23fa258:	ec45 4b10 	vmov	d0, r4, r5
 23fa25c:	f002 fa38 	bl	23fc6d0 <finite>
 23fa260:	b138      	cbz	r0, 23fa272 <pow+0x7a>
 23fa262:	4620      	mov	r0, r4
 23fa264:	4629      	mov	r1, r5
 23fa266:	2200      	movs	r2, #0
 23fa268:	2300      	movs	r3, #0
 23fa26a:	f7fc fb43 	bl	23f68f4 <__aeabi_dcmplt>
 23fa26e:	2800      	cmp	r0, #0
 23fa270:	d15c      	bne.n	23fa32c <pow+0x134>
 23fa272:	eeb0 0a48 	vmov.f32	s0, s16
 23fa276:	eef0 0a68 	vmov.f32	s1, s17
 23fa27a:	ecbd 8b02 	vpop	{d8}
 23fa27e:	bdf8      	pop	{r3, r4, r5, r6, r7, pc}
 23fa280:	eeb0 0a48 	vmov.f32	s0, s16
 23fa284:	eef0 0a68 	vmov.f32	s1, s17
 23fa288:	f002 fa22 	bl	23fc6d0 <finite>
 23fa28c:	b358      	cbz	r0, 23fa2e6 <pow+0xee>
 23fa28e:	2200      	movs	r2, #0
 23fa290:	2300      	movs	r3, #0
 23fa292:	ec51 0b18 	vmov	r0, r1, d8
 23fa296:	f7fc fb23 	bl	23f68e0 <__aeabi_dcmpeq>
 23fa29a:	2800      	cmp	r0, #0
 23fa29c:	d0e9      	beq.n	23fa272 <pow+0x7a>
 23fa29e:	ec47 6b10 	vmov	d0, r6, r7
 23fa2a2:	f002 fa15 	bl	23fc6d0 <finite>
 23fa2a6:	2800      	cmp	r0, #0
 23fa2a8:	d0e3      	beq.n	23fa272 <pow+0x7a>
 23fa2aa:	ec45 4b10 	vmov	d0, r4, r5
 23fa2ae:	f002 fa0f 	bl	23fc6d0 <finite>
 23fa2b2:	2800      	cmp	r0, #0
 23fa2b4:	d0dd      	beq.n	23fa272 <pow+0x7a>
 23fa2b6:	f7fe fdff 	bl	23f8eb8 <__errno>
 23fa2ba:	2322      	movs	r3, #34	; 0x22
 23fa2bc:	ed9f 8b2e 	vldr	d8, [pc, #184]	; 23fa378 <pow+0x180>
 23fa2c0:	6003      	str	r3, [r0, #0]
 23fa2c2:	e7d6      	b.n	23fa272 <pow+0x7a>
 23fa2c4:	4620      	mov	r0, r4
 23fa2c6:	4629      	mov	r1, r5
 23fa2c8:	2200      	movs	r2, #0
 23fa2ca:	2300      	movs	r3, #0
 23fa2cc:	f7fc fb08 	bl	23f68e0 <__aeabi_dcmpeq>
 23fa2d0:	2800      	cmp	r0, #0
 23fa2d2:	d0ce      	beq.n	23fa272 <pow+0x7a>
 23fa2d4:	ed9f 8b2a 	vldr	d8, [pc, #168]	; 23fa380 <pow+0x188>
 23fa2d8:	eeb0 0a48 	vmov.f32	s0, s16
 23fa2dc:	eef0 0a68 	vmov.f32	s1, s17
 23fa2e0:	ecbd 8b02 	vpop	{d8}
 23fa2e4:	bdf8      	pop	{r3, r4, r5, r6, r7, pc}
 23fa2e6:	ec47 6b10 	vmov	d0, r6, r7
 23fa2ea:	f002 f9f1 	bl	23fc6d0 <finite>
 23fa2ee:	2800      	cmp	r0, #0
 23fa2f0:	d0cd      	beq.n	23fa28e <pow+0x96>
 23fa2f2:	ec45 4b10 	vmov	d0, r4, r5
 23fa2f6:	f002 f9eb 	bl	23fc6d0 <finite>
 23fa2fa:	2800      	cmp	r0, #0
 23fa2fc:	d0c7      	beq.n	23fa28e <pow+0x96>
 23fa2fe:	ee18 0a10 	vmov	r0, s16
 23fa302:	ec53 2b18 	vmov	r2, r3, d8
 23fa306:	4619      	mov	r1, r3
 23fa308:	f7fc fb1c 	bl	23f6944 <__aeabi_dcmpun>
 23fa30c:	bb20      	cbnz	r0, 23fa358 <pow+0x160>
 23fa30e:	f7fe fdd3 	bl	23f8eb8 <__errno>
 23fa312:	2222      	movs	r2, #34	; 0x22
 23fa314:	4603      	mov	r3, r0
 23fa316:	4639      	mov	r1, r7
 23fa318:	4630      	mov	r0, r6
 23fa31a:	601a      	str	r2, [r3, #0]
 23fa31c:	2200      	movs	r2, #0
 23fa31e:	2300      	movs	r3, #0
 23fa320:	f7fc fae8 	bl	23f68f4 <__aeabi_dcmplt>
 23fa324:	b948      	cbnz	r0, 23fa33a <pow+0x142>
 23fa326:	ed9f 8b18 	vldr	d8, [pc, #96]	; 23fa388 <pow+0x190>
 23fa32a:	e7a2      	b.n	23fa272 <pow+0x7a>
 23fa32c:	f7fe fdc4 	bl	23f8eb8 <__errno>
 23fa330:	2321      	movs	r3, #33	; 0x21
 23fa332:	ed9f 8b17 	vldr	d8, [pc, #92]	; 23fa390 <pow+0x198>
 23fa336:	6003      	str	r3, [r0, #0]
 23fa338:	e79b      	b.n	23fa272 <pow+0x7a>
 23fa33a:	ec45 4b10 	vmov	d0, r4, r5
 23fa33e:	f002 f9df 	bl	23fc700 <rint>
 23fa342:	4622      	mov	r2, r4
 23fa344:	462b      	mov	r3, r5
 23fa346:	ec51 0b10 	vmov	r0, r1, d0
 23fa34a:	f7fc fac9 	bl	23f68e0 <__aeabi_dcmpeq>
 23fa34e:	2800      	cmp	r0, #0
 23fa350:	d1e9      	bne.n	23fa326 <pow+0x12e>
 23fa352:	ed9f 8b0f 	vldr	d8, [pc, #60]	; 23fa390 <pow+0x198>
 23fa356:	e78c      	b.n	23fa272 <pow+0x7a>
 23fa358:	f7fe fdae 	bl	23f8eb8 <__errno>
 23fa35c:	2200      	movs	r2, #0
 23fa35e:	2300      	movs	r3, #0
 23fa360:	2121      	movs	r1, #33	; 0x21
 23fa362:	6001      	str	r1, [r0, #0]
 23fa364:	4610      	mov	r0, r2
 23fa366:	4619      	mov	r1, r3
 23fa368:	f7fc f97c 	bl	23f6664 <__aeabi_ddiv>
 23fa36c:	ec41 0b18 	vmov	d8, r0, r1
 23fa370:	e77f      	b.n	23fa272 <pow+0x7a>
 23fa372:	bf00      	nop
 23fa374:	f3af 8000 	nop.w
	...
 23fa384:	3ff00000 	.word	0x3ff00000
 23fa388:	00000000 	.word	0x00000000
 23fa38c:	7ff00000 	.word	0x7ff00000
 23fa390:	00000000 	.word	0x00000000
 23fa394:	fff00000 	.word	0xfff00000
 23fa398:	10061988 	.word	0x10061988

023fa39c <sqrt>:
 23fa39c:	b538      	push	{r3, r4, r5, lr}
 23fa39e:	ed2d 8b02 	vpush	{d8}
 23fa3a2:	ec55 4b10 	vmov	r4, r5, d0
 23fa3a6:	f001 fa9d 	bl	23fb8e4 <__ieee754_sqrt>
 23fa3aa:	4b18      	ldr	r3, [pc, #96]	; (23fa40c <sqrt+0x70>)
 23fa3ac:	eeb0 8a40 	vmov.f32	s16, s0
 23fa3b0:	eef0 8a60 	vmov.f32	s17, s1
 23fa3b4:	f993 3000 	ldrsb.w	r3, [r3]
 23fa3b8:	3301      	adds	r3, #1
 23fa3ba:	d00d      	beq.n	23fa3d8 <sqrt+0x3c>
 23fa3bc:	4622      	mov	r2, r4
 23fa3be:	462b      	mov	r3, r5
 23fa3c0:	4620      	mov	r0, r4
 23fa3c2:	4629      	mov	r1, r5
 23fa3c4:	f7fc fabe 	bl	23f6944 <__aeabi_dcmpun>
 23fa3c8:	b930      	cbnz	r0, 23fa3d8 <sqrt+0x3c>
 23fa3ca:	2200      	movs	r2, #0
 23fa3cc:	2300      	movs	r3, #0
 23fa3ce:	4620      	mov	r0, r4
 23fa3d0:	4629      	mov	r1, r5
 23fa3d2:	f7fc fa8f 	bl	23f68f4 <__aeabi_dcmplt>
 23fa3d6:	b930      	cbnz	r0, 23fa3e6 <sqrt+0x4a>
 23fa3d8:	eeb0 0a48 	vmov.f32	s0, s16
 23fa3dc:	eef0 0a68 	vmov.f32	s1, s17
 23fa3e0:	ecbd 8b02 	vpop	{d8}
 23fa3e4:	bd38      	pop	{r3, r4, r5, pc}
 23fa3e6:	f7fe fd67 	bl	23f8eb8 <__errno>
 23fa3ea:	2200      	movs	r2, #0
 23fa3ec:	2300      	movs	r3, #0
 23fa3ee:	2121      	movs	r1, #33	; 0x21
 23fa3f0:	6001      	str	r1, [r0, #0]
 23fa3f2:	4610      	mov	r0, r2
 23fa3f4:	4619      	mov	r1, r3
 23fa3f6:	f7fc f935 	bl	23f6664 <__aeabi_ddiv>
 23fa3fa:	ec41 0b18 	vmov	d8, r0, r1
 23fa3fe:	eeb0 0a48 	vmov.f32	s0, s16
 23fa402:	eef0 0a68 	vmov.f32	s1, s17
 23fa406:	ecbd 8b02 	vpop	{d8}
 23fa40a:	bd38      	pop	{r3, r4, r5, pc}
 23fa40c:	10061988 	.word	0x10061988

023fa410 <__ieee754_log>:
 23fa410:	ec51 0b10 	vmov	r0, r1, d0
 23fa414:	f5b1 1f80 	cmp.w	r1, #1048576	; 0x100000
 23fa418:	e92d 4ff0 	stmdb	sp!, {r4, r5, r6, r7, r8, r9, sl, fp, lr}
 23fa41c:	460f      	mov	r7, r1
 23fa41e:	ed2d 8b02 	vpush	{d8}
 23fa422:	b085      	sub	sp, #20
 23fa424:	da54      	bge.n	23fa4d0 <__ieee754_log+0xc0>
 23fa426:	f021 4300 	bic.w	r3, r1, #2147483648	; 0x80000000
 23fa42a:	ee10 2a10 	vmov	r2, s0
 23fa42e:	4303      	orrs	r3, r0
 23fa430:	f000 80f4 	beq.w	23fa61c <__ieee754_log+0x20c>
 23fa434:	2900      	cmp	r1, #0
 23fa436:	f2c0 8134 	blt.w	23fa6a2 <__ieee754_log+0x292>
 23fa43a:	2200      	movs	r2, #0
 23fa43c:	4bdc      	ldr	r3, [pc, #880]	; (23fa7b0 <__ieee754_log+0x3a0>)
 23fa43e:	f7fb ffe7 	bl	23f6410 <__aeabi_dmul>
 23fa442:	4adc      	ldr	r2, [pc, #880]	; (23fa7b4 <__ieee754_log+0x3a4>)
 23fa444:	460f      	mov	r7, r1
 23fa446:	f06f 0435 	mvn.w	r4, #53	; 0x35
 23fa44a:	4297      	cmp	r7, r2
 23fa44c:	dc44      	bgt.n	23fa4d8 <__ieee754_log+0xc8>
 23fa44e:	153b      	asrs	r3, r7, #20
 23fa450:	f3c7 0713 	ubfx	r7, r7, #0, #20
 23fa454:	4ad8      	ldr	r2, [pc, #864]	; (23fa7b8 <__ieee754_log+0x3a8>)
 23fa456:	f2a3 36ff 	subw	r6, r3, #1023	; 0x3ff
 23fa45a:	4bd8      	ldr	r3, [pc, #864]	; (23fa7bc <__ieee754_log+0x3ac>)
 23fa45c:	443b      	add	r3, r7
 23fa45e:	4426      	add	r6, r4
 23fa460:	f403 1380 	and.w	r3, r3, #1048576	; 0x100000
 23fa464:	405a      	eors	r2, r3
 23fa466:	eb06 5613 	add.w	r6, r6, r3, lsr #20
 23fa46a:	4bd3      	ldr	r3, [pc, #844]	; (23fa7b8 <__ieee754_log+0x3a8>)
 23fa46c:	ea42 0107 	orr.w	r1, r2, r7
 23fa470:	2200      	movs	r2, #0
 23fa472:	f7fb fe15 	bl	23f60a0 <__aeabi_dsub>
 23fa476:	1cbb      	adds	r3, r7, #2
 23fa478:	4682      	mov	sl, r0
 23fa47a:	468b      	mov	fp, r1
 23fa47c:	f3c3 0313 	ubfx	r3, r3, #0, #20
 23fa480:	2b02      	cmp	r3, #2
 23fa482:	dc34      	bgt.n	23fa4ee <__ieee754_log+0xde>
 23fa484:	2200      	movs	r2, #0
 23fa486:	2300      	movs	r3, #0
 23fa488:	f7fc fa2a 	bl	23f68e0 <__aeabi_dcmpeq>
 23fa48c:	2800      	cmp	r0, #0
 23fa48e:	f000 80d2 	beq.w	23fa636 <__ieee754_log+0x226>
 23fa492:	2e00      	cmp	r6, #0
 23fa494:	f000 815c 	beq.w	23fa750 <__ieee754_log+0x340>
 23fa498:	4630      	mov	r0, r6
 23fa49a:	f7fb ff4f 	bl	23f633c <__aeabi_i2d>
 23fa49e:	4606      	mov	r6, r0
 23fa4a0:	460f      	mov	r7, r1
 23fa4a2:	a3ad      	add	r3, pc, #692	; (adr r3, 23fa758 <__ieee754_log+0x348>)
 23fa4a4:	e9d3 2300 	ldrd	r2, r3, [r3]
 23fa4a8:	f7fb ffb2 	bl	23f6410 <__aeabi_dmul>
 23fa4ac:	4604      	mov	r4, r0
 23fa4ae:	460d      	mov	r5, r1
 23fa4b0:	4630      	mov	r0, r6
 23fa4b2:	4639      	mov	r1, r7
 23fa4b4:	a3aa      	add	r3, pc, #680	; (adr r3, 23fa760 <__ieee754_log+0x350>)
 23fa4b6:	e9d3 2300 	ldrd	r2, r3, [r3]
 23fa4ba:	f7fb ffa9 	bl	23f6410 <__aeabi_dmul>
 23fa4be:	4602      	mov	r2, r0
 23fa4c0:	460b      	mov	r3, r1
 23fa4c2:	4620      	mov	r0, r4
 23fa4c4:	4629      	mov	r1, r5
 23fa4c6:	f7fb fded 	bl	23f60a4 <__adddf3>
 23fa4ca:	ec41 0b10 	vmov	d0, r0, r1
 23fa4ce:	e009      	b.n	23fa4e4 <__ieee754_log+0xd4>
 23fa4d0:	4ab8      	ldr	r2, [pc, #736]	; (23fa7b4 <__ieee754_log+0x3a4>)
 23fa4d2:	2400      	movs	r4, #0
 23fa4d4:	4297      	cmp	r7, r2
 23fa4d6:	ddba      	ble.n	23fa44e <__ieee754_log+0x3e>
 23fa4d8:	4602      	mov	r2, r0
 23fa4da:	460b      	mov	r3, r1
 23fa4dc:	f7fb fde2 	bl	23f60a4 <__adddf3>
 23fa4e0:	ec41 0b10 	vmov	d0, r0, r1
 23fa4e4:	b005      	add	sp, #20
 23fa4e6:	ecbd 8b02 	vpop	{d8}
 23fa4ea:	e8bd 8ff0 	ldmia.w	sp!, {r4, r5, r6, r7, r8, r9, sl, fp, pc}
 23fa4ee:	4bb4      	ldr	r3, [pc, #720]	; (23fa7c0 <__ieee754_log+0x3b0>)
 23fa4f0:	2200      	movs	r2, #0
 23fa4f2:	18fb      	adds	r3, r7, r3
 23fa4f4:	9301      	str	r3, [sp, #4]
 23fa4f6:	f04f 4380 	mov.w	r3, #1073741824	; 0x40000000
 23fa4fa:	f7fb fdd3 	bl	23f60a4 <__adddf3>
 23fa4fe:	4602      	mov	r2, r0
 23fa500:	460b      	mov	r3, r1
 23fa502:	4650      	mov	r0, sl
 23fa504:	4659      	mov	r1, fp
 23fa506:	f7fc f8ad 	bl	23f6664 <__aeabi_ddiv>
 23fa50a:	ec41 0b18 	vmov	d8, r0, r1
 23fa50e:	4630      	mov	r0, r6
 23fa510:	f7fb ff14 	bl	23f633c <__aeabi_i2d>
 23fa514:	ec53 2b18 	vmov	r2, r3, d8
 23fa518:	e9cd 0102 	strd	r0, r1, [sp, #8]
 23fa51c:	ec51 0b18 	vmov	r0, r1, d8
 23fa520:	f7fb ff76 	bl	23f6410 <__aeabi_dmul>
 23fa524:	4602      	mov	r2, r0
 23fa526:	460b      	mov	r3, r1
 23fa528:	4680      	mov	r8, r0
 23fa52a:	4689      	mov	r9, r1
 23fa52c:	f7fb ff70 	bl	23f6410 <__aeabi_dmul>
 23fa530:	4604      	mov	r4, r0
 23fa532:	460d      	mov	r5, r1
 23fa534:	a38c      	add	r3, pc, #560	; (adr r3, 23fa768 <__ieee754_log+0x358>)
 23fa536:	e9d3 2300 	ldrd	r2, r3, [r3]
 23fa53a:	f7fb ff69 	bl	23f6410 <__aeabi_dmul>
 23fa53e:	a38c      	add	r3, pc, #560	; (adr r3, 23fa770 <__ieee754_log+0x360>)
 23fa540:	e9d3 2300 	ldrd	r2, r3, [r3]
 23fa544:	f7fb fdae 	bl	23f60a4 <__adddf3>
 23fa548:	4622      	mov	r2, r4
 23fa54a:	462b      	mov	r3, r5
 23fa54c:	f7fb ff60 	bl	23f6410 <__aeabi_dmul>
 23fa550:	a389      	add	r3, pc, #548	; (adr r3, 23fa778 <__ieee754_log+0x368>)
 23fa552:	e9d3 2300 	ldrd	r2, r3, [r3]
 23fa556:	f7fb fda5 	bl	23f60a4 <__adddf3>
 23fa55a:	4622      	mov	r2, r4
 23fa55c:	462b      	mov	r3, r5
 23fa55e:	f7fb ff57 	bl	23f6410 <__aeabi_dmul>
 23fa562:	a387      	add	r3, pc, #540	; (adr r3, 23fa780 <__ieee754_log+0x370>)
 23fa564:	e9d3 2300 	ldrd	r2, r3, [r3]
 23fa568:	f7fb fd9c 	bl	23f60a4 <__adddf3>
 23fa56c:	4642      	mov	r2, r8
 23fa56e:	464b      	mov	r3, r9
 23fa570:	f7fb ff4e 	bl	23f6410 <__aeabi_dmul>
 23fa574:	4680      	mov	r8, r0
 23fa576:	4689      	mov	r9, r1
 23fa578:	4620      	mov	r0, r4
 23fa57a:	4629      	mov	r1, r5
 23fa57c:	a382      	add	r3, pc, #520	; (adr r3, 23fa788 <__ieee754_log+0x378>)
 23fa57e:	e9d3 2300 	ldrd	r2, r3, [r3]
 23fa582:	f7fb ff45 	bl	23f6410 <__aeabi_dmul>
 23fa586:	a382      	add	r3, pc, #520	; (adr r3, 23fa790 <__ieee754_log+0x380>)
 23fa588:	e9d3 2300 	ldrd	r2, r3, [r3]
 23fa58c:	f7fb fd8a 	bl	23f60a4 <__adddf3>
 23fa590:	4622      	mov	r2, r4
 23fa592:	462b      	mov	r3, r5
 23fa594:	f7fb ff3c 	bl	23f6410 <__aeabi_dmul>
 23fa598:	a37f      	add	r3, pc, #508	; (adr r3, 23fa798 <__ieee754_log+0x388>)
 23fa59a:	e9d3 2300 	ldrd	r2, r3, [r3]
 23fa59e:	f7fb fd81 	bl	23f60a4 <__adddf3>
 23fa5a2:	4622      	mov	r2, r4
 23fa5a4:	462b      	mov	r3, r5
 23fa5a6:	f7fb ff33 	bl	23f6410 <__aeabi_dmul>
 23fa5aa:	460b      	mov	r3, r1
 23fa5ac:	4602      	mov	r2, r0
 23fa5ae:	4649      	mov	r1, r9
 23fa5b0:	4640      	mov	r0, r8
 23fa5b2:	f7fb fd77 	bl	23f60a4 <__adddf3>
 23fa5b6:	4b83      	ldr	r3, [pc, #524]	; (23fa7c4 <__ieee754_log+0x3b4>)
 23fa5b8:	4689      	mov	r9, r1
 23fa5ba:	9901      	ldr	r1, [sp, #4]
 23fa5bc:	1bdb      	subs	r3, r3, r7
 23fa5be:	4680      	mov	r8, r0
 23fa5c0:	430b      	orrs	r3, r1
 23fa5c2:	2b00      	cmp	r3, #0
 23fa5c4:	dd5f      	ble.n	23fa686 <__ieee754_log+0x276>
 23fa5c6:	2200      	movs	r2, #0
 23fa5c8:	4b7f      	ldr	r3, [pc, #508]	; (23fa7c8 <__ieee754_log+0x3b8>)
 23fa5ca:	4650      	mov	r0, sl
 23fa5cc:	4659      	mov	r1, fp
 23fa5ce:	f7fb ff1f 	bl	23f6410 <__aeabi_dmul>
 23fa5d2:	4652      	mov	r2, sl
 23fa5d4:	465b      	mov	r3, fp
 23fa5d6:	f7fb ff1b 	bl	23f6410 <__aeabi_dmul>
 23fa5da:	4604      	mov	r4, r0
 23fa5dc:	460d      	mov	r5, r1
 23fa5de:	2e00      	cmp	r6, #0
 23fa5e0:	d169      	bne.n	23fa6b6 <__ieee754_log+0x2a6>
 23fa5e2:	4622      	mov	r2, r4
 23fa5e4:	462b      	mov	r3, r5
 23fa5e6:	4640      	mov	r0, r8
 23fa5e8:	4649      	mov	r1, r9
 23fa5ea:	f7fb fd5b 	bl	23f60a4 <__adddf3>
 23fa5ee:	ec53 2b18 	vmov	r2, r3, d8
 23fa5f2:	f7fb ff0d 	bl	23f6410 <__aeabi_dmul>
 23fa5f6:	4602      	mov	r2, r0
 23fa5f8:	460b      	mov	r3, r1
 23fa5fa:	4620      	mov	r0, r4
 23fa5fc:	4629      	mov	r1, r5
 23fa5fe:	f7fb fd4f 	bl	23f60a0 <__aeabi_dsub>
 23fa602:	4602      	mov	r2, r0
 23fa604:	460b      	mov	r3, r1
 23fa606:	4650      	mov	r0, sl
 23fa608:	4659      	mov	r1, fp
 23fa60a:	f7fb fd49 	bl	23f60a0 <__aeabi_dsub>
 23fa60e:	ec41 0b10 	vmov	d0, r0, r1
 23fa612:	b005      	add	sp, #20
 23fa614:	ecbd 8b02 	vpop	{d8}
 23fa618:	e8bd 8ff0 	ldmia.w	sp!, {r4, r5, r6, r7, r8, r9, sl, fp, pc}
 23fa61c:	2200      	movs	r2, #0
 23fa61e:	2300      	movs	r3, #0
 23fa620:	2000      	movs	r0, #0
 23fa622:	496a      	ldr	r1, [pc, #424]	; (23fa7cc <__ieee754_log+0x3bc>)
 23fa624:	f7fc f81e 	bl	23f6664 <__aeabi_ddiv>
 23fa628:	ec41 0b10 	vmov	d0, r0, r1
 23fa62c:	b005      	add	sp, #20
 23fa62e:	ecbd 8b02 	vpop	{d8}
 23fa632:	e8bd 8ff0 	ldmia.w	sp!, {r4, r5, r6, r7, r8, r9, sl, fp, pc}
 23fa636:	a35a      	add	r3, pc, #360	; (adr r3, 23fa7a0 <__ieee754_log+0x390>)
 23fa638:	e9d3 2300 	ldrd	r2, r3, [r3]
 23fa63c:	4650      	mov	r0, sl
 23fa63e:	4659      	mov	r1, fp
 23fa640:	f7fb fee6 	bl	23f6410 <__aeabi_dmul>
 23fa644:	4602      	mov	r2, r0
 23fa646:	460b      	mov	r3, r1
 23fa648:	2000      	movs	r0, #0
 23fa64a:	495f      	ldr	r1, [pc, #380]	; (23fa7c8 <__ieee754_log+0x3b8>)
 23fa64c:	f7fb fd28 	bl	23f60a0 <__aeabi_dsub>
 23fa650:	4604      	mov	r4, r0
 23fa652:	460d      	mov	r5, r1
 23fa654:	4652      	mov	r2, sl
 23fa656:	465b      	mov	r3, fp
 23fa658:	4650      	mov	r0, sl
 23fa65a:	4659      	mov	r1, fp
 23fa65c:	f7fb fed8 	bl	23f6410 <__aeabi_dmul>
 23fa660:	4602      	mov	r2, r0
 23fa662:	460b      	mov	r3, r1
 23fa664:	4620      	mov	r0, r4
 23fa666:	4629      	mov	r1, r5
 23fa668:	f7fb fed2 	bl	23f6410 <__aeabi_dmul>
 23fa66c:	4604      	mov	r4, r0
 23fa66e:	460d      	mov	r5, r1
 23fa670:	2e00      	cmp	r6, #0
 23fa672:	d159      	bne.n	23fa728 <__ieee754_log+0x318>
 23fa674:	4602      	mov	r2, r0
 23fa676:	460b      	mov	r3, r1
 23fa678:	4650      	mov	r0, sl
 23fa67a:	4659      	mov	r1, fp
 23fa67c:	f7fb fd10 	bl	23f60a0 <__aeabi_dsub>
 23fa680:	ec41 0b10 	vmov	d0, r0, r1
 23fa684:	e72e      	b.n	23fa4e4 <__ieee754_log+0xd4>
 23fa686:	2e00      	cmp	r6, #0
 23fa688:	f040 80a2 	bne.w	23fa7d0 <__ieee754_log+0x3c0>
 23fa68c:	4642      	mov	r2, r8
 23fa68e:	464b      	mov	r3, r9
 23fa690:	4650      	mov	r0, sl
 23fa692:	4659      	mov	r1, fp
 23fa694:	f7fb fd04 	bl	23f60a0 <__aeabi_dsub>
 23fa698:	ec53 2b18 	vmov	r2, r3, d8
 23fa69c:	f7fb feb8 	bl	23f6410 <__aeabi_dmul>
 23fa6a0:	e7af      	b.n	23fa602 <__ieee754_log+0x1f2>
 23fa6a2:	460b      	mov	r3, r1
 23fa6a4:	f7fb fcfc 	bl	23f60a0 <__aeabi_dsub>
 23fa6a8:	2200      	movs	r2, #0
 23fa6aa:	2300      	movs	r3, #0
 23fa6ac:	f7fb ffda 	bl	23f6664 <__aeabi_ddiv>
 23fa6b0:	ec41 0b10 	vmov	d0, r0, r1
 23fa6b4:	e716      	b.n	23fa4e4 <__ieee754_log+0xd4>
 23fa6b6:	a328      	add	r3, pc, #160	; (adr r3, 23fa758 <__ieee754_log+0x348>)
 23fa6b8:	e9d3 2300 	ldrd	r2, r3, [r3]
 23fa6bc:	e9dd 0102 	ldrd	r0, r1, [sp, #8]
 23fa6c0:	f7fb fea6 	bl	23f6410 <__aeabi_dmul>
 23fa6c4:	4622      	mov	r2, r4
 23fa6c6:	462b      	mov	r3, r5
 23fa6c8:	4606      	mov	r6, r0
 23fa6ca:	460f      	mov	r7, r1
 23fa6cc:	4640      	mov	r0, r8
 23fa6ce:	4649      	mov	r1, r9
 23fa6d0:	f7fb fce8 	bl	23f60a4 <__adddf3>
 23fa6d4:	ec53 2b18 	vmov	r2, r3, d8
 23fa6d8:	f7fb fe9a 	bl	23f6410 <__aeabi_dmul>
 23fa6dc:	4680      	mov	r8, r0
 23fa6de:	4689      	mov	r9, r1
 23fa6e0:	a31f      	add	r3, pc, #124	; (adr r3, 23fa760 <__ieee754_log+0x350>)
 23fa6e2:	e9d3 2300 	ldrd	r2, r3, [r3]
 23fa6e6:	e9dd 0102 	ldrd	r0, r1, [sp, #8]
 23fa6ea:	f7fb fe91 	bl	23f6410 <__aeabi_dmul>
 23fa6ee:	4602      	mov	r2, r0
 23fa6f0:	460b      	mov	r3, r1
 23fa6f2:	4640      	mov	r0, r8
 23fa6f4:	4649      	mov	r1, r9
 23fa6f6:	f7fb fcd5 	bl	23f60a4 <__adddf3>
 23fa6fa:	4602      	mov	r2, r0
 23fa6fc:	460b      	mov	r3, r1
 23fa6fe:	4620      	mov	r0, r4
 23fa700:	4629      	mov	r1, r5
 23fa702:	f7fb fccd 	bl	23f60a0 <__aeabi_dsub>
 23fa706:	4652      	mov	r2, sl
 23fa708:	465b      	mov	r3, fp
 23fa70a:	f7fb fcc9 	bl	23f60a0 <__aeabi_dsub>
 23fa70e:	4602      	mov	r2, r0
 23fa710:	460b      	mov	r3, r1
 23fa712:	4630      	mov	r0, r6
 23fa714:	4639      	mov	r1, r7
 23fa716:	f7fb fcc3 	bl	23f60a0 <__aeabi_dsub>
 23fa71a:	ec41 0b10 	vmov	d0, r0, r1
 23fa71e:	b005      	add	sp, #20
 23fa720:	ecbd 8b02 	vpop	{d8}
 23fa724:	e8bd 8ff0 	ldmia.w	sp!, {r4, r5, r6, r7, r8, r9, sl, fp, pc}
 23fa728:	4630      	mov	r0, r6
 23fa72a:	f7fb fe07 	bl	23f633c <__aeabi_i2d>
 23fa72e:	4680      	mov	r8, r0
 23fa730:	4689      	mov	r9, r1
 23fa732:	a309      	add	r3, pc, #36	; (adr r3, 23fa758 <__ieee754_log+0x348>)
 23fa734:	e9d3 2300 	ldrd	r2, r3, [r3]
 23fa738:	f7fb fe6a 	bl	23f6410 <__aeabi_dmul>
 23fa73c:	4606      	mov	r6, r0
 23fa73e:	460f      	mov	r7, r1
 23fa740:	4640      	mov	r0, r8
 23fa742:	4649      	mov	r1, r9
 23fa744:	a306      	add	r3, pc, #24	; (adr r3, 23fa760 <__ieee754_log+0x350>)
 23fa746:	e9d3 2300 	ldrd	r2, r3, [r3]
 23fa74a:	f7fb fe61 	bl	23f6410 <__aeabi_dmul>
 23fa74e:	e7d4      	b.n	23fa6fa <__ieee754_log+0x2ea>
 23fa750:	ed9f 0b15 	vldr	d0, [pc, #84]	; 23fa7a8 <__ieee754_log+0x398>
 23fa754:	e6c6      	b.n	23fa4e4 <__ieee754_log+0xd4>
 23fa756:	bf00      	nop
 23fa758:	fee00000 	.word	0xfee00000
 23fa75c:	3fe62e42 	.word	0x3fe62e42
 23fa760:	35793c76 	.word	0x35793c76
 23fa764:	3dea39ef 	.word	0x3dea39ef
 23fa768:	df3e5244 	.word	0xdf3e5244
 23fa76c:	3fc2f112 	.word	0x3fc2f112
 23fa770:	96cb03de 	.word	0x96cb03de
 23fa774:	3fc74664 	.word	0x3fc74664
 23fa778:	94229359 	.word	0x94229359
 23fa77c:	3fd24924 	.word	0x3fd24924
 23fa780:	55555593 	.word	0x55555593
 23fa784:	3fe55555 	.word	0x3fe55555
 23fa788:	d078c69f 	.word	0xd078c69f
 23fa78c:	3fc39a09 	.word	0x3fc39a09
 23fa790:	1d8e78af 	.word	0x1d8e78af
 23fa794:	3fcc71c5 	.word	0x3fcc71c5
 23fa798:	9997fa04 	.word	0x9997fa04
 23fa79c:	3fd99999 	.word	0x3fd99999
 23fa7a0:	55555555 	.word	0x55555555
 23fa7a4:	3fd55555 	.word	0x3fd55555
	...
 23fa7b0:	43500000 	.word	0x43500000
 23fa7b4:	7fefffff 	.word	0x7fefffff
 23fa7b8:	3ff00000 	.word	0x3ff00000
 23fa7bc:	00095f64 	.word	0x00095f64
 23fa7c0:	fff9eb86 	.word	0xfff9eb86
 23fa7c4:	0006b851 	.word	0x0006b851
 23fa7c8:	3fe00000 	.word	0x3fe00000
 23fa7cc:	c3500000 	.word	0xc3500000
 23fa7d0:	a317      	add	r3, pc, #92	; (adr r3, 23fa830 <__ieee754_log+0x420>)
 23fa7d2:	e9d3 2300 	ldrd	r2, r3, [r3]
 23fa7d6:	e9dd 0102 	ldrd	r0, r1, [sp, #8]
 23fa7da:	f7fb fe19 	bl	23f6410 <__aeabi_dmul>
 23fa7de:	4642      	mov	r2, r8
 23fa7e0:	464b      	mov	r3, r9
 23fa7e2:	4604      	mov	r4, r0
 23fa7e4:	460d      	mov	r5, r1
 23fa7e6:	4650      	mov	r0, sl
 23fa7e8:	4659      	mov	r1, fp
 23fa7ea:	f7fb fc59 	bl	23f60a0 <__aeabi_dsub>
 23fa7ee:	ec53 2b18 	vmov	r2, r3, d8
 23fa7f2:	f7fb fe0d 	bl	23f6410 <__aeabi_dmul>
 23fa7f6:	4606      	mov	r6, r0
 23fa7f8:	460f      	mov	r7, r1
 23fa7fa:	a30f      	add	r3, pc, #60	; (adr r3, 23fa838 <__ieee754_log+0x428>)
 23fa7fc:	e9d3 2300 	ldrd	r2, r3, [r3]
 23fa800:	e9dd 0102 	ldrd	r0, r1, [sp, #8]
 23fa804:	f7fb fe04 	bl	23f6410 <__aeabi_dmul>
 23fa808:	4602      	mov	r2, r0
 23fa80a:	460b      	mov	r3, r1
 23fa80c:	4630      	mov	r0, r6
 23fa80e:	4639      	mov	r1, r7
 23fa810:	f7fb fc46 	bl	23f60a0 <__aeabi_dsub>
 23fa814:	4652      	mov	r2, sl
 23fa816:	465b      	mov	r3, fp
 23fa818:	f7fb fc42 	bl	23f60a0 <__aeabi_dsub>
 23fa81c:	4602      	mov	r2, r0
 23fa81e:	460b      	mov	r3, r1
 23fa820:	4620      	mov	r0, r4
 23fa822:	4629      	mov	r1, r5
 23fa824:	f7fb fc3c 	bl	23f60a0 <__aeabi_dsub>
 23fa828:	ec41 0b10 	vmov	d0, r0, r1
 23fa82c:	e65a      	b.n	23fa4e4 <__ieee754_log+0xd4>
 23fa82e:	bf00      	nop
 23fa830:	fee00000 	.word	0xfee00000
 23fa834:	3fe62e42 	.word	0x3fe62e42
 23fa838:	35793c76 	.word	0x35793c76
 23fa83c:	3dea39ef 	.word	0x3dea39ef

023fa840 <__ieee754_log10>:
 23fa840:	e92d 43f8 	stmdb	sp!, {r3, r4, r5, r6, r7, r8, r9, lr}
 23fa844:	ec55 4b10 	vmov	r4, r5, d0
 23fa848:	f5b5 1f80 	cmp.w	r5, #1048576	; 0x100000
 23fa84c:	462b      	mov	r3, r5
 23fa84e:	da1e      	bge.n	23fa88e <__ieee754_log10+0x4e>
 23fa850:	f025 4200 	bic.w	r2, r5, #2147483648	; 0x80000000
 23fa854:	4322      	orrs	r2, r4
 23fa856:	d05f      	beq.n	23fa918 <__ieee754_log10+0xd8>
 23fa858:	2d00      	cmp	r5, #0
 23fa85a:	db67      	blt.n	23fa92c <__ieee754_log10+0xec>
 23fa85c:	4629      	mov	r1, r5
 23fa85e:	2200      	movs	r2, #0
 23fa860:	4b3f      	ldr	r3, [pc, #252]	; (23fa960 <__ieee754_log10+0x120>)
 23fa862:	ee10 0a10 	vmov	r0, s0
 23fa866:	f7fb fdd3 	bl	23f6410 <__aeabi_dmul>
 23fa86a:	460d      	mov	r5, r1
 23fa86c:	4a3d      	ldr	r2, [pc, #244]	; (23fa964 <__ieee754_log10+0x124>)
 23fa86e:	4604      	mov	r4, r0
 23fa870:	462b      	mov	r3, r5
 23fa872:	f06f 0135 	mvn.w	r1, #53	; 0x35
 23fa876:	4293      	cmp	r3, r2
 23fa878:	dd0d      	ble.n	23fa896 <__ieee754_log10+0x56>
 23fa87a:	4622      	mov	r2, r4
 23fa87c:	462b      	mov	r3, r5
 23fa87e:	4620      	mov	r0, r4
 23fa880:	4629      	mov	r1, r5
 23fa882:	f7fb fc0f 	bl	23f60a4 <__adddf3>
 23fa886:	ec41 0b10 	vmov	d0, r0, r1
 23fa88a:	e8bd 83f8 	ldmia.w	sp!, {r3, r4, r5, r6, r7, r8, r9, pc}
 23fa88e:	4a35      	ldr	r2, [pc, #212]	; (23fa964 <__ieee754_log10+0x124>)
 23fa890:	2100      	movs	r1, #0
 23fa892:	4293      	cmp	r3, r2
 23fa894:	dcf1      	bgt.n	23fa87a <__ieee754_log10+0x3a>
 23fa896:	1518      	asrs	r0, r3, #20
 23fa898:	f3c3 0613 	ubfx	r6, r3, #0, #20
 23fa89c:	f2a0 30ff 	subw	r0, r0, #1023	; 0x3ff
 23fa8a0:	4408      	add	r0, r1
 23fa8a2:	0fc7      	lsrs	r7, r0, #31
 23fa8a4:	eb00 70d0 	add.w	r0, r0, r0, lsr #31
 23fa8a8:	f7fb fd48 	bl	23f633c <__aeabi_i2d>
 23fa8ac:	f240 33ff 	movw	r3, #1023	; 0x3ff
 23fa8b0:	4680      	mov	r8, r0
 23fa8b2:	4689      	mov	r9, r1
 23fa8b4:	1bdb      	subs	r3, r3, r7
 23fa8b6:	ea46 5503 	orr.w	r5, r6, r3, lsl #20
 23fa8ba:	ec45 4b10 	vmov	d0, r4, r5
 23fa8be:	f7ff fda7 	bl	23fa410 <__ieee754_log>
 23fa8c2:	4640      	mov	r0, r8
 23fa8c4:	4649      	mov	r1, r9
 23fa8c6:	a320      	add	r3, pc, #128	; (adr r3, 23fa948 <__ieee754_log10+0x108>)
 23fa8c8:	e9d3 2300 	ldrd	r2, r3, [r3]
 23fa8cc:	ec57 6b10 	vmov	r6, r7, d0
 23fa8d0:	f7fb fd9e 	bl	23f6410 <__aeabi_dmul>
 23fa8d4:	4604      	mov	r4, r0
 23fa8d6:	460d      	mov	r5, r1
 23fa8d8:	4630      	mov	r0, r6
 23fa8da:	4639      	mov	r1, r7
 23fa8dc:	a31c      	add	r3, pc, #112	; (adr r3, 23fa950 <__ieee754_log10+0x110>)
 23fa8de:	e9d3 2300 	ldrd	r2, r3, [r3]
 23fa8e2:	f7fb fd95 	bl	23f6410 <__aeabi_dmul>
 23fa8e6:	4602      	mov	r2, r0
 23fa8e8:	460b      	mov	r3, r1
 23fa8ea:	4620      	mov	r0, r4
 23fa8ec:	4629      	mov	r1, r5
 23fa8ee:	f7fb fbd9 	bl	23f60a4 <__adddf3>
 23fa8f2:	4604      	mov	r4, r0
 23fa8f4:	460d      	mov	r5, r1
 23fa8f6:	4640      	mov	r0, r8
 23fa8f8:	4649      	mov	r1, r9
 23fa8fa:	a317      	add	r3, pc, #92	; (adr r3, 23fa958 <__ieee754_log10+0x118>)
 23fa8fc:	e9d3 2300 	ldrd	r2, r3, [r3]
 23fa900:	f7fb fd86 	bl	23f6410 <__aeabi_dmul>
 23fa904:	4602      	mov	r2, r0
 23fa906:	460b      	mov	r3, r1
 23fa908:	4620      	mov	r0, r4
 23fa90a:	4629      	mov	r1, r5
 23fa90c:	f7fb fbca 	bl	23f60a4 <__adddf3>
 23fa910:	ec41 0b10 	vmov	d0, r0, r1
 23fa914:	e8bd 83f8 	ldmia.w	sp!, {r3, r4, r5, r6, r7, r8, r9, pc}
 23fa918:	2200      	movs	r2, #0
 23fa91a:	2300      	movs	r3, #0
 23fa91c:	2000      	movs	r0, #0
 23fa91e:	4912      	ldr	r1, [pc, #72]	; (23fa968 <__ieee754_log10+0x128>)
 23fa920:	f7fb fea0 	bl	23f6664 <__aeabi_ddiv>
 23fa924:	ec41 0b10 	vmov	d0, r0, r1
 23fa928:	e8bd 83f8 	ldmia.w	sp!, {r3, r4, r5, r6, r7, r8, r9, pc}
 23fa92c:	ee10 2a10 	vmov	r2, s0
 23fa930:	4620      	mov	r0, r4
 23fa932:	4629      	mov	r1, r5
 23fa934:	f7fb fbb4 	bl	23f60a0 <__aeabi_dsub>
 23fa938:	2200      	movs	r2, #0
 23fa93a:	2300      	movs	r3, #0
 23fa93c:	f7fb fe92 	bl	23f6664 <__aeabi_ddiv>
 23fa940:	ec41 0b10 	vmov	d0, r0, r1
 23fa944:	e7a1      	b.n	23fa88a <__ieee754_log10+0x4a>
 23fa946:	bf00      	nop
 23fa948:	11f12b36 	.word	0x11f12b36
 23fa94c:	3d59fef3 	.word	0x3d59fef3
 23fa950:	1526e50e 	.word	0x1526e50e
 23fa954:	3fdbcb7b 	.word	0x3fdbcb7b
 23fa958:	509f6000 	.word	0x509f6000
 23fa95c:	3fd34413 	.word	0x3fd34413
 23fa960:	43500000 	.word	0x43500000
 23fa964:	7fefffff 	.word	0x7fefffff
 23fa968:	c3500000 	.word	0xc3500000
 23fa96c:	00000000 	.word	0x00000000

023fa970 <__ieee754_pow>:
 23fa970:	e92d 4ff0 	stmdb	sp!, {r4, r5, r6, r7, r8, r9, sl, fp, lr}
 23fa974:	ec55 4b11 	vmov	r4, r5, d1
 23fa978:	f025 4a00 	bic.w	sl, r5, #2147483648	; 0x80000000
 23fa97c:	ea5a 0204 	orrs.w	r2, sl, r4
 23fa980:	ed2d 8b0c 	vpush	{d8-d13}
 23fa984:	b087      	sub	sp, #28
 23fa986:	d01f      	beq.n	23fa9c8 <__ieee754_pow+0x58>
 23fa988:	495d      	ldr	r1, [pc, #372]	; (23fab00 <__ieee754_pow+0x190>)
 23fa98a:	ee10 2a10 	vmov	r2, s0
 23fa98e:	ec57 6b10 	vmov	r6, r7, d0
 23fa992:	f027 4800 	bic.w	r8, r7, #2147483648	; 0x80000000
 23fa996:	46b9      	mov	r9, r7
 23fa998:	4588      	cmp	r8, r1
 23fa99a:	dc11      	bgt.n	23fa9c0 <__ieee754_pow+0x50>
 23fa99c:	46ab      	mov	fp, r5
 23fa99e:	ee11 3a10 	vmov	r3, s2
 23fa9a2:	d108      	bne.n	23fa9b6 <__ieee754_pow+0x46>
 23fa9a4:	b13e      	cbz	r6, 23fa9b6 <__ieee754_pow+0x46>
 23fa9a6:	4857      	ldr	r0, [pc, #348]	; (23fab04 <__ieee754_pow+0x194>)
 23fa9a8:	b007      	add	sp, #28
 23fa9aa:	ecbd 8b0c 	vpop	{d8-d13}
 23fa9ae:	e8bd 4ff0 	ldmia.w	sp!, {r4, r5, r6, r7, r8, r9, sl, fp, lr}
 23fa9b2:	f001 be9d 	b.w	23fc6f0 <nan>
 23fa9b6:	4952      	ldr	r1, [pc, #328]	; (23fab00 <__ieee754_pow+0x190>)
 23fa9b8:	458a      	cmp	sl, r1
 23fa9ba:	dc01      	bgt.n	23fa9c0 <__ieee754_pow+0x50>
 23fa9bc:	d10b      	bne.n	23fa9d6 <__ieee754_pow+0x66>
 23fa9be:	b153      	cbz	r3, 23fa9d6 <__ieee754_pow+0x66>
 23fa9c0:	4b51      	ldr	r3, [pc, #324]	; (23fab08 <__ieee754_pow+0x198>)
 23fa9c2:	4443      	add	r3, r8
 23fa9c4:	4313      	orrs	r3, r2
 23fa9c6:	d1ee      	bne.n	23fa9a6 <__ieee754_pow+0x36>
 23fa9c8:	ed9f 0b49 	vldr	d0, [pc, #292]	; 23faaf0 <__ieee754_pow+0x180>
 23fa9cc:	b007      	add	sp, #28
 23fa9ce:	ecbd 8b0c 	vpop	{d8-d13}
 23fa9d2:	e8bd 8ff0 	ldmia.w	sp!, {r4, r5, r6, r7, r8, r9, sl, fp, pc}
 23fa9d6:	f1b9 0f00 	cmp.w	r9, #0
 23fa9da:	db45      	blt.n	23faa68 <__ieee754_pow+0xf8>
 23fa9dc:	2100      	movs	r1, #0
 23fa9de:	9100      	str	r1, [sp, #0]
 23fa9e0:	b983      	cbnz	r3, 23faa04 <__ieee754_pow+0x94>
 23fa9e2:	4b47      	ldr	r3, [pc, #284]	; (23fab00 <__ieee754_pow+0x190>)
 23fa9e4:	459a      	cmp	sl, r3
 23fa9e6:	d05b      	beq.n	23faaa0 <__ieee754_pow+0x130>
 23fa9e8:	4b48      	ldr	r3, [pc, #288]	; (23fab0c <__ieee754_pow+0x19c>)
 23fa9ea:	459a      	cmp	sl, r3
 23fa9ec:	d06a      	beq.n	23faac4 <__ieee754_pow+0x154>
 23fa9ee:	f1bb 4f80 	cmp.w	fp, #1073741824	; 0x40000000
 23fa9f2:	f000 84b0 	beq.w	23fb356 <__ieee754_pow+0x9e6>
 23fa9f6:	4b46      	ldr	r3, [pc, #280]	; (23fab10 <__ieee754_pow+0x1a0>)
 23fa9f8:	459b      	cmp	fp, r3
 23fa9fa:	d103      	bne.n	23faa04 <__ieee754_pow+0x94>
 23fa9fc:	f1b9 0f00 	cmp.w	r9, #0
 23faa00:	f280 850d 	bge.w	23fb41e <__ieee754_pow+0xaae>
 23faa04:	9202      	str	r2, [sp, #8]
 23faa06:	ec47 6b10 	vmov	d0, r6, r7
 23faa0a:	f001 fe57 	bl	23fc6bc <fabs>
 23faa0e:	9a02      	ldr	r2, [sp, #8]
 23faa10:	b94a      	cbnz	r2, 23faa26 <__ieee754_pow+0xb6>
 23faa12:	f029 4340 	bic.w	r3, r9, #3221225472	; 0xc0000000
 23faa16:	4a3d      	ldr	r2, [pc, #244]	; (23fab0c <__ieee754_pow+0x19c>)
 23faa18:	4293      	cmp	r3, r2
 23faa1a:	f000 83a8 	beq.w	23fb16e <__ieee754_pow+0x7fe>
 23faa1e:	f1b8 0f00 	cmp.w	r8, #0
 23faa22:	f000 83a4 	beq.w	23fb16e <__ieee754_pow+0x7fe>
 23faa26:	ea4f 73d9 	mov.w	r3, r9, lsr #31
 23faa2a:	9a00      	ldr	r2, [sp, #0]
 23faa2c:	3b01      	subs	r3, #1
 23faa2e:	9304      	str	r3, [sp, #16]
 23faa30:	4313      	orrs	r3, r2
 23faa32:	d04e      	beq.n	23faad2 <__ieee754_pow+0x162>
 23faa34:	4b37      	ldr	r3, [pc, #220]	; (23fab14 <__ieee754_pow+0x1a4>)
 23faa36:	459a      	cmp	sl, r3
 23faa38:	dd72      	ble.n	23fab20 <__ieee754_pow+0x1b0>
 23faa3a:	f103 7304 	add.w	r3, r3, #34603008	; 0x2100000
 23faa3e:	459a      	cmp	sl, r3
 23faa40:	4b35      	ldr	r3, [pc, #212]	; (23fab18 <__ieee754_pow+0x1a8>)
 23faa42:	f340 842b 	ble.w	23fb29c <__ieee754_pow+0x92c>
 23faa46:	4598      	cmp	r8, r3
 23faa48:	f340 83a9 	ble.w	23fb19e <__ieee754_pow+0x82e>
 23faa4c:	f1bb 0f00 	cmp.w	fp, #0
 23faa50:	f340 83a9 	ble.w	23fb1a6 <__ieee754_pow+0x836>
 23faa54:	a328      	add	r3, pc, #160	; (adr r3, 23faaf8 <__ieee754_pow+0x188>)
 23faa56:	e9d3 2300 	ldrd	r2, r3, [r3]
 23faa5a:	4610      	mov	r0, r2
 23faa5c:	4619      	mov	r1, r3
 23faa5e:	f7fb fcd7 	bl	23f6410 <__aeabi_dmul>
 23faa62:	ec41 0b10 	vmov	d0, r0, r1
 23faa66:	e7b1      	b.n	23fa9cc <__ieee754_pow+0x5c>
 23faa68:	492c      	ldr	r1, [pc, #176]	; (23fab1c <__ieee754_pow+0x1ac>)
 23faa6a:	458a      	cmp	sl, r1
 23faa6c:	dc27      	bgt.n	23faabe <__ieee754_pow+0x14e>
 23faa6e:	f1a1 7154 	sub.w	r1, r1, #55574528	; 0x3500000
 23faa72:	458a      	cmp	sl, r1
 23faa74:	ddb2      	ble.n	23fa9dc <__ieee754_pow+0x6c>
 23faa76:	ea4f 512a 	mov.w	r1, sl, asr #20
 23faa7a:	f2a1 31ff 	subw	r1, r1, #1023	; 0x3ff
 23faa7e:	2914      	cmp	r1, #20
 23faa80:	f340 847d 	ble.w	23fb37e <__ieee754_pow+0xa0e>
 23faa84:	f1c1 0134 	rsb	r1, r1, #52	; 0x34
 23faa88:	fa23 f001 	lsr.w	r0, r3, r1
 23faa8c:	fa00 f101 	lsl.w	r1, r0, r1
 23faa90:	4299      	cmp	r1, r3
 23faa92:	d1a3      	bne.n	23fa9dc <__ieee754_pow+0x6c>
 23faa94:	f000 0001 	and.w	r0, r0, #1
 23faa98:	f1c0 0102 	rsb	r1, r0, #2
 23faa9c:	9100      	str	r1, [sp, #0]
 23faa9e:	e79f      	b.n	23fa9e0 <__ieee754_pow+0x70>
 23faaa0:	4b19      	ldr	r3, [pc, #100]	; (23fab08 <__ieee754_pow+0x198>)
 23faaa2:	4443      	add	r3, r8
 23faaa4:	4313      	orrs	r3, r2
 23faaa6:	d08f      	beq.n	23fa9c8 <__ieee754_pow+0x58>
 23faaa8:	4b1b      	ldr	r3, [pc, #108]	; (23fab18 <__ieee754_pow+0x1a8>)
 23faaaa:	4598      	cmp	r8, r3
 23faaac:	f340 83ab 	ble.w	23fb206 <__ieee754_pow+0x896>
 23faab0:	f1bb 0f00 	cmp.w	fp, #0
 23faab4:	f2c0 8377 	blt.w	23fb1a6 <__ieee754_pow+0x836>
 23faab8:	ec45 4b10 	vmov	d0, r4, r5
 23faabc:	e786      	b.n	23fa9cc <__ieee754_pow+0x5c>
 23faabe:	2102      	movs	r1, #2
 23faac0:	9100      	str	r1, [sp, #0]
 23faac2:	e78d      	b.n	23fa9e0 <__ieee754_pow+0x70>
 23faac4:	f1bb 0f00 	cmp.w	fp, #0
 23faac8:	f2c0 844f 	blt.w	23fb36a <__ieee754_pow+0x9fa>
 23faacc:	ec47 6b10 	vmov	d0, r6, r7
 23faad0:	e77c      	b.n	23fa9cc <__ieee754_pow+0x5c>
 23faad2:	4632      	mov	r2, r6
 23faad4:	463b      	mov	r3, r7
 23faad6:	4610      	mov	r0, r2
 23faad8:	4619      	mov	r1, r3
 23faada:	f7fb fae1 	bl	23f60a0 <__aeabi_dsub>
 23faade:	4602      	mov	r2, r0
 23faae0:	460b      	mov	r3, r1
 23faae2:	f7fb fdbf 	bl	23f6664 <__aeabi_ddiv>
 23faae6:	ec41 0b10 	vmov	d0, r0, r1
 23faaea:	e76f      	b.n	23fa9cc <__ieee754_pow+0x5c>
 23faaec:	f3af 8000 	nop.w
 23faaf0:	00000000 	.word	0x00000000
 23faaf4:	3ff00000 	.word	0x3ff00000
 23faaf8:	8800759c 	.word	0x8800759c
 23faafc:	7e37e43c 	.word	0x7e37e43c
 23fab00:	7ff00000 	.word	0x7ff00000
 23fab04:	023ffd48 	.word	0x023ffd48
 23fab08:	c0100000 	.word	0xc0100000
 23fab0c:	3ff00000 	.word	0x3ff00000
 23fab10:	3fe00000 	.word	0x3fe00000
 23fab14:	41e00000 	.word	0x41e00000
 23fab18:	3fefffff 	.word	0x3fefffff
 23fab1c:	433fffff 	.word	0x433fffff
 23fab20:	4be3      	ldr	r3, [pc, #908]	; (23faeb0 <__ieee754_pow+0x540>)
 23fab22:	2200      	movs	r2, #0
 23fab24:	ea09 0303 	and.w	r3, r9, r3
 23fab28:	b953      	cbnz	r3, 23fab40 <__ieee754_pow+0x1d0>
 23fab2a:	4be2      	ldr	r3, [pc, #904]	; (23faeb4 <__ieee754_pow+0x544>)
 23fab2c:	ec51 0b10 	vmov	r0, r1, d0
 23fab30:	f7fb fc6e 	bl	23f6410 <__aeabi_dmul>
 23fab34:	f06f 0234 	mvn.w	r2, #52	; 0x34
 23fab38:	ec41 0b10 	vmov	d0, r0, r1
 23fab3c:	ee10 8a90 	vmov	r8, s1
 23fab40:	ea4f 5328 	mov.w	r3, r8, asr #20
 23fab44:	f3c8 0813 	ubfx	r8, r8, #0, #20
 23fab48:	4edb      	ldr	r6, [pc, #876]	; (23faeb8 <__ieee754_pow+0x548>)
 23fab4a:	f2a3 33ff 	subw	r3, r3, #1023	; 0x3ff
 23fab4e:	ea48 0606 	orr.w	r6, r8, r6
 23fab52:	189a      	adds	r2, r3, r2
 23fab54:	4bd9      	ldr	r3, [pc, #868]	; (23faebc <__ieee754_pow+0x54c>)
 23fab56:	4598      	cmp	r8, r3
 23fab58:	9205      	str	r2, [sp, #20]
 23fab5a:	dd07      	ble.n	23fab6c <__ieee754_pow+0x1fc>
 23fab5c:	4bd8      	ldr	r3, [pc, #864]	; (23faec0 <__ieee754_pow+0x550>)
 23fab5e:	4598      	cmp	r8, r3
 23fab60:	f340 8433 	ble.w	23fb3ca <__ieee754_pow+0xa5a>
 23fab64:	3201      	adds	r2, #1
 23fab66:	f5a6 1680 	sub.w	r6, r6, #1048576	; 0x100000
 23fab6a:	9205      	str	r2, [sp, #20]
 23fab6c:	2700      	movs	r7, #0
 23fab6e:	ed9f 7bb8 	vldr	d7, [pc, #736]	; 23fae50 <__ieee754_pow+0x4e0>
 23fab72:	ed9f 6bb9 	vldr	d6, [pc, #740]	; 23fae58 <__ieee754_pow+0x4e8>
 23fab76:	eeb0 da47 	vmov.f32	s26, s14
 23fab7a:	eef0 da67 	vmov.f32	s27, s15
 23fab7e:	eeb0 ca47 	vmov.f32	s24, s14
 23fab82:	eef0 ca67 	vmov.f32	s25, s15
 23fab86:	ec51 0b16 	vmov	r0, r1, d6
 23fab8a:	ec53 2b10 	vmov	r2, r3, d0
 23fab8e:	4633      	mov	r3, r6
 23fab90:	1076      	asrs	r6, r6, #1
 23fab92:	ec43 2b19 	vmov	d9, r2, r3
 23fab96:	ec41 0b1a 	vmov	d10, r0, r1
 23fab9a:	4602      	mov	r2, r0
 23fab9c:	460b      	mov	r3, r1
 23fab9e:	f046 5600 	orr.w	r6, r6, #536870912	; 0x20000000
 23faba2:	ec51 0b19 	vmov	r0, r1, d9
 23faba6:	f7fb fa7b 	bl	23f60a0 <__aeabi_dsub>
 23fabaa:	4680      	mov	r8, r0
 23fabac:	4689      	mov	r9, r1
 23fabae:	ec53 2b1a 	vmov	r2, r3, d10
 23fabb2:	ec51 0b19 	vmov	r0, r1, d9
 23fabb6:	f7fb fa75 	bl	23f60a4 <__adddf3>
 23fabba:	4602      	mov	r2, r0
 23fabbc:	460b      	mov	r3, r1
 23fabbe:	2000      	movs	r0, #0
 23fabc0:	49bd      	ldr	r1, [pc, #756]	; (23faeb8 <__ieee754_pow+0x548>)
 23fabc2:	f7fb fd4f 	bl	23f6664 <__aeabi_ddiv>
 23fabc6:	ec41 0b1b 	vmov	d11, r0, r1
 23fabca:	ec53 2b1b 	vmov	r2, r3, d11
 23fabce:	4640      	mov	r0, r8
 23fabd0:	4649      	mov	r1, r9
 23fabd2:	f7fb fc1d 	bl	23f6410 <__aeabi_dmul>
 23fabd6:	460a      	mov	r2, r1
 23fabd8:	f506 2300 	add.w	r3, r6, #524288	; 0x80000
 23fabdc:	ec41 0b18 	vmov	d8, r0, r1
 23fabe0:	4601      	mov	r1, r0
 23fabe2:	2000      	movs	r0, #0
 23fabe4:	e9cd 1202 	strd	r1, r2, [sp, #8]
 23fabe8:	2100      	movs	r1, #0
 23fabea:	4606      	mov	r6, r0
 23fabec:	4602      	mov	r2, r0
 23fabee:	9102      	str	r1, [sp, #8]
 23fabf0:	19d9      	adds	r1, r3, r7
 23fabf2:	e9dd ab02 	ldrd	sl, fp, [sp, #8]
 23fabf6:	460f      	mov	r7, r1
 23fabf8:	460b      	mov	r3, r1
 23fabfa:	4650      	mov	r0, sl
 23fabfc:	4659      	mov	r1, fp
 23fabfe:	f7fb fc07 	bl	23f6410 <__aeabi_dmul>
 23fac02:	4602      	mov	r2, r0
 23fac04:	460b      	mov	r3, r1
 23fac06:	4640      	mov	r0, r8
 23fac08:	4649      	mov	r1, r9
 23fac0a:	f7fb fa49 	bl	23f60a0 <__aeabi_dsub>
 23fac0e:	4680      	mov	r8, r0
 23fac10:	4689      	mov	r9, r1
 23fac12:	4630      	mov	r0, r6
 23fac14:	4639      	mov	r1, r7
 23fac16:	ec53 2b1a 	vmov	r2, r3, d10
 23fac1a:	f7fb fa41 	bl	23f60a0 <__aeabi_dsub>
 23fac1e:	4602      	mov	r2, r0
 23fac20:	460b      	mov	r3, r1
 23fac22:	ec51 0b19 	vmov	r0, r1, d9
 23fac26:	f7fb fa3b 	bl	23f60a0 <__aeabi_dsub>
 23fac2a:	4652      	mov	r2, sl
 23fac2c:	465b      	mov	r3, fp
 23fac2e:	f7fb fbef 	bl	23f6410 <__aeabi_dmul>
 23fac32:	4602      	mov	r2, r0
 23fac34:	460b      	mov	r3, r1
 23fac36:	4640      	mov	r0, r8
 23fac38:	4649      	mov	r1, r9
 23fac3a:	f7fb fa31 	bl	23f60a0 <__aeabi_dsub>
 23fac3e:	ec53 2b1b 	vmov	r2, r3, d11
 23fac42:	f7fb fbe5 	bl	23f6410 <__aeabi_dmul>
 23fac46:	ec53 2b18 	vmov	r2, r3, d8
 23fac4a:	ec41 0b1a 	vmov	d10, r0, r1
 23fac4e:	ec51 0b18 	vmov	r0, r1, d8
 23fac52:	f7fb fbdd 	bl	23f6410 <__aeabi_dmul>
 23fac56:	4606      	mov	r6, r0
 23fac58:	460f      	mov	r7, r1
 23fac5a:	a381      	add	r3, pc, #516	; (adr r3, 23fae60 <__ieee754_pow+0x4f0>)
 23fac5c:	e9d3 2300 	ldrd	r2, r3, [r3]
 23fac60:	f7fb fbd6 	bl	23f6410 <__aeabi_dmul>
 23fac64:	a380      	add	r3, pc, #512	; (adr r3, 23fae68 <__ieee754_pow+0x4f8>)
 23fac66:	e9d3 2300 	ldrd	r2, r3, [r3]
 23fac6a:	f7fb fa1b 	bl	23f60a4 <__adddf3>
 23fac6e:	4632      	mov	r2, r6
 23fac70:	463b      	mov	r3, r7
 23fac72:	f7fb fbcd 	bl	23f6410 <__aeabi_dmul>
 23fac76:	a37e      	add	r3, pc, #504	; (adr r3, 23fae70 <__ieee754_pow+0x500>)
 23fac78:	e9d3 2300 	ldrd	r2, r3, [r3]
 23fac7c:	f7fb fa12 	bl	23f60a4 <__adddf3>
 23fac80:	4632      	mov	r2, r6
 23fac82:	463b      	mov	r3, r7
 23fac84:	f7fb fbc4 	bl	23f6410 <__aeabi_dmul>
 23fac88:	a37b      	add	r3, pc, #492	; (adr r3, 23fae78 <__ieee754_pow+0x508>)
 23fac8a:	e9d3 2300 	ldrd	r2, r3, [r3]
 23fac8e:	f7fb fa09 	bl	23f60a4 <__adddf3>
 23fac92:	4632      	mov	r2, r6
 23fac94:	463b      	mov	r3, r7
 23fac96:	f7fb fbbb 	bl	23f6410 <__aeabi_dmul>
 23fac9a:	a379      	add	r3, pc, #484	; (adr r3, 23fae80 <__ieee754_pow+0x510>)
 23fac9c:	e9d3 2300 	ldrd	r2, r3, [r3]
 23faca0:	f7fb fa00 	bl	23f60a4 <__adddf3>
 23faca4:	4632      	mov	r2, r6
 23faca6:	463b      	mov	r3, r7
 23faca8:	f7fb fbb2 	bl	23f6410 <__aeabi_dmul>
 23facac:	a376      	add	r3, pc, #472	; (adr r3, 23fae88 <__ieee754_pow+0x518>)
 23facae:	e9d3 2300 	ldrd	r2, r3, [r3]
 23facb2:	f7fb f9f7 	bl	23f60a4 <__adddf3>
 23facb6:	4680      	mov	r8, r0
 23facb8:	4689      	mov	r9, r1
 23facba:	4632      	mov	r2, r6
 23facbc:	463b      	mov	r3, r7
 23facbe:	4630      	mov	r0, r6
 23facc0:	4639      	mov	r1, r7
 23facc2:	f7fb fba5 	bl	23f6410 <__aeabi_dmul>
 23facc6:	4602      	mov	r2, r0
 23facc8:	460b      	mov	r3, r1
 23facca:	4640      	mov	r0, r8
 23faccc:	4649      	mov	r1, r9
 23facce:	f04f 0800 	mov.w	r8, #0
 23facd2:	f7fb fb9d 	bl	23f6410 <__aeabi_dmul>
 23facd6:	4652      	mov	r2, sl
 23facd8:	4606      	mov	r6, r0
 23facda:	460f      	mov	r7, r1
 23facdc:	465b      	mov	r3, fp
 23facde:	ec51 0b18 	vmov	r0, r1, d8
 23face2:	f7fb f9df 	bl	23f60a4 <__adddf3>
 23face6:	ec53 2b1a 	vmov	r2, r3, d10
 23facea:	f7fb fb91 	bl	23f6410 <__aeabi_dmul>
 23facee:	4632      	mov	r2, r6
 23facf0:	463b      	mov	r3, r7
 23facf2:	f7fb f9d7 	bl	23f60a4 <__adddf3>
 23facf6:	4652      	mov	r2, sl
 23facf8:	465b      	mov	r3, fp
 23facfa:	ec41 0b19 	vmov	d9, r0, r1
 23facfe:	4650      	mov	r0, sl
 23fad00:	4659      	mov	r1, fp
 23fad02:	f7fb fb85 	bl	23f6410 <__aeabi_dmul>
 23fad06:	2200      	movs	r2, #0
 23fad08:	4b6e      	ldr	r3, [pc, #440]	; (23faec4 <__ieee754_pow+0x554>)
 23fad0a:	4606      	mov	r6, r0
 23fad0c:	460f      	mov	r7, r1
 23fad0e:	f7fb f9c9 	bl	23f60a4 <__adddf3>
 23fad12:	ec53 2b19 	vmov	r2, r3, d9
 23fad16:	f7fb f9c5 	bl	23f60a4 <__adddf3>
 23fad1a:	4689      	mov	r9, r1
 23fad1c:	4642      	mov	r2, r8
 23fad1e:	4650      	mov	r0, sl
 23fad20:	464b      	mov	r3, r9
 23fad22:	4659      	mov	r1, fp
 23fad24:	f7fb fb74 	bl	23f6410 <__aeabi_dmul>
 23fad28:	2200      	movs	r2, #0
 23fad2a:	4682      	mov	sl, r0
 23fad2c:	468b      	mov	fp, r1
 23fad2e:	4b65      	ldr	r3, [pc, #404]	; (23faec4 <__ieee754_pow+0x554>)
 23fad30:	4640      	mov	r0, r8
 23fad32:	4649      	mov	r1, r9
 23fad34:	f7fb f9b4 	bl	23f60a0 <__aeabi_dsub>
 23fad38:	4632      	mov	r2, r6
 23fad3a:	463b      	mov	r3, r7
 23fad3c:	f7fb f9b0 	bl	23f60a0 <__aeabi_dsub>
 23fad40:	4602      	mov	r2, r0
 23fad42:	460b      	mov	r3, r1
 23fad44:	ec51 0b19 	vmov	r0, r1, d9
 23fad48:	f7fb f9aa 	bl	23f60a0 <__aeabi_dsub>
 23fad4c:	ec53 2b18 	vmov	r2, r3, d8
 23fad50:	f7fb fb5e 	bl	23f6410 <__aeabi_dmul>
 23fad54:	4606      	mov	r6, r0
 23fad56:	460f      	mov	r7, r1
 23fad58:	4642      	mov	r2, r8
 23fad5a:	464b      	mov	r3, r9
 23fad5c:	ec51 0b1a 	vmov	r0, r1, d10
 23fad60:	f7fb fb56 	bl	23f6410 <__aeabi_dmul>
 23fad64:	4602      	mov	r2, r0
 23fad66:	460b      	mov	r3, r1
 23fad68:	4630      	mov	r0, r6
 23fad6a:	4639      	mov	r1, r7
 23fad6c:	f7fb f99a 	bl	23f60a4 <__adddf3>
 23fad70:	4680      	mov	r8, r0
 23fad72:	4689      	mov	r9, r1
 23fad74:	4650      	mov	r0, sl
 23fad76:	4642      	mov	r2, r8
 23fad78:	4659      	mov	r1, fp
 23fad7a:	464b      	mov	r3, r9
 23fad7c:	f7fb f992 	bl	23f60a4 <__adddf3>
 23fad80:	2000      	movs	r0, #0
 23fad82:	460f      	mov	r7, r1
 23fad84:	4606      	mov	r6, r0
 23fad86:	a342      	add	r3, pc, #264	; (adr r3, 23fae90 <__ieee754_pow+0x520>)
 23fad88:	e9d3 2300 	ldrd	r2, r3, [r3]
 23fad8c:	f7fb fb40 	bl	23f6410 <__aeabi_dmul>
 23fad90:	4652      	mov	r2, sl
 23fad92:	465b      	mov	r3, fp
 23fad94:	ec41 0b19 	vmov	d9, r0, r1
 23fad98:	4630      	mov	r0, r6
 23fad9a:	4639      	mov	r1, r7
 23fad9c:	f7fb f980 	bl	23f60a0 <__aeabi_dsub>
 23fada0:	4602      	mov	r2, r0
 23fada2:	460b      	mov	r3, r1
 23fada4:	4640      	mov	r0, r8
 23fada6:	4649      	mov	r1, r9
 23fada8:	f7fb f97a 	bl	23f60a0 <__aeabi_dsub>
 23fadac:	a33a      	add	r3, pc, #232	; (adr r3, 23fae98 <__ieee754_pow+0x528>)
 23fadae:	e9d3 2300 	ldrd	r2, r3, [r3]
 23fadb2:	f7fb fb2d 	bl	23f6410 <__aeabi_dmul>
 23fadb6:	4680      	mov	r8, r0
 23fadb8:	4689      	mov	r9, r1
 23fadba:	4630      	mov	r0, r6
 23fadbc:	4639      	mov	r1, r7
 23fadbe:	a338      	add	r3, pc, #224	; (adr r3, 23faea0 <__ieee754_pow+0x530>)
 23fadc0:	e9d3 2300 	ldrd	r2, r3, [r3]
 23fadc4:	f7fb fb24 	bl	23f6410 <__aeabi_dmul>
 23fadc8:	4602      	mov	r2, r0
 23fadca:	460b      	mov	r3, r1
 23fadcc:	4640      	mov	r0, r8
 23fadce:	4649      	mov	r1, r9
 23fadd0:	f7fb f968 	bl	23f60a4 <__adddf3>
 23fadd4:	ec53 2b1c 	vmov	r2, r3, d12
 23fadd8:	f7fb f964 	bl	23f60a4 <__adddf3>
 23faddc:	4606      	mov	r6, r0
 23fadde:	460f      	mov	r7, r1
 23fade0:	9805      	ldr	r0, [sp, #20]
 23fade2:	f7fb faab 	bl	23f633c <__aeabi_i2d>
 23fade6:	4632      	mov	r2, r6
 23fade8:	4680      	mov	r8, r0
 23fadea:	4689      	mov	r9, r1
 23fadec:	463b      	mov	r3, r7
 23fadee:	ec51 0b19 	vmov	r0, r1, d9
 23fadf2:	f7fb f957 	bl	23f60a4 <__adddf3>
 23fadf6:	ec53 2b1d 	vmov	r2, r3, d13
 23fadfa:	f7fb f953 	bl	23f60a4 <__adddf3>
 23fadfe:	4642      	mov	r2, r8
 23fae00:	464b      	mov	r3, r9
 23fae02:	f7fb f94f 	bl	23f60a4 <__adddf3>
 23fae06:	2000      	movs	r0, #0
 23fae08:	4642      	mov	r2, r8
 23fae0a:	464b      	mov	r3, r9
 23fae0c:	4682      	mov	sl, r0
 23fae0e:	468b      	mov	fp, r1
 23fae10:	f7fb f946 	bl	23f60a0 <__aeabi_dsub>
 23fae14:	ec53 2b1d 	vmov	r2, r3, d13
 23fae18:	f7fb f942 	bl	23f60a0 <__aeabi_dsub>
 23fae1c:	ec53 2b19 	vmov	r2, r3, d9
 23fae20:	f7fb f93e 	bl	23f60a0 <__aeabi_dsub>
 23fae24:	4602      	mov	r2, r0
 23fae26:	460b      	mov	r3, r1
 23fae28:	4630      	mov	r0, r6
 23fae2a:	4639      	mov	r1, r7
 23fae2c:	f7fb f938 	bl	23f60a0 <__aeabi_dsub>
 23fae30:	9b00      	ldr	r3, [sp, #0]
 23fae32:	9a04      	ldr	r2, [sp, #16]
 23fae34:	3b01      	subs	r3, #1
 23fae36:	4313      	orrs	r3, r2
 23fae38:	ec41 0b18 	vmov	d8, r0, r1
 23fae3c:	f040 81dc 	bne.w	23fb1f8 <__ieee754_pow+0x888>
 23fae40:	ed9f 7b19 	vldr	d7, [pc, #100]	; 23faea8 <__ieee754_pow+0x538>
 23fae44:	eeb0 9a47 	vmov.f32	s18, s14
 23fae48:	eef0 9a67 	vmov.f32	s19, s15
 23fae4c:	e03c      	b.n	23faec8 <__ieee754_pow+0x558>
 23fae4e:	bf00      	nop
	...
 23fae5c:	3ff00000 	.word	0x3ff00000
 23fae60:	4a454eef 	.word	0x4a454eef
 23fae64:	3fca7e28 	.word	0x3fca7e28
 23fae68:	93c9db65 	.word	0x93c9db65
 23fae6c:	3fcd864a 	.word	0x3fcd864a
 23fae70:	a91d4101 	.word	0xa91d4101
 23fae74:	3fd17460 	.word	0x3fd17460
 23fae78:	518f264d 	.word	0x518f264d
 23fae7c:	3fd55555 	.word	0x3fd55555
 23fae80:	db6fabff 	.word	0xdb6fabff
 23fae84:	3fdb6db6 	.word	0x3fdb6db6
 23fae88:	33333303 	.word	0x33333303
 23fae8c:	3fe33333 	.word	0x3fe33333
 23fae90:	e0000000 	.word	0xe0000000
 23fae94:	3feec709 	.word	0x3feec709
 23fae98:	dc3a03fd 	.word	0xdc3a03fd
 23fae9c:	3feec709 	.word	0x3feec709
 23faea0:	145b01f5 	.word	0x145b01f5
 23faea4:	be3e2fe0 	.word	0xbe3e2fe0
 23faea8:	00000000 	.word	0x00000000
 23faeac:	bff00000 	.word	0xbff00000
 23faeb0:	7ff00000 	.word	0x7ff00000
 23faeb4:	43400000 	.word	0x43400000
 23faeb8:	3ff00000 	.word	0x3ff00000
 23faebc:	0003988e 	.word	0x0003988e
 23faec0:	000bb679 	.word	0x000bb679
 23faec4:	40080000 	.word	0x40080000
 23faec8:	2300      	movs	r3, #0
 23faeca:	4620      	mov	r0, r4
 23faecc:	4629      	mov	r1, r5
 23faece:	e9cd 4500 	strd	r4, r5, [sp]
 23faed2:	9300      	str	r3, [sp, #0]
 23faed4:	e9dd 8900 	ldrd	r8, r9, [sp]
 23faed8:	4642      	mov	r2, r8
 23faeda:	464b      	mov	r3, r9
 23faedc:	f7fb f8e0 	bl	23f60a0 <__aeabi_dsub>
 23faee0:	465b      	mov	r3, fp
 23faee2:	4652      	mov	r2, sl
 23faee4:	f7fb fa94 	bl	23f6410 <__aeabi_dmul>
 23faee8:	4606      	mov	r6, r0
 23faeea:	460f      	mov	r7, r1
 23faeec:	4622      	mov	r2, r4
 23faeee:	462b      	mov	r3, r5
 23faef0:	ec51 0b18 	vmov	r0, r1, d8
 23faef4:	f7fb fa8c 	bl	23f6410 <__aeabi_dmul>
 23faef8:	4602      	mov	r2, r0
 23faefa:	460b      	mov	r3, r1
 23faefc:	4630      	mov	r0, r6
 23faefe:	4639      	mov	r1, r7
 23faf00:	f7fb f8d0 	bl	23f60a4 <__adddf3>
 23faf04:	4642      	mov	r2, r8
 23faf06:	4604      	mov	r4, r0
 23faf08:	460d      	mov	r5, r1
 23faf0a:	464b      	mov	r3, r9
 23faf0c:	4659      	mov	r1, fp
 23faf0e:	4650      	mov	r0, sl
 23faf10:	46a0      	mov	r8, r4
 23faf12:	f7fb fa7d 	bl	23f6410 <__aeabi_dmul>
 23faf16:	4606      	mov	r6, r0
 23faf18:	460f      	mov	r7, r1
 23faf1a:	4620      	mov	r0, r4
 23faf1c:	4629      	mov	r1, r5
 23faf1e:	4632      	mov	r2, r6
 23faf20:	463b      	mov	r3, r7
 23faf22:	46a9      	mov	r9, r5
 23faf24:	f7fb f8be 	bl	23f60a4 <__adddf3>
 23faf28:	4bd5      	ldr	r3, [pc, #852]	; (23fb280 <__ieee754_pow+0x910>)
 23faf2a:	4604      	mov	r4, r0
 23faf2c:	460d      	mov	r5, r1
 23faf2e:	4299      	cmp	r1, r3
 23faf30:	468b      	mov	fp, r1
 23faf32:	f340 813b 	ble.w	23fb1ac <__ieee754_pow+0x83c>
 23faf36:	4bd3      	ldr	r3, [pc, #844]	; (23fb284 <__ieee754_pow+0x914>)
 23faf38:	440b      	add	r3, r1
 23faf3a:	4303      	orrs	r3, r0
 23faf3c:	f040 8235 	bne.w	23fb3aa <__ieee754_pow+0xa3a>
 23faf40:	4640      	mov	r0, r8
 23faf42:	4649      	mov	r1, r9
 23faf44:	a3b6      	add	r3, pc, #728	; (adr r3, 23fb220 <__ieee754_pow+0x8b0>)
 23faf46:	e9d3 2300 	ldrd	r2, r3, [r3]
 23faf4a:	f7fb f8ab 	bl	23f60a4 <__adddf3>
 23faf4e:	4632      	mov	r2, r6
 23faf50:	463b      	mov	r3, r7
 23faf52:	ec41 0b18 	vmov	d8, r0, r1
 23faf56:	4620      	mov	r0, r4
 23faf58:	4629      	mov	r1, r5
 23faf5a:	f7fb f8a1 	bl	23f60a0 <__aeabi_dsub>
 23faf5e:	4602      	mov	r2, r0
 23faf60:	460b      	mov	r3, r1
 23faf62:	ec51 0b18 	vmov	r0, r1, d8
 23faf66:	f7fb fce3 	bl	23f6930 <__aeabi_dcmpgt>
 23faf6a:	2800      	cmp	r0, #0
 23faf6c:	f040 821d 	bne.w	23fb3aa <__ieee754_pow+0xa3a>
 23faf70:	f3cb 530a 	ubfx	r3, fp, #20, #11
 23faf74:	f44f 1280 	mov.w	r2, #1048576	; 0x100000
 23faf78:	f2a3 33fe 	subw	r3, r3, #1022	; 0x3fe
 23faf7c:	4cc2      	ldr	r4, [pc, #776]	; (23fb288 <__ieee754_pow+0x918>)
 23faf7e:	f1bb 0f00 	cmp.w	fp, #0
 23faf82:	fa42 f303 	asr.w	r3, r2, r3
 23faf86:	f04f 0000 	mov.w	r0, #0
 23faf8a:	445b      	add	r3, fp
 23faf8c:	f3c3 520a 	ubfx	r2, r3, #20, #11
 23faf90:	f3c3 0a13 	ubfx	sl, r3, #0, #20
 23faf94:	f2a2 32ff 	subw	r2, r2, #1023	; 0x3ff
 23faf98:	f44a 1a80 	orr.w	sl, sl, #1048576	; 0x100000
 23faf9c:	fa44 f402 	asr.w	r4, r4, r2
 23fafa0:	f1c2 0214 	rsb	r2, r2, #20
 23fafa4:	ea23 0104 	bic.w	r1, r3, r4
 23fafa8:	fa4a fa02 	asr.w	sl, sl, r2
 23fafac:	4602      	mov	r2, r0
 23fafae:	4630      	mov	r0, r6
 23fafb0:	460b      	mov	r3, r1
 23fafb2:	bfb8      	it	lt
 23fafb4:	f1ca 0a00 	rsblt	sl, sl, #0
 23fafb8:	4639      	mov	r1, r7
 23fafba:	f7fb f871 	bl	23f60a0 <__aeabi_dsub>
 23fafbe:	4602      	mov	r2, r0
 23fafc0:	460b      	mov	r3, r1
 23fafc2:	4606      	mov	r6, r0
 23fafc4:	460f      	mov	r7, r1
 23fafc6:	4640      	mov	r0, r8
 23fafc8:	4649      	mov	r1, r9
 23fafca:	ea4f 5b0a 	mov.w	fp, sl, lsl #20
 23fafce:	f7fb f869 	bl	23f60a4 <__adddf3>
 23fafd2:	460d      	mov	r5, r1
 23fafd4:	2400      	movs	r4, #0
 23fafd6:	4629      	mov	r1, r5
 23fafd8:	a393      	add	r3, pc, #588	; (adr r3, 23fb228 <__ieee754_pow+0x8b8>)
 23fafda:	e9d3 2300 	ldrd	r2, r3, [r3]
 23fafde:	4620      	mov	r0, r4
 23fafe0:	f7fb fa16 	bl	23f6410 <__aeabi_dmul>
 23fafe4:	4632      	mov	r2, r6
 23fafe6:	463b      	mov	r3, r7
 23fafe8:	4606      	mov	r6, r0
 23fafea:	460f      	mov	r7, r1
 23fafec:	4620      	mov	r0, r4
 23fafee:	4629      	mov	r1, r5
 23faff0:	f7fb f856 	bl	23f60a0 <__aeabi_dsub>
 23faff4:	4602      	mov	r2, r0
 23faff6:	460b      	mov	r3, r1
 23faff8:	4640      	mov	r0, r8
 23faffa:	4649      	mov	r1, r9
 23faffc:	f7fb f850 	bl	23f60a0 <__aeabi_dsub>
 23fb000:	a38b      	add	r3, pc, #556	; (adr r3, 23fb230 <__ieee754_pow+0x8c0>)
 23fb002:	e9d3 2300 	ldrd	r2, r3, [r3]
 23fb006:	f7fb fa03 	bl	23f6410 <__aeabi_dmul>
 23fb00a:	4680      	mov	r8, r0
 23fb00c:	4689      	mov	r9, r1
 23fb00e:	4620      	mov	r0, r4
 23fb010:	4629      	mov	r1, r5
 23fb012:	a389      	add	r3, pc, #548	; (adr r3, 23fb238 <__ieee754_pow+0x8c8>)
 23fb014:	e9d3 2300 	ldrd	r2, r3, [r3]
 23fb018:	f7fb f9fa 	bl	23f6410 <__aeabi_dmul>
 23fb01c:	4602      	mov	r2, r0
 23fb01e:	460b      	mov	r3, r1
 23fb020:	4640      	mov	r0, r8
 23fb022:	4649      	mov	r1, r9
 23fb024:	f7fb f83e 	bl	23f60a4 <__adddf3>
 23fb028:	4680      	mov	r8, r0
 23fb02a:	4689      	mov	r9, r1
 23fb02c:	4630      	mov	r0, r6
 23fb02e:	4642      	mov	r2, r8
 23fb030:	4639      	mov	r1, r7
 23fb032:	464b      	mov	r3, r9
 23fb034:	f7fb f836 	bl	23f60a4 <__adddf3>
 23fb038:	4632      	mov	r2, r6
 23fb03a:	4604      	mov	r4, r0
 23fb03c:	460d      	mov	r5, r1
 23fb03e:	463b      	mov	r3, r7
 23fb040:	f7fb f82e 	bl	23f60a0 <__aeabi_dsub>
 23fb044:	4602      	mov	r2, r0
 23fb046:	460b      	mov	r3, r1
 23fb048:	4640      	mov	r0, r8
 23fb04a:	4649      	mov	r1, r9
 23fb04c:	f7fb f828 	bl	23f60a0 <__aeabi_dsub>
 23fb050:	4622      	mov	r2, r4
 23fb052:	4680      	mov	r8, r0
 23fb054:	4689      	mov	r9, r1
 23fb056:	462b      	mov	r3, r5
 23fb058:	4620      	mov	r0, r4
 23fb05a:	4629      	mov	r1, r5
 23fb05c:	f7fb f9d8 	bl	23f6410 <__aeabi_dmul>
 23fb060:	4606      	mov	r6, r0
 23fb062:	460f      	mov	r7, r1
 23fb064:	a376      	add	r3, pc, #472	; (adr r3, 23fb240 <__ieee754_pow+0x8d0>)
 23fb066:	e9d3 2300 	ldrd	r2, r3, [r3]
 23fb06a:	f7fb f9d1 	bl	23f6410 <__aeabi_dmul>
 23fb06e:	a376      	add	r3, pc, #472	; (adr r3, 23fb248 <__ieee754_pow+0x8d8>)
 23fb070:	e9d3 2300 	ldrd	r2, r3, [r3]
 23fb074:	f7fb f814 	bl	23f60a0 <__aeabi_dsub>
 23fb078:	4632      	mov	r2, r6
 23fb07a:	463b      	mov	r3, r7
 23fb07c:	f7fb f9c8 	bl	23f6410 <__aeabi_dmul>
 23fb080:	a373      	add	r3, pc, #460	; (adr r3, 23fb250 <__ieee754_pow+0x8e0>)
 23fb082:	e9d3 2300 	ldrd	r2, r3, [r3]
 23fb086:	f7fb f80d 	bl	23f60a4 <__adddf3>
 23fb08a:	4632      	mov	r2, r6
 23fb08c:	463b      	mov	r3, r7
 23fb08e:	f7fb f9bf 	bl	23f6410 <__aeabi_dmul>
 23fb092:	a371      	add	r3, pc, #452	; (adr r3, 23fb258 <__ieee754_pow+0x8e8>)
 23fb094:	e9d3 2300 	ldrd	r2, r3, [r3]
 23fb098:	f7fb f802 	bl	23f60a0 <__aeabi_dsub>
 23fb09c:	4632      	mov	r2, r6
 23fb09e:	463b      	mov	r3, r7
 23fb0a0:	f7fb f9b6 	bl	23f6410 <__aeabi_dmul>
 23fb0a4:	a36e      	add	r3, pc, #440	; (adr r3, 23fb260 <__ieee754_pow+0x8f0>)
 23fb0a6:	e9d3 2300 	ldrd	r2, r3, [r3]
 23fb0aa:	f7fa fffb 	bl	23f60a4 <__adddf3>
 23fb0ae:	4632      	mov	r2, r6
 23fb0b0:	463b      	mov	r3, r7
 23fb0b2:	f7fb f9ad 	bl	23f6410 <__aeabi_dmul>
 23fb0b6:	4602      	mov	r2, r0
 23fb0b8:	460b      	mov	r3, r1
 23fb0ba:	4620      	mov	r0, r4
 23fb0bc:	4629      	mov	r1, r5
 23fb0be:	f7fa ffef 	bl	23f60a0 <__aeabi_dsub>
 23fb0c2:	4606      	mov	r6, r0
 23fb0c4:	460f      	mov	r7, r1
 23fb0c6:	4620      	mov	r0, r4
 23fb0c8:	4632      	mov	r2, r6
 23fb0ca:	4629      	mov	r1, r5
 23fb0cc:	463b      	mov	r3, r7
 23fb0ce:	f7fb f99f 	bl	23f6410 <__aeabi_dmul>
 23fb0d2:	2200      	movs	r2, #0
 23fb0d4:	f04f 4380 	mov.w	r3, #1073741824	; 0x40000000
 23fb0d8:	ec41 0b18 	vmov	d8, r0, r1
 23fb0dc:	4630      	mov	r0, r6
 23fb0de:	4639      	mov	r1, r7
 23fb0e0:	f7fa ffde 	bl	23f60a0 <__aeabi_dsub>
 23fb0e4:	4602      	mov	r2, r0
 23fb0e6:	460b      	mov	r3, r1
 23fb0e8:	ec51 0b18 	vmov	r0, r1, d8
 23fb0ec:	f7fb faba 	bl	23f6664 <__aeabi_ddiv>
 23fb0f0:	4642      	mov	r2, r8
 23fb0f2:	4606      	mov	r6, r0
 23fb0f4:	460f      	mov	r7, r1
 23fb0f6:	464b      	mov	r3, r9
 23fb0f8:	4620      	mov	r0, r4
 23fb0fa:	4629      	mov	r1, r5
 23fb0fc:	f7fb f988 	bl	23f6410 <__aeabi_dmul>
 23fb100:	4642      	mov	r2, r8
 23fb102:	464b      	mov	r3, r9
 23fb104:	f7fa ffce 	bl	23f60a4 <__adddf3>
 23fb108:	4602      	mov	r2, r0
 23fb10a:	460b      	mov	r3, r1
 23fb10c:	4630      	mov	r0, r6
 23fb10e:	4639      	mov	r1, r7
 23fb110:	f7fa ffc6 	bl	23f60a0 <__aeabi_dsub>
 23fb114:	4622      	mov	r2, r4
 23fb116:	462b      	mov	r3, r5
 23fb118:	f7fa ffc2 	bl	23f60a0 <__aeabi_dsub>
 23fb11c:	4602      	mov	r2, r0
 23fb11e:	460b      	mov	r3, r1
 23fb120:	2000      	movs	r0, #0
 23fb122:	495a      	ldr	r1, [pc, #360]	; (23fb28c <__ieee754_pow+0x91c>)
 23fb124:	f7fa ffbc 	bl	23f60a0 <__aeabi_dsub>
 23fb128:	448b      	add	fp, r1
 23fb12a:	4602      	mov	r2, r0
 23fb12c:	460b      	mov	r3, r1
 23fb12e:	f5bb 1f80 	cmp.w	fp, #1048576	; 0x100000
 23fb132:	f2c0 816c 	blt.w	23fb40e <__ieee754_pow+0xa9e>
 23fb136:	4659      	mov	r1, fp
 23fb138:	ec53 2b19 	vmov	r2, r3, d9
 23fb13c:	f7fb f968 	bl	23f6410 <__aeabi_dmul>
 23fb140:	ec41 0b10 	vmov	d0, r0, r1
 23fb144:	e442      	b.n	23fa9cc <__ieee754_pow+0x5c>
 23fb146:	ec47 6b10 	vmov	d0, r6, r7
 23fb14a:	9200      	str	r2, [sp, #0]
 23fb14c:	f001 fab6 	bl	23fc6bc <fabs>
 23fb150:	9a00      	ldr	r2, [sp, #0]
 23fb152:	2a00      	cmp	r2, #0
 23fb154:	f47f acbd 	bne.w	23faad2 <__ieee754_pow+0x162>
 23fb158:	f029 4340 	bic.w	r3, r9, #3221225472	; 0xc0000000
 23fb15c:	4a4b      	ldr	r2, [pc, #300]	; (23fb28c <__ieee754_pow+0x91c>)
 23fb15e:	4293      	cmp	r3, r2
 23fb160:	d003      	beq.n	23fb16a <__ieee754_pow+0x7fa>
 23fb162:	f1b8 0f00 	cmp.w	r8, #0
 23fb166:	f47f acb4 	bne.w	23faad2 <__ieee754_pow+0x162>
 23fb16a:	2300      	movs	r3, #0
 23fb16c:	9300      	str	r3, [sp, #0]
 23fb16e:	f1bb 0f00 	cmp.w	fp, #0
 23fb172:	da07      	bge.n	23fb184 <__ieee754_pow+0x814>
 23fb174:	2000      	movs	r0, #0
 23fb176:	4945      	ldr	r1, [pc, #276]	; (23fb28c <__ieee754_pow+0x91c>)
 23fb178:	ec53 2b10 	vmov	r2, r3, d0
 23fb17c:	f7fb fa72 	bl	23f6664 <__aeabi_ddiv>
 23fb180:	ec41 0b10 	vmov	d0, r0, r1
 23fb184:	f1b9 0f00 	cmp.w	r9, #0
 23fb188:	f6bf ac20 	bge.w	23fa9cc <__ieee754_pow+0x5c>
 23fb18c:	4b40      	ldr	r3, [pc, #256]	; (23fb290 <__ieee754_pow+0x920>)
 23fb18e:	9a00      	ldr	r2, [sp, #0]
 23fb190:	4443      	add	r3, r8
 23fb192:	4313      	orrs	r3, r2
 23fb194:	f040 812d 	bne.w	23fb3f2 <__ieee754_pow+0xa82>
 23fb198:	ec53 2b10 	vmov	r2, r3, d0
 23fb19c:	e49b      	b.n	23faad6 <__ieee754_pow+0x166>
 23fb19e:	f1bb 0f00 	cmp.w	fp, #0
 23fb1a2:	f6ff ac57 	blt.w	23faa54 <__ieee754_pow+0xe4>
 23fb1a6:	ed9f 0b30 	vldr	d0, [pc, #192]	; 23fb268 <__ieee754_pow+0x8f8>
 23fb1aa:	e40f      	b.n	23fa9cc <__ieee754_pow+0x5c>
 23fb1ac:	f021 4300 	bic.w	r3, r1, #2147483648	; 0x80000000
 23fb1b0:	f8df c0e4 	ldr.w	ip, [pc, #228]	; 23fb298 <__ieee754_pow+0x928>
 23fb1b4:	4563      	cmp	r3, ip
 23fb1b6:	f340 80f0 	ble.w	23fb39a <__ieee754_pow+0xa2a>
 23fb1ba:	4b36      	ldr	r3, [pc, #216]	; (23fb294 <__ieee754_pow+0x924>)
 23fb1bc:	440b      	add	r3, r1
 23fb1be:	4303      	orrs	r3, r0
 23fb1c0:	d10a      	bne.n	23fb1d8 <__ieee754_pow+0x868>
 23fb1c2:	4632      	mov	r2, r6
 23fb1c4:	463b      	mov	r3, r7
 23fb1c6:	f7fa ff6b 	bl	23f60a0 <__aeabi_dsub>
 23fb1ca:	4642      	mov	r2, r8
 23fb1cc:	464b      	mov	r3, r9
 23fb1ce:	f7fb fba5 	bl	23f691c <__aeabi_dcmpge>
 23fb1d2:	2800      	cmp	r0, #0
 23fb1d4:	f43f aecc 	beq.w	23faf70 <__ieee754_pow+0x600>
 23fb1d8:	a325      	add	r3, pc, #148	; (adr r3, 23fb270 <__ieee754_pow+0x900>)
 23fb1da:	e9d3 2300 	ldrd	r2, r3, [r3]
 23fb1de:	ec51 0b19 	vmov	r0, r1, d9
 23fb1e2:	f7fb f915 	bl	23f6410 <__aeabi_dmul>
 23fb1e6:	a322      	add	r3, pc, #136	; (adr r3, 23fb270 <__ieee754_pow+0x900>)
 23fb1e8:	e9d3 2300 	ldrd	r2, r3, [r3]
 23fb1ec:	f7fb f910 	bl	23f6410 <__aeabi_dmul>
 23fb1f0:	ec41 0b10 	vmov	d0, r0, r1
 23fb1f4:	f7ff bbea 	b.w	23fa9cc <__ieee754_pow+0x5c>
 23fb1f8:	ed9f 7b1f 	vldr	d7, [pc, #124]	; 23fb278 <__ieee754_pow+0x908>
 23fb1fc:	eeb0 9a47 	vmov.f32	s18, s14
 23fb200:	eef0 9a67 	vmov.f32	s19, s15
 23fb204:	e660      	b.n	23faec8 <__ieee754_pow+0x558>
 23fb206:	f1bb 0f00 	cmp.w	fp, #0
 23fb20a:	dacc      	bge.n	23fb1a6 <__ieee754_pow+0x836>
 23fb20c:	f105 4300 	add.w	r3, r5, #2147483648	; 0x80000000
 23fb210:	ee00 4a10 	vmov	s0, r4
 23fb214:	ee00 3a90 	vmov	s1, r3
 23fb218:	f7ff bbd8 	b.w	23fa9cc <__ieee754_pow+0x5c>
 23fb21c:	f3af 8000 	nop.w
 23fb220:	652b82fe 	.word	0x652b82fe
 23fb224:	3c971547 	.word	0x3c971547
 23fb228:	00000000 	.word	0x00000000
 23fb22c:	3fe62e43 	.word	0x3fe62e43
 23fb230:	fefa39ef 	.word	0xfefa39ef
 23fb234:	3fe62e42 	.word	0x3fe62e42
 23fb238:	0ca86c39 	.word	0x0ca86c39
 23fb23c:	be205c61 	.word	0xbe205c61
 23fb240:	72bea4d0 	.word	0x72bea4d0
 23fb244:	3e663769 	.word	0x3e663769
 23fb248:	c5d26bf1 	.word	0xc5d26bf1
 23fb24c:	3ebbbd41 	.word	0x3ebbbd41
 23fb250:	af25de2c 	.word	0xaf25de2c
 23fb254:	3f11566a 	.word	0x3f11566a
 23fb258:	16bebd93 	.word	0x16bebd93
 23fb25c:	3f66c16c 	.word	0x3f66c16c
 23fb260:	5555553e 	.word	0x5555553e
 23fb264:	3fc55555 	.word	0x3fc55555
	...
 23fb270:	c2f8f359 	.word	0xc2f8f359
 23fb274:	01a56e1f 	.word	0x01a56e1f
 23fb278:	00000000 	.word	0x00000000
 23fb27c:	3ff00000 	.word	0x3ff00000
 23fb280:	408fffff 	.word	0x408fffff
 23fb284:	bf700000 	.word	0xbf700000
 23fb288:	000fffff 	.word	0x000fffff
 23fb28c:	3ff00000 	.word	0x3ff00000
 23fb290:	c0100000 	.word	0xc0100000
 23fb294:	3f6f3400 	.word	0x3f6f3400
 23fb298:	4090cbff 	.word	0x4090cbff
 23fb29c:	4598      	cmp	r8, r3
 23fb29e:	f6ff af7e 	blt.w	23fb19e <__ieee754_pow+0x82e>
 23fb2a2:	4b79      	ldr	r3, [pc, #484]	; (23fb488 <__ieee754_pow+0xb18>)
 23fb2a4:	4598      	cmp	r8, r3
 23fb2a6:	f73f abd1 	bgt.w	23faa4c <__ieee754_pow+0xdc>
 23fb2aa:	2200      	movs	r2, #0
 23fb2ac:	4b76      	ldr	r3, [pc, #472]	; (23fb488 <__ieee754_pow+0xb18>)
 23fb2ae:	ec51 0b10 	vmov	r0, r1, d0
 23fb2b2:	f7fa fef5 	bl	23f60a0 <__aeabi_dsub>
 23fb2b6:	4606      	mov	r6, r0
 23fb2b8:	460f      	mov	r7, r1
 23fb2ba:	a363      	add	r3, pc, #396	; (adr r3, 23fb448 <__ieee754_pow+0xad8>)
 23fb2bc:	e9d3 2300 	ldrd	r2, r3, [r3]
 23fb2c0:	f7fb f8a6 	bl	23f6410 <__aeabi_dmul>
 23fb2c4:	4682      	mov	sl, r0
 23fb2c6:	468b      	mov	fp, r1
 23fb2c8:	4630      	mov	r0, r6
 23fb2ca:	4639      	mov	r1, r7
 23fb2cc:	a360      	add	r3, pc, #384	; (adr r3, 23fb450 <__ieee754_pow+0xae0>)
 23fb2ce:	e9d3 2300 	ldrd	r2, r3, [r3]
 23fb2d2:	f7fb f89d 	bl	23f6410 <__aeabi_dmul>
 23fb2d6:	2200      	movs	r2, #0
 23fb2d8:	4b6c      	ldr	r3, [pc, #432]	; (23fb48c <__ieee754_pow+0xb1c>)
 23fb2da:	ec41 0b18 	vmov	d8, r0, r1
 23fb2de:	4630      	mov	r0, r6
 23fb2e0:	4639      	mov	r1, r7
 23fb2e2:	f7fb f895 	bl	23f6410 <__aeabi_dmul>
 23fb2e6:	4602      	mov	r2, r0
 23fb2e8:	460b      	mov	r3, r1
 23fb2ea:	a15b      	add	r1, pc, #364	; (adr r1, 23fb458 <__ieee754_pow+0xae8>)
 23fb2ec:	e9d1 0100 	ldrd	r0, r1, [r1]
 23fb2f0:	f7fa fed6 	bl	23f60a0 <__aeabi_dsub>
 23fb2f4:	4632      	mov	r2, r6
 23fb2f6:	463b      	mov	r3, r7
 23fb2f8:	f7fb f88a 	bl	23f6410 <__aeabi_dmul>
 23fb2fc:	4602      	mov	r2, r0
 23fb2fe:	460b      	mov	r3, r1
 23fb300:	2000      	movs	r0, #0
 23fb302:	4963      	ldr	r1, [pc, #396]	; (23fb490 <__ieee754_pow+0xb20>)
 23fb304:	f7fa fecc 	bl	23f60a0 <__aeabi_dsub>
 23fb308:	4680      	mov	r8, r0
 23fb30a:	4689      	mov	r9, r1
 23fb30c:	4632      	mov	r2, r6
 23fb30e:	463b      	mov	r3, r7
 23fb310:	4630      	mov	r0, r6
 23fb312:	4639      	mov	r1, r7
 23fb314:	f7fb f87c 	bl	23f6410 <__aeabi_dmul>
 23fb318:	4602      	mov	r2, r0
 23fb31a:	460b      	mov	r3, r1
 23fb31c:	4640      	mov	r0, r8
 23fb31e:	4649      	mov	r1, r9
 23fb320:	f7fb f876 	bl	23f6410 <__aeabi_dmul>
 23fb324:	a34e      	add	r3, pc, #312	; (adr r3, 23fb460 <__ieee754_pow+0xaf0>)
 23fb326:	e9d3 2300 	ldrd	r2, r3, [r3]
 23fb32a:	f7fb f871 	bl	23f6410 <__aeabi_dmul>
 23fb32e:	4602      	mov	r2, r0
 23fb330:	460b      	mov	r3, r1
 23fb332:	ec51 0b18 	vmov	r0, r1, d8
 23fb336:	f7fa feb3 	bl	23f60a0 <__aeabi_dsub>
 23fb33a:	4606      	mov	r6, r0
 23fb33c:	460f      	mov	r7, r1
 23fb33e:	4650      	mov	r0, sl
 23fb340:	4659      	mov	r1, fp
 23fb342:	4632      	mov	r2, r6
 23fb344:	463b      	mov	r3, r7
 23fb346:	f7fa fead 	bl	23f60a4 <__adddf3>
 23fb34a:	2000      	movs	r0, #0
 23fb34c:	4652      	mov	r2, sl
 23fb34e:	465b      	mov	r3, fp
 23fb350:	4682      	mov	sl, r0
 23fb352:	468b      	mov	fp, r1
 23fb354:	e564      	b.n	23fae20 <__ieee754_pow+0x4b0>
 23fb356:	4632      	mov	r2, r6
 23fb358:	463b      	mov	r3, r7
 23fb35a:	4630      	mov	r0, r6
 23fb35c:	4639      	mov	r1, r7
 23fb35e:	f7fb f857 	bl	23f6410 <__aeabi_dmul>
 23fb362:	ec41 0b10 	vmov	d0, r0, r1
 23fb366:	f7ff bb31 	b.w	23fa9cc <__ieee754_pow+0x5c>
 23fb36a:	2000      	movs	r0, #0
 23fb36c:	4946      	ldr	r1, [pc, #280]	; (23fb488 <__ieee754_pow+0xb18>)
 23fb36e:	4632      	mov	r2, r6
 23fb370:	463b      	mov	r3, r7
 23fb372:	f7fb f977 	bl	23f6664 <__aeabi_ddiv>
 23fb376:	ec41 0b10 	vmov	d0, r0, r1
 23fb37a:	f7ff bb27 	b.w	23fa9cc <__ieee754_pow+0x5c>
 23fb37e:	2b00      	cmp	r3, #0
 23fb380:	f47f aee1 	bne.w	23fb146 <__ieee754_pow+0x7d6>
 23fb384:	f1c1 0114 	rsb	r1, r1, #20
 23fb388:	fa4a f001 	asr.w	r0, sl, r1
 23fb38c:	fa00 f101 	lsl.w	r1, r0, r1
 23fb390:	4551      	cmp	r1, sl
 23fb392:	d04d      	beq.n	23fb430 <__ieee754_pow+0xac0>
 23fb394:	9300      	str	r3, [sp, #0]
 23fb396:	f7ff bb27 	b.w	23fa9e8 <__ieee754_pow+0x78>
 23fb39a:	4a3d      	ldr	r2, [pc, #244]	; (23fb490 <__ieee754_pow+0xb20>)
 23fb39c:	4293      	cmp	r3, r2
 23fb39e:	dc4e      	bgt.n	23fb43e <__ieee754_pow+0xace>
 23fb3a0:	e9dd 2300 	ldrd	r2, r3, [sp]
 23fb3a4:	4693      	mov	fp, r2
 23fb3a6:	4692      	mov	sl, r2
 23fb3a8:	e614      	b.n	23fafd4 <__ieee754_pow+0x664>
 23fb3aa:	a32f      	add	r3, pc, #188	; (adr r3, 23fb468 <__ieee754_pow+0xaf8>)
 23fb3ac:	e9d3 2300 	ldrd	r2, r3, [r3]
 23fb3b0:	ec51 0b19 	vmov	r0, r1, d9
 23fb3b4:	f7fb f82c 	bl	23f6410 <__aeabi_dmul>
 23fb3b8:	a32b      	add	r3, pc, #172	; (adr r3, 23fb468 <__ieee754_pow+0xaf8>)
 23fb3ba:	e9d3 2300 	ldrd	r2, r3, [r3]
 23fb3be:	f7fb f827 	bl	23f6410 <__aeabi_dmul>
 23fb3c2:	ec41 0b10 	vmov	d0, r0, r1
 23fb3c6:	f7ff bb01 	b.w	23fa9cc <__ieee754_pow+0x5c>
 23fb3ca:	ed9f 7b29 	vldr	d7, [pc, #164]	; 23fb470 <__ieee754_pow+0xb00>
 23fb3ce:	f44f 2780 	mov.w	r7, #262144	; 0x40000
 23fb3d2:	eeb0 da47 	vmov.f32	s26, s14
 23fb3d6:	eef0 da67 	vmov.f32	s27, s15
 23fb3da:	ed9f 7b27 	vldr	d7, [pc, #156]	; 23fb478 <__ieee754_pow+0xb08>
 23fb3de:	eeb0 ca47 	vmov.f32	s24, s14
 23fb3e2:	eef0 ca67 	vmov.f32	s25, s15
 23fb3e6:	ed9f 7b26 	vldr	d7, [pc, #152]	; 23fb480 <__ieee754_pow+0xb10>
 23fb3ea:	ec51 0b17 	vmov	r0, r1, d7
 23fb3ee:	f7ff bbcc 	b.w	23fab8a <__ieee754_pow+0x21a>
 23fb3f2:	9b00      	ldr	r3, [sp, #0]
 23fb3f4:	2b01      	cmp	r3, #1
 23fb3f6:	f47f aae9 	bne.w	23fa9cc <__ieee754_pow+0x5c>
 23fb3fa:	ee10 1a90 	vmov	r1, s1
 23fb3fe:	ee10 2a10 	vmov	r2, s0
 23fb402:	f101 4300 	add.w	r3, r1, #2147483648	; 0x80000000
 23fb406:	ec43 2b10 	vmov	d0, r2, r3
 23fb40a:	f7ff badf 	b.w	23fa9cc <__ieee754_pow+0x5c>
 23fb40e:	4650      	mov	r0, sl
 23fb410:	ec43 2b10 	vmov	d0, r2, r3
 23fb414:	f001 fa10 	bl	23fc838 <scalbn>
 23fb418:	ec51 0b10 	vmov	r0, r1, d0
 23fb41c:	e68c      	b.n	23fb138 <__ieee754_pow+0x7c8>
 23fb41e:	ec47 6b10 	vmov	d0, r6, r7
 23fb422:	b007      	add	sp, #28
 23fb424:	ecbd 8b0c 	vpop	{d8-d13}
 23fb428:	e8bd 4ff0 	ldmia.w	sp!, {r4, r5, r6, r7, r8, r9, sl, fp, lr}
 23fb42c:	f000 ba5a 	b.w	23fb8e4 <__ieee754_sqrt>
 23fb430:	f000 0001 	and.w	r0, r0, #1
 23fb434:	f1c0 0302 	rsb	r3, r0, #2
 23fb438:	9300      	str	r3, [sp, #0]
 23fb43a:	f7ff bad5 	b.w	23fa9e8 <__ieee754_pow+0x78>
 23fb43e:	151b      	asrs	r3, r3, #20
 23fb440:	e598      	b.n	23faf74 <__ieee754_pow+0x604>
 23fb442:	bf00      	nop
 23fb444:	f3af 8000 	nop.w
 23fb448:	60000000 	.word	0x60000000
 23fb44c:	3ff71547 	.word	0x3ff71547
 23fb450:	f85ddf44 	.word	0xf85ddf44
 23fb454:	3e54ae0b 	.word	0x3e54ae0b
 23fb458:	55555555 	.word	0x55555555
 23fb45c:	3fd55555 	.word	0x3fd55555
 23fb460:	652b82fe 	.word	0x652b82fe
 23fb464:	3ff71547 	.word	0x3ff71547
 23fb468:	8800759c 	.word	0x8800759c
 23fb46c:	7e37e43c 	.word	0x7e37e43c
 23fb470:	40000000 	.word	0x40000000
 23fb474:	3fe2b803 	.word	0x3fe2b803
 23fb478:	43cfd006 	.word	0x43cfd006
 23fb47c:	3e4cfdeb 	.word	0x3e4cfdeb
 23fb480:	00000000 	.word	0x00000000
 23fb484:	3ff80000 	.word	0x3ff80000
 23fb488:	3ff00000 	.word	0x3ff00000
 23fb48c:	3fd00000 	.word	0x3fd00000
 23fb490:	3fe00000 	.word	0x3fe00000
 23fb494:	00000000 	.word	0x00000000

023fb498 <__ieee754_rem_pio2>:
 23fb498:	ec53 2b10 	vmov	r2, r3, d0
 23fb49c:	e92d 4ff0 	stmdb	sp!, {r4, r5, r6, r7, r8, r9, sl, fp, lr}
 23fb4a0:	4991      	ldr	r1, [pc, #580]	; (23fb6e8 <__ieee754_rem_pio2+0x250>)
 23fb4a2:	f023 4500 	bic.w	r5, r3, #2147483648	; 0x80000000
 23fb4a6:	4604      	mov	r4, r0
 23fb4a8:	428d      	cmp	r5, r1
 23fb4aa:	ed2d 8b06 	vpush	{d8-d10}
 23fb4ae:	b08b      	sub	sp, #44	; 0x2c
 23fb4b0:	f340 808c 	ble.w	23fb5cc <__ieee754_rem_pio2+0x134>
 23fb4b4:	498d      	ldr	r1, [pc, #564]	; (23fb6ec <__ieee754_rem_pio2+0x254>)
 23fb4b6:	461f      	mov	r7, r3
 23fb4b8:	428d      	cmp	r5, r1
 23fb4ba:	dc2b      	bgt.n	23fb514 <__ieee754_rem_pio2+0x7c>
 23fb4bc:	2f00      	cmp	r7, #0
 23fb4be:	4619      	mov	r1, r3
 23fb4c0:	ee10 0a10 	vmov	r0, s0
 23fb4c4:	a37e      	add	r3, pc, #504	; (adr r3, 23fb6c0 <__ieee754_rem_pio2+0x228>)
 23fb4c6:	e9d3 2300 	ldrd	r2, r3, [r3]
 23fb4ca:	f340 81b8 	ble.w	23fb83e <__ieee754_rem_pio2+0x3a6>
 23fb4ce:	f7fa fde7 	bl	23f60a0 <__aeabi_dsub>
 23fb4d2:	4b87      	ldr	r3, [pc, #540]	; (23fb6f0 <__ieee754_rem_pio2+0x258>)
 23fb4d4:	4680      	mov	r8, r0
 23fb4d6:	4689      	mov	r9, r1
 23fb4d8:	429d      	cmp	r5, r3
 23fb4da:	f000 808f 	beq.w	23fb5fc <__ieee754_rem_pio2+0x164>
 23fb4de:	2601      	movs	r6, #1
 23fb4e0:	a379      	add	r3, pc, #484	; (adr r3, 23fb6c8 <__ieee754_rem_pio2+0x230>)
 23fb4e2:	e9d3 2300 	ldrd	r2, r3, [r3]
 23fb4e6:	f7fa fddb 	bl	23f60a0 <__aeabi_dsub>
 23fb4ea:	4602      	mov	r2, r0
 23fb4ec:	460b      	mov	r3, r1
 23fb4ee:	4640      	mov	r0, r8
 23fb4f0:	4649      	mov	r1, r9
 23fb4f2:	e9c4 2300 	strd	r2, r3, [r4]
 23fb4f6:	f7fa fdd3 	bl	23f60a0 <__aeabi_dsub>
 23fb4fa:	a373      	add	r3, pc, #460	; (adr r3, 23fb6c8 <__ieee754_rem_pio2+0x230>)
 23fb4fc:	e9d3 2300 	ldrd	r2, r3, [r3]
 23fb500:	f7fa fdce 	bl	23f60a0 <__aeabi_dsub>
 23fb504:	e9c4 0102 	strd	r0, r1, [r4, #8]
 23fb508:	4630      	mov	r0, r6
 23fb50a:	b00b      	add	sp, #44	; 0x2c
 23fb50c:	ecbd 8b06 	vpop	{d8-d10}
 23fb510:	e8bd 8ff0 	ldmia.w	sp!, {r4, r5, r6, r7, r8, r9, sl, fp, pc}
 23fb514:	4977      	ldr	r1, [pc, #476]	; (23fb6f4 <__ieee754_rem_pio2+0x25c>)
 23fb516:	428d      	cmp	r5, r1
 23fb518:	f340 8092 	ble.w	23fb640 <__ieee754_rem_pio2+0x1a8>
 23fb51c:	4976      	ldr	r1, [pc, #472]	; (23fb6f8 <__ieee754_rem_pio2+0x260>)
 23fb51e:	428d      	cmp	r5, r1
 23fb520:	dc61      	bgt.n	23fb5e6 <__ieee754_rem_pio2+0x14e>
 23fb522:	152e      	asrs	r6, r5, #20
 23fb524:	ee10 0a10 	vmov	r0, s0
 23fb528:	4690      	mov	r8, r2
 23fb52a:	f2a6 4616 	subw	r6, r6, #1046	; 0x416
 23fb52e:	eba5 5106 	sub.w	r1, r5, r6, lsl #20
 23fb532:	4689      	mov	r9, r1
 23fb534:	f7fb fa1c 	bl	23f6970 <__aeabi_d2iz>
 23fb538:	f7fa ff00 	bl	23f633c <__aeabi_i2d>
 23fb53c:	4602      	mov	r2, r0
 23fb53e:	460b      	mov	r3, r1
 23fb540:	4640      	mov	r0, r8
 23fb542:	4649      	mov	r1, r9
 23fb544:	e9cd 2304 	strd	r2, r3, [sp, #16]
 23fb548:	f7fa fdaa 	bl	23f60a0 <__aeabi_dsub>
 23fb54c:	2200      	movs	r2, #0
 23fb54e:	4b6b      	ldr	r3, [pc, #428]	; (23fb6fc <__ieee754_rem_pio2+0x264>)
 23fb550:	f7fa ff5e 	bl	23f6410 <__aeabi_dmul>
 23fb554:	4689      	mov	r9, r1
 23fb556:	4680      	mov	r8, r0
 23fb558:	f7fb fa0a 	bl	23f6970 <__aeabi_d2iz>
 23fb55c:	4605      	mov	r5, r0
 23fb55e:	f7fa feed 	bl	23f633c <__aeabi_i2d>
 23fb562:	4602      	mov	r2, r0
 23fb564:	460b      	mov	r3, r1
 23fb566:	4640      	mov	r0, r8
 23fb568:	4649      	mov	r1, r9
 23fb56a:	e9cd 2306 	strd	r2, r3, [sp, #24]
 23fb56e:	f7fa fd97 	bl	23f60a0 <__aeabi_dsub>
 23fb572:	2200      	movs	r2, #0
 23fb574:	4b61      	ldr	r3, [pc, #388]	; (23fb6fc <__ieee754_rem_pio2+0x264>)
 23fb576:	f7fa ff4b 	bl	23f6410 <__aeabi_dmul>
 23fb57a:	4602      	mov	r2, r0
 23fb57c:	460b      	mov	r3, r1
 23fb57e:	e9cd 2308 	strd	r2, r3, [sp, #32]
 23fb582:	2200      	movs	r2, #0
 23fb584:	2300      	movs	r3, #0
 23fb586:	f7fb f9ab 	bl	23f68e0 <__aeabi_dcmpeq>
 23fb58a:	2800      	cmp	r0, #0
 23fb58c:	f000 8155 	beq.w	23fb83a <__ieee754_rem_pio2+0x3a2>
 23fb590:	2d00      	cmp	r5, #0
 23fb592:	bf0c      	ite	eq
 23fb594:	2301      	moveq	r3, #1
 23fb596:	2302      	movne	r3, #2
 23fb598:	4959      	ldr	r1, [pc, #356]	; (23fb700 <__ieee754_rem_pio2+0x268>)
 23fb59a:	4632      	mov	r2, r6
 23fb59c:	a804      	add	r0, sp, #16
 23fb59e:	9101      	str	r1, [sp, #4]
 23fb5a0:	2102      	movs	r1, #2
 23fb5a2:	9100      	str	r1, [sp, #0]
 23fb5a4:	4621      	mov	r1, r4
 23fb5a6:	f000 fb9f 	bl	23fbce8 <__kernel_rem_pio2>
 23fb5aa:	2f00      	cmp	r7, #0
 23fb5ac:	4606      	mov	r6, r0
 23fb5ae:	daab      	bge.n	23fb508 <__ieee754_rem_pio2+0x70>
 23fb5b0:	6861      	ldr	r1, [r4, #4]
 23fb5b2:	4246      	negs	r6, r0
 23fb5b4:	6822      	ldr	r2, [r4, #0]
 23fb5b6:	f101 4300 	add.w	r3, r1, #2147483648	; 0x80000000
 23fb5ba:	68e1      	ldr	r1, [r4, #12]
 23fb5bc:	e9c4 2300 	strd	r2, r3, [r4]
 23fb5c0:	68a2      	ldr	r2, [r4, #8]
 23fb5c2:	f101 4300 	add.w	r3, r1, #2147483648	; 0x80000000
 23fb5c6:	e9c4 2302 	strd	r2, r3, [r4, #8]
 23fb5ca:	e79d      	b.n	23fb508 <__ieee754_rem_pio2+0x70>
 23fb5cc:	2000      	movs	r0, #0
 23fb5ce:	2100      	movs	r1, #0
 23fb5d0:	2600      	movs	r6, #0
 23fb5d2:	e9c4 0102 	strd	r0, r1, [r4, #8]
 23fb5d6:	4630      	mov	r0, r6
 23fb5d8:	ed84 0b00 	vstr	d0, [r4]
 23fb5dc:	b00b      	add	sp, #44	; 0x2c
 23fb5de:	ecbd 8b06 	vpop	{d8-d10}
 23fb5e2:	e8bd 8ff0 	ldmia.w	sp!, {r4, r5, r6, r7, r8, r9, sl, fp, pc}
 23fb5e6:	ee10 0a10 	vmov	r0, s0
 23fb5ea:	4619      	mov	r1, r3
 23fb5ec:	f7fa fd58 	bl	23f60a0 <__aeabi_dsub>
 23fb5f0:	2600      	movs	r6, #0
 23fb5f2:	e9c4 0102 	strd	r0, r1, [r4, #8]
 23fb5f6:	e9c4 0100 	strd	r0, r1, [r4]
 23fb5fa:	e785      	b.n	23fb508 <__ieee754_rem_pio2+0x70>
 23fb5fc:	a334      	add	r3, pc, #208	; (adr r3, 23fb6d0 <__ieee754_rem_pio2+0x238>)
 23fb5fe:	e9d3 2300 	ldrd	r2, r3, [r3]
 23fb602:	f7fa fd4d 	bl	23f60a0 <__aeabi_dsub>
 23fb606:	4680      	mov	r8, r0
 23fb608:	4689      	mov	r9, r1
 23fb60a:	2601      	movs	r6, #1
 23fb60c:	a332      	add	r3, pc, #200	; (adr r3, 23fb6d8 <__ieee754_rem_pio2+0x240>)
 23fb60e:	e9d3 2300 	ldrd	r2, r3, [r3]
 23fb612:	f7fa fd45 	bl	23f60a0 <__aeabi_dsub>
 23fb616:	4602      	mov	r2, r0
 23fb618:	460b      	mov	r3, r1
 23fb61a:	4640      	mov	r0, r8
 23fb61c:	4649      	mov	r1, r9
 23fb61e:	e9c4 2300 	strd	r2, r3, [r4]
 23fb622:	f7fa fd3d 	bl	23f60a0 <__aeabi_dsub>
 23fb626:	a32c      	add	r3, pc, #176	; (adr r3, 23fb6d8 <__ieee754_rem_pio2+0x240>)
 23fb628:	e9d3 2300 	ldrd	r2, r3, [r3]
 23fb62c:	f7fa fd38 	bl	23f60a0 <__aeabi_dsub>
 23fb630:	e9c4 0102 	strd	r0, r1, [r4, #8]
 23fb634:	4630      	mov	r0, r6
 23fb636:	b00b      	add	sp, #44	; 0x2c
 23fb638:	ecbd 8b06 	vpop	{d8-d10}
 23fb63c:	e8bd 8ff0 	ldmia.w	sp!, {r4, r5, r6, r7, r8, r9, sl, fp, pc}
 23fb640:	f001 f83c 	bl	23fc6bc <fabs>
 23fb644:	ee10 0a10 	vmov	r0, s0
 23fb648:	ec59 8b10 	vmov	r8, r9, d0
 23fb64c:	a324      	add	r3, pc, #144	; (adr r3, 23fb6e0 <__ieee754_rem_pio2+0x248>)
 23fb64e:	e9d3 2300 	ldrd	r2, r3, [r3]
 23fb652:	4649      	mov	r1, r9
 23fb654:	f7fa fedc 	bl	23f6410 <__aeabi_dmul>
 23fb658:	2200      	movs	r2, #0
 23fb65a:	4b2a      	ldr	r3, [pc, #168]	; (23fb704 <__ieee754_rem_pio2+0x26c>)
 23fb65c:	f7fa fd22 	bl	23f60a4 <__adddf3>
 23fb660:	f7fb f986 	bl	23f6970 <__aeabi_d2iz>
 23fb664:	4606      	mov	r6, r0
 23fb666:	f7fa fe69 	bl	23f633c <__aeabi_i2d>
 23fb66a:	4602      	mov	r2, r0
 23fb66c:	460b      	mov	r3, r1
 23fb66e:	ec43 2b18 	vmov	d8, r2, r3
 23fb672:	a313      	add	r3, pc, #76	; (adr r3, 23fb6c0 <__ieee754_rem_pio2+0x228>)
 23fb674:	e9d3 2300 	ldrd	r2, r3, [r3]
 23fb678:	f7fa feca 	bl	23f6410 <__aeabi_dmul>
 23fb67c:	4602      	mov	r2, r0
 23fb67e:	460b      	mov	r3, r1
 23fb680:	4640      	mov	r0, r8
 23fb682:	4649      	mov	r1, r9
 23fb684:	eeb0 9a48 	vmov.f32	s18, s16
 23fb688:	eef0 9a68 	vmov.f32	s19, s17
 23fb68c:	f7fa fd08 	bl	23f60a0 <__aeabi_dsub>
 23fb690:	4682      	mov	sl, r0
 23fb692:	468b      	mov	fp, r1
 23fb694:	a30c      	add	r3, pc, #48	; (adr r3, 23fb6c8 <__ieee754_rem_pio2+0x230>)
 23fb696:	e9d3 2300 	ldrd	r2, r3, [r3]
 23fb69a:	ec51 0b18 	vmov	r0, r1, d8
 23fb69e:	f7fa feb7 	bl	23f6410 <__aeabi_dmul>
 23fb6a2:	2e1f      	cmp	r6, #31
 23fb6a4:	ec41 0b18 	vmov	d8, r0, r1
 23fb6a8:	dc30      	bgt.n	23fb70c <__ieee754_rem_pio2+0x274>
 23fb6aa:	4b17      	ldr	r3, [pc, #92]	; (23fb708 <__ieee754_rem_pio2+0x270>)
 23fb6ac:	1e72      	subs	r2, r6, #1
 23fb6ae:	f853 3022 	ldr.w	r3, [r3, r2, lsl #2]
 23fb6b2:	42ab      	cmp	r3, r5
 23fb6b4:	d02a      	beq.n	23fb70c <__ieee754_rem_pio2+0x274>
 23fb6b6:	4602      	mov	r2, r0
 23fb6b8:	460b      	mov	r3, r1
 23fb6ba:	e09d      	b.n	23fb7f8 <__ieee754_rem_pio2+0x360>
 23fb6bc:	f3af 8000 	nop.w
 23fb6c0:	54400000 	.word	0x54400000
 23fb6c4:	3ff921fb 	.word	0x3ff921fb
 23fb6c8:	1a626331 	.word	0x1a626331
 23fb6cc:	3dd0b461 	.word	0x3dd0b461
 23fb6d0:	1a600000 	.word	0x1a600000
 23fb6d4:	3dd0b461 	.word	0x3dd0b461
 23fb6d8:	2e037073 	.word	0x2e037073
 23fb6dc:	3ba3198a 	.word	0x3ba3198a
 23fb6e0:	6dc9c883 	.word	0x6dc9c883
 23fb6e4:	3fe45f30 	.word	0x3fe45f30
 23fb6e8:	3fe921fb 	.word	0x3fe921fb
 23fb6ec:	4002d97b 	.word	0x4002d97b
 23fb6f0:	3ff921fb 	.word	0x3ff921fb
 23fb6f4:	413921fb 	.word	0x413921fb
 23fb6f8:	7fefffff 	.word	0x7fefffff
 23fb6fc:	41700000 	.word	0x41700000
 23fb700:	023ffdcc 	.word	0x023ffdcc
 23fb704:	3fe00000 	.word	0x3fe00000
 23fb708:	023ffd4c 	.word	0x023ffd4c
 23fb70c:	152b      	asrs	r3, r5, #20
 23fb70e:	4650      	mov	r0, sl
 23fb710:	4659      	mov	r1, fp
 23fb712:	9303      	str	r3, [sp, #12]
 23fb714:	ec53 2b18 	vmov	r2, r3, d8
 23fb718:	f7fa fcc2 	bl	23f60a0 <__aeabi_dsub>
 23fb71c:	f3c1 530a 	ubfx	r3, r1, #20, #11
 23fb720:	4680      	mov	r8, r0
 23fb722:	4689      	mov	r9, r1
 23fb724:	ebc3 5515 	rsb	r5, r3, r5, lsr #20
 23fb728:	2d10      	cmp	r5, #16
 23fb72a:	dd6b      	ble.n	23fb804 <__ieee754_rem_pio2+0x36c>
 23fb72c:	a364      	add	r3, pc, #400	; (adr r3, 23fb8c0 <__ieee754_rem_pio2+0x428>)
 23fb72e:	e9d3 2300 	ldrd	r2, r3, [r3]
 23fb732:	ec51 0b19 	vmov	r0, r1, d9
 23fb736:	f7fa fe6b 	bl	23f6410 <__aeabi_dmul>
 23fb73a:	4680      	mov	r8, r0
 23fb73c:	4689      	mov	r9, r1
 23fb73e:	4650      	mov	r0, sl
 23fb740:	4642      	mov	r2, r8
 23fb742:	4659      	mov	r1, fp
 23fb744:	464b      	mov	r3, r9
 23fb746:	f7fa fcab 	bl	23f60a0 <__aeabi_dsub>
 23fb74a:	4602      	mov	r2, r0
 23fb74c:	460b      	mov	r3, r1
 23fb74e:	4650      	mov	r0, sl
 23fb750:	4659      	mov	r1, fp
 23fb752:	4692      	mov	sl, r2
 23fb754:	469b      	mov	fp, r3
 23fb756:	ec43 2b1a 	vmov	d10, r2, r3
 23fb75a:	f7fa fca1 	bl	23f60a0 <__aeabi_dsub>
 23fb75e:	4642      	mov	r2, r8
 23fb760:	464b      	mov	r3, r9
 23fb762:	f7fa fc9d 	bl	23f60a0 <__aeabi_dsub>
 23fb766:	4680      	mov	r8, r0
 23fb768:	4689      	mov	r9, r1
 23fb76a:	a357      	add	r3, pc, #348	; (adr r3, 23fb8c8 <__ieee754_rem_pio2+0x430>)
 23fb76c:	e9d3 2300 	ldrd	r2, r3, [r3]
 23fb770:	ec51 0b19 	vmov	r0, r1, d9
 23fb774:	f7fa fe4c 	bl	23f6410 <__aeabi_dmul>
 23fb778:	4642      	mov	r2, r8
 23fb77a:	464b      	mov	r3, r9
 23fb77c:	f7fa fc90 	bl	23f60a0 <__aeabi_dsub>
 23fb780:	4602      	mov	r2, r0
 23fb782:	460b      	mov	r3, r1
 23fb784:	4650      	mov	r0, sl
 23fb786:	4659      	mov	r1, fp
 23fb788:	ec43 2b18 	vmov	d8, r2, r3
 23fb78c:	f7fa fc88 	bl	23f60a0 <__aeabi_dsub>
 23fb790:	9a03      	ldr	r2, [sp, #12]
 23fb792:	f3c1 530a 	ubfx	r3, r1, #20, #11
 23fb796:	4680      	mov	r8, r0
 23fb798:	4689      	mov	r9, r1
 23fb79a:	1ad3      	subs	r3, r2, r3
 23fb79c:	2b31      	cmp	r3, #49	; 0x31
 23fb79e:	dd31      	ble.n	23fb804 <__ieee754_rem_pio2+0x36c>
 23fb7a0:	a34c      	add	r3, pc, #304	; (adr r3, 23fb8d4 <__ieee754_rem_pio2+0x43c>)
 23fb7a2:	e9d3 2300 	ldrd	r2, r3, [r3]
 23fb7a6:	ec51 0b19 	vmov	r0, r1, d9
 23fb7aa:	f7fa fe31 	bl	23f6410 <__aeabi_dmul>
 23fb7ae:	4680      	mov	r8, r0
 23fb7b0:	4689      	mov	r9, r1
 23fb7b2:	4642      	mov	r2, r8
 23fb7b4:	464b      	mov	r3, r9
 23fb7b6:	ec51 0b1a 	vmov	r0, r1, d10
 23fb7ba:	f7fa fc71 	bl	23f60a0 <__aeabi_dsub>
 23fb7be:	4682      	mov	sl, r0
 23fb7c0:	468b      	mov	fp, r1
 23fb7c2:	4652      	mov	r2, sl
 23fb7c4:	465b      	mov	r3, fp
 23fb7c6:	ec51 0b1a 	vmov	r0, r1, d10
 23fb7ca:	f7fa fc69 	bl	23f60a0 <__aeabi_dsub>
 23fb7ce:	4642      	mov	r2, r8
 23fb7d0:	464b      	mov	r3, r9
 23fb7d2:	f7fa fc65 	bl	23f60a0 <__aeabi_dsub>
 23fb7d6:	4680      	mov	r8, r0
 23fb7d8:	4689      	mov	r9, r1
 23fb7da:	a340      	add	r3, pc, #256	; (adr r3, 23fb8dc <__ieee754_rem_pio2+0x444>)
 23fb7dc:	e9d3 2300 	ldrd	r2, r3, [r3]
 23fb7e0:	ec51 0b19 	vmov	r0, r1, d9
 23fb7e4:	f7fa fe14 	bl	23f6410 <__aeabi_dmul>
 23fb7e8:	4642      	mov	r2, r8
 23fb7ea:	464b      	mov	r3, r9
 23fb7ec:	f7fa fc58 	bl	23f60a0 <__aeabi_dsub>
 23fb7f0:	4602      	mov	r2, r0
 23fb7f2:	460b      	mov	r3, r1
 23fb7f4:	ec43 2b18 	vmov	d8, r2, r3
 23fb7f8:	4650      	mov	r0, sl
 23fb7fa:	4659      	mov	r1, fp
 23fb7fc:	f7fa fc50 	bl	23f60a0 <__aeabi_dsub>
 23fb800:	4680      	mov	r8, r0
 23fb802:	4689      	mov	r9, r1
 23fb804:	4642      	mov	r2, r8
 23fb806:	464b      	mov	r3, r9
 23fb808:	4650      	mov	r0, sl
 23fb80a:	4659      	mov	r1, fp
 23fb80c:	e9c4 8900 	strd	r8, r9, [r4]
 23fb810:	f7fa fc46 	bl	23f60a0 <__aeabi_dsub>
 23fb814:	ec53 2b18 	vmov	r2, r3, d8
 23fb818:	f7fa fc42 	bl	23f60a0 <__aeabi_dsub>
 23fb81c:	2f00      	cmp	r7, #0
 23fb81e:	e9c4 0102 	strd	r0, r1, [r4, #8]
 23fb822:	f6bf ae71 	bge.w	23fb508 <__ieee754_rem_pio2+0x70>
 23fb826:	f109 4300 	add.w	r3, r9, #2147483648	; 0x80000000
 23fb82a:	4276      	negs	r6, r6
 23fb82c:	e9c4 8300 	strd	r8, r3, [r4]
 23fb830:	f101 4300 	add.w	r3, r1, #2147483648	; 0x80000000
 23fb834:	e9c4 0302 	strd	r0, r3, [r4, #8]
 23fb838:	e666      	b.n	23fb508 <__ieee754_rem_pio2+0x70>
 23fb83a:	2303      	movs	r3, #3
 23fb83c:	e6ac      	b.n	23fb598 <__ieee754_rem_pio2+0x100>
 23fb83e:	f7fa fc31 	bl	23f60a4 <__adddf3>
 23fb842:	4b23      	ldr	r3, [pc, #140]	; (23fb8d0 <__ieee754_rem_pio2+0x438>)
 23fb844:	4680      	mov	r8, r0
 23fb846:	4689      	mov	r9, r1
 23fb848:	429d      	cmp	r5, r3
 23fb84a:	d016      	beq.n	23fb87a <__ieee754_rem_pio2+0x3e2>
 23fb84c:	f04f 36ff 	mov.w	r6, #4294967295
 23fb850:	a319      	add	r3, pc, #100	; (adr r3, 23fb8b8 <__ieee754_rem_pio2+0x420>)
 23fb852:	e9d3 2300 	ldrd	r2, r3, [r3]
 23fb856:	f7fa fc25 	bl	23f60a4 <__adddf3>
 23fb85a:	4602      	mov	r2, r0
 23fb85c:	460b      	mov	r3, r1
 23fb85e:	4640      	mov	r0, r8
 23fb860:	4649      	mov	r1, r9
 23fb862:	e9c4 2300 	strd	r2, r3, [r4]
 23fb866:	f7fa fc1b 	bl	23f60a0 <__aeabi_dsub>
 23fb86a:	a313      	add	r3, pc, #76	; (adr r3, 23fb8b8 <__ieee754_rem_pio2+0x420>)
 23fb86c:	e9d3 2300 	ldrd	r2, r3, [r3]
 23fb870:	f7fa fc18 	bl	23f60a4 <__adddf3>
 23fb874:	e9c4 0102 	strd	r0, r1, [r4, #8]
 23fb878:	e646      	b.n	23fb508 <__ieee754_rem_pio2+0x70>
 23fb87a:	a311      	add	r3, pc, #68	; (adr r3, 23fb8c0 <__ieee754_rem_pio2+0x428>)
 23fb87c:	e9d3 2300 	ldrd	r2, r3, [r3]
 23fb880:	f7fa fc10 	bl	23f60a4 <__adddf3>
 23fb884:	4680      	mov	r8, r0
 23fb886:	4689      	mov	r9, r1
 23fb888:	f04f 36ff 	mov.w	r6, #4294967295
 23fb88c:	a30e      	add	r3, pc, #56	; (adr r3, 23fb8c8 <__ieee754_rem_pio2+0x430>)
 23fb88e:	e9d3 2300 	ldrd	r2, r3, [r3]
 23fb892:	f7fa fc07 	bl	23f60a4 <__adddf3>
 23fb896:	4602      	mov	r2, r0
 23fb898:	460b      	mov	r3, r1
 23fb89a:	4640      	mov	r0, r8
 23fb89c:	4649      	mov	r1, r9
 23fb89e:	e9c4 2300 	strd	r2, r3, [r4]
 23fb8a2:	f7fa fbfd 	bl	23f60a0 <__aeabi_dsub>
 23fb8a6:	a308      	add	r3, pc, #32	; (adr r3, 23fb8c8 <__ieee754_rem_pio2+0x430>)
 23fb8a8:	e9d3 2300 	ldrd	r2, r3, [r3]
 23fb8ac:	f7fa fbfa 	bl	23f60a4 <__adddf3>
 23fb8b0:	e9c4 0102 	strd	r0, r1, [r4, #8]
 23fb8b4:	e628      	b.n	23fb508 <__ieee754_rem_pio2+0x70>
 23fb8b6:	bf00      	nop
 23fb8b8:	1a626331 	.word	0x1a626331
 23fb8bc:	3dd0b461 	.word	0x3dd0b461
 23fb8c0:	1a600000 	.word	0x1a600000
 23fb8c4:	3dd0b461 	.word	0x3dd0b461
 23fb8c8:	2e037073 	.word	0x2e037073
 23fb8cc:	3ba3198a 	.word	0x3ba3198a
 23fb8d0:	3ff921fb 	.word	0x3ff921fb
 23fb8d4:	2e000000 	.word	0x2e000000
 23fb8d8:	3ba3198a 	.word	0x3ba3198a
 23fb8dc:	252049c1 	.word	0x252049c1
 23fb8e0:	397b839a 	.word	0x397b839a

023fb8e4 <__ieee754_sqrt>:
 23fb8e4:	495e      	ldr	r1, [pc, #376]	; (23fba60 <__ieee754_sqrt+0x17c>)
 23fb8e6:	e92d 41f0 	stmdb	sp!, {r4, r5, r6, r7, r8, lr}
 23fb8ea:	ec55 4b10 	vmov	r4, r5, d0
 23fb8ee:	43a9      	bics	r1, r5
 23fb8f0:	f000 8094 	beq.w	23fba1c <__ieee754_sqrt+0x138>
 23fb8f4:	2d00      	cmp	r5, #0
 23fb8f6:	462b      	mov	r3, r5
 23fb8f8:	ee10 2a10 	vmov	r2, s0
 23fb8fc:	dd5a      	ble.n	23fb9b4 <__ieee754_sqrt+0xd0>
 23fb8fe:	1528      	asrs	r0, r5, #20
 23fb900:	d067      	beq.n	23fb9d2 <__ieee754_sqrt+0xee>
 23fb902:	f3c3 0313 	ubfx	r3, r3, #0, #20
 23fb906:	07c1      	lsls	r1, r0, #31
 23fb908:	f2a0 37ff 	subw	r7, r0, #1023	; 0x3ff
 23fb90c:	f443 1380 	orr.w	r3, r3, #1048576	; 0x100000
 23fb910:	d403      	bmi.n	23fb91a <__ieee754_sqrt+0x36>
 23fb912:	005b      	lsls	r3, r3, #1
 23fb914:	eb03 73d2 	add.w	r3, r3, r2, lsr #31
 23fb918:	0052      	lsls	r2, r2, #1
 23fb91a:	0fd1      	lsrs	r1, r2, #31
 23fb91c:	2600      	movs	r6, #0
 23fb91e:	107f      	asrs	r7, r7, #1
 23fb920:	f04f 0c16 	mov.w	ip, #22
 23fb924:	eb01 0343 	add.w	r3, r1, r3, lsl #1
 23fb928:	46b6      	mov	lr, r6
 23fb92a:	0052      	lsls	r2, r2, #1
 23fb92c:	f44f 1100 	mov.w	r1, #2097152	; 0x200000
 23fb930:	eb0e 0001 	add.w	r0, lr, r1
 23fb934:	4298      	cmp	r0, r3
 23fb936:	dc03      	bgt.n	23fb940 <__ieee754_sqrt+0x5c>
 23fb938:	1a1b      	subs	r3, r3, r0
 23fb93a:	eb00 0e01 	add.w	lr, r0, r1
 23fb93e:	440e      	add	r6, r1
 23fb940:	005b      	lsls	r3, r3, #1
 23fb942:	f1bc 0c01 	subs.w	ip, ip, #1
 23fb946:	ea4f 0151 	mov.w	r1, r1, lsr #1
 23fb94a:	eb03 73d2 	add.w	r3, r3, r2, lsr #31
 23fb94e:	ea4f 0242 	mov.w	r2, r2, lsl #1
 23fb952:	d1ed      	bne.n	23fb930 <__ieee754_sqrt+0x4c>
 23fb954:	4665      	mov	r5, ip
 23fb956:	2420      	movs	r4, #32
 23fb958:	f04f 4100 	mov.w	r1, #2147483648	; 0x80000000
 23fb95c:	e014      	b.n	23fb988 <__ieee754_sqrt+0xa4>
 23fb95e:	d10a      	bne.n	23fb976 <__ieee754_sqrt+0x92>
 23fb960:	4290      	cmp	r0, r2
 23fb962:	d808      	bhi.n	23fb976 <__ieee754_sqrt+0x92>
 23fb964:	2800      	cmp	r0, #0
 23fb966:	eb00 0c01 	add.w	ip, r0, r1
 23fb96a:	db1d      	blt.n	23fb9a8 <__ieee754_sqrt+0xc4>
 23fb96c:	46f0      	mov	r8, lr
 23fb96e:	2300      	movs	r3, #0
 23fb970:	1a12      	subs	r2, r2, r0
 23fb972:	440d      	add	r5, r1
 23fb974:	46c6      	mov	lr, r8
 23fb976:	0fd0      	lsrs	r0, r2, #31
 23fb978:	3c01      	subs	r4, #1
 23fb97a:	ea4f 0151 	mov.w	r1, r1, lsr #1
 23fb97e:	eb00 0343 	add.w	r3, r0, r3, lsl #1
 23fb982:	ea4f 0242 	mov.w	r2, r2, lsl #1
 23fb986:	d033      	beq.n	23fb9f0 <__ieee754_sqrt+0x10c>
 23fb988:	4573      	cmp	r3, lr
 23fb98a:	eb01 000c 	add.w	r0, r1, ip
 23fb98e:	dde6      	ble.n	23fb95e <__ieee754_sqrt+0x7a>
 23fb990:	2800      	cmp	r0, #0
 23fb992:	eb00 0c01 	add.w	ip, r0, r1
 23fb996:	db07      	blt.n	23fb9a8 <__ieee754_sqrt+0xc4>
 23fb998:	46f0      	mov	r8, lr
 23fb99a:	eba3 030e 	sub.w	r3, r3, lr
 23fb99e:	4290      	cmp	r0, r2
 23fb9a0:	bf88      	it	hi
 23fb9a2:	f103 33ff 	addhi.w	r3, r3, #4294967295
 23fb9a6:	e7e3      	b.n	23fb970 <__ieee754_sqrt+0x8c>
 23fb9a8:	f1bc 0f00 	cmp.w	ip, #0
 23fb9ac:	dbf4      	blt.n	23fb998 <__ieee754_sqrt+0xb4>
 23fb9ae:	f10e 0801 	add.w	r8, lr, #1
 23fb9b2:	e7f2      	b.n	23fb99a <__ieee754_sqrt+0xb6>
 23fb9b4:	f025 4100 	bic.w	r1, r5, #2147483648	; 0x80000000
 23fb9b8:	4321      	orrs	r1, r4
 23fb9ba:	d028      	beq.n	23fba0e <__ieee754_sqrt+0x12a>
 23fb9bc:	2d00      	cmp	r5, #0
 23fb9be:	d13d      	bne.n	23fba3c <__ieee754_sqrt+0x158>
 23fb9c0:	4628      	mov	r0, r5
 23fb9c2:	0ad1      	lsrs	r1, r2, #11
 23fb9c4:	3815      	subs	r0, #21
 23fb9c6:	0552      	lsls	r2, r2, #21
 23fb9c8:	460b      	mov	r3, r1
 23fb9ca:	2900      	cmp	r1, #0
 23fb9cc:	d0f9      	beq.n	23fb9c2 <__ieee754_sqrt+0xde>
 23fb9ce:	02cf      	lsls	r7, r1, #11
 23fb9d0:	d441      	bmi.n	23fba56 <__ieee754_sqrt+0x172>
 23fb9d2:	2400      	movs	r4, #0
 23fb9d4:	005b      	lsls	r3, r3, #1
 23fb9d6:	4625      	mov	r5, r4
 23fb9d8:	3401      	adds	r4, #1
 23fb9da:	02de      	lsls	r6, r3, #11
 23fb9dc:	d5fa      	bpl.n	23fb9d4 <__ieee754_sqrt+0xf0>
 23fb9de:	4619      	mov	r1, r3
 23fb9e0:	4613      	mov	r3, r2
 23fb9e2:	40a2      	lsls	r2, r4
 23fb9e4:	f1c4 0420 	rsb	r4, r4, #32
 23fb9e8:	40e3      	lsrs	r3, r4
 23fb9ea:	1b40      	subs	r0, r0, r5
 23fb9ec:	430b      	orrs	r3, r1
 23fb9ee:	e788      	b.n	23fb902 <__ieee754_sqrt+0x1e>
 23fb9f0:	4313      	orrs	r3, r2
 23fb9f2:	d10e      	bne.n	23fba12 <__ieee754_sqrt+0x12e>
 23fb9f4:	086c      	lsrs	r4, r5, #1
 23fb9f6:	07f3      	lsls	r3, r6, #31
 23fb9f8:	491a      	ldr	r1, [pc, #104]	; (23fba64 <__ieee754_sqrt+0x180>)
 23fb9fa:	bf48      	it	mi
 23fb9fc:	f044 4400 	orrmi.w	r4, r4, #2147483648	; 0x80000000
 23fba00:	eb01 0166 	add.w	r1, r1, r6, asr #1
 23fba04:	4622      	mov	r2, r4
 23fba06:	eb01 5307 	add.w	r3, r1, r7, lsl #20
 23fba0a:	ec43 2b10 	vmov	d0, r2, r3
 23fba0e:	e8bd 81f0 	ldmia.w	sp!, {r4, r5, r6, r7, r8, pc}
 23fba12:	1c6a      	adds	r2, r5, #1
 23fba14:	d01d      	beq.n	23fba52 <__ieee754_sqrt+0x16e>
 23fba16:	1c6c      	adds	r4, r5, #1
 23fba18:	0864      	lsrs	r4, r4, #1
 23fba1a:	e7ec      	b.n	23fb9f6 <__ieee754_sqrt+0x112>
 23fba1c:	ee10 2a10 	vmov	r2, s0
 23fba20:	462b      	mov	r3, r5
 23fba22:	ee10 0a10 	vmov	r0, s0
 23fba26:	4629      	mov	r1, r5
 23fba28:	f7fa fcf2 	bl	23f6410 <__aeabi_dmul>
 23fba2c:	4622      	mov	r2, r4
 23fba2e:	462b      	mov	r3, r5
 23fba30:	f7fa fb38 	bl	23f60a4 <__adddf3>
 23fba34:	ec41 0b10 	vmov	d0, r0, r1
 23fba38:	e8bd 81f0 	ldmia.w	sp!, {r4, r5, r6, r7, r8, pc}
 23fba3c:	4620      	mov	r0, r4
 23fba3e:	4629      	mov	r1, r5
 23fba40:	f7fa fb2e 	bl	23f60a0 <__aeabi_dsub>
 23fba44:	4602      	mov	r2, r0
 23fba46:	460b      	mov	r3, r1
 23fba48:	f7fa fe0c 	bl	23f6664 <__aeabi_ddiv>
 23fba4c:	ec41 0b10 	vmov	d0, r0, r1
 23fba50:	e7dd      	b.n	23fba0e <__ieee754_sqrt+0x12a>
 23fba52:	3601      	adds	r6, #1
 23fba54:	e7cf      	b.n	23fb9f6 <__ieee754_sqrt+0x112>
 23fba56:	4613      	mov	r3, r2
 23fba58:	2420      	movs	r4, #32
 23fba5a:	f04f 35ff 	mov.w	r5, #4294967295
 23fba5e:	e7c3      	b.n	23fb9e8 <__ieee754_sqrt+0x104>
 23fba60:	7ff00000 	.word	0x7ff00000
 23fba64:	3fe00000 	.word	0x3fe00000

023fba68 <__kernel_cos>:
 23fba68:	e92d 4ff8 	stmdb	sp!, {r3, r4, r5, r6, r7, r8, r9, sl, fp, lr}
 23fba6c:	ec57 6b10 	vmov	r6, r7, d0
 23fba70:	f027 4900 	bic.w	r9, r7, #2147483648	; 0x80000000
 23fba74:	f1b9 5f79 	cmp.w	r9, #1044381696	; 0x3e400000
 23fba78:	ec5b ab11 	vmov	sl, fp, d1
 23fba7c:	ed2d 8b04 	vpush	{d8-d9}
 23fba80:	da71      	bge.n	23fbb66 <__kernel_cos+0xfe>
 23fba82:	ee10 0a10 	vmov	r0, s0
 23fba86:	4639      	mov	r1, r7
 23fba88:	f7fa ff72 	bl	23f6970 <__aeabi_d2iz>
 23fba8c:	2800      	cmp	r0, #0
 23fba8e:	f000 80f6 	beq.w	23fbc7e <__kernel_cos+0x216>
 23fba92:	4632      	mov	r2, r6
 23fba94:	463b      	mov	r3, r7
 23fba96:	4630      	mov	r0, r6
 23fba98:	4639      	mov	r1, r7
 23fba9a:	f7fa fcb9 	bl	23f6410 <__aeabi_dmul>
 23fba9e:	4604      	mov	r4, r0
 23fbaa0:	460d      	mov	r5, r1
 23fbaa2:	a37b      	add	r3, pc, #492	; (adr r3, 23fbc90 <__kernel_cos+0x228>)
 23fbaa4:	e9d3 2300 	ldrd	r2, r3, [r3]
 23fbaa8:	f7fa fcb2 	bl	23f6410 <__aeabi_dmul>
 23fbaac:	a37a      	add	r3, pc, #488	; (adr r3, 23fbc98 <__kernel_cos+0x230>)
 23fbaae:	e9d3 2300 	ldrd	r2, r3, [r3]
 23fbab2:	f7fa faf7 	bl	23f60a4 <__adddf3>
 23fbab6:	4622      	mov	r2, r4
 23fbab8:	462b      	mov	r3, r5
 23fbaba:	f7fa fca9 	bl	23f6410 <__aeabi_dmul>
 23fbabe:	a378      	add	r3, pc, #480	; (adr r3, 23fbca0 <__kernel_cos+0x238>)
 23fbac0:	e9d3 2300 	ldrd	r2, r3, [r3]
 23fbac4:	f7fa faec 	bl	23f60a0 <__aeabi_dsub>
 23fbac8:	4622      	mov	r2, r4
 23fbaca:	462b      	mov	r3, r5
 23fbacc:	f7fa fca0 	bl	23f6410 <__aeabi_dmul>
 23fbad0:	a375      	add	r3, pc, #468	; (adr r3, 23fbca8 <__kernel_cos+0x240>)
 23fbad2:	e9d3 2300 	ldrd	r2, r3, [r3]
 23fbad6:	f7fa fae5 	bl	23f60a4 <__adddf3>
 23fbada:	4622      	mov	r2, r4
 23fbadc:	462b      	mov	r3, r5
 23fbade:	f7fa fc97 	bl	23f6410 <__aeabi_dmul>
 23fbae2:	a373      	add	r3, pc, #460	; (adr r3, 23fbcb0 <__kernel_cos+0x248>)
 23fbae4:	e9d3 2300 	ldrd	r2, r3, [r3]
 23fbae8:	f7fa fada 	bl	23f60a0 <__aeabi_dsub>
 23fbaec:	4622      	mov	r2, r4
 23fbaee:	462b      	mov	r3, r5
 23fbaf0:	f7fa fc8e 	bl	23f6410 <__aeabi_dmul>
 23fbaf4:	a370      	add	r3, pc, #448	; (adr r3, 23fbcb8 <__kernel_cos+0x250>)
 23fbaf6:	e9d3 2300 	ldrd	r2, r3, [r3]
 23fbafa:	f7fa fad3 	bl	23f60a4 <__adddf3>
 23fbafe:	4622      	mov	r2, r4
 23fbb00:	462b      	mov	r3, r5
 23fbb02:	f7fa fc85 	bl	23f6410 <__aeabi_dmul>
 23fbb06:	ec41 0b18 	vmov	d8, r0, r1
 23fbb0a:	2200      	movs	r2, #0
 23fbb0c:	4b70      	ldr	r3, [pc, #448]	; (23fbcd0 <__kernel_cos+0x268>)
 23fbb0e:	4620      	mov	r0, r4
 23fbb10:	4629      	mov	r1, r5
 23fbb12:	f7fa fc7d 	bl	23f6410 <__aeabi_dmul>
 23fbb16:	4680      	mov	r8, r0
 23fbb18:	4689      	mov	r9, r1
 23fbb1a:	4620      	mov	r0, r4
 23fbb1c:	4629      	mov	r1, r5
 23fbb1e:	ec53 2b18 	vmov	r2, r3, d8
 23fbb22:	f7fa fc75 	bl	23f6410 <__aeabi_dmul>
 23fbb26:	4604      	mov	r4, r0
 23fbb28:	460d      	mov	r5, r1
 23fbb2a:	4652      	mov	r2, sl
 23fbb2c:	465b      	mov	r3, fp
 23fbb2e:	4630      	mov	r0, r6
 23fbb30:	4639      	mov	r1, r7
 23fbb32:	f7fa fc6d 	bl	23f6410 <__aeabi_dmul>
 23fbb36:	4602      	mov	r2, r0
 23fbb38:	460b      	mov	r3, r1
 23fbb3a:	4620      	mov	r0, r4
 23fbb3c:	4629      	mov	r1, r5
 23fbb3e:	f7fa faaf 	bl	23f60a0 <__aeabi_dsub>
 23fbb42:	4602      	mov	r2, r0
 23fbb44:	460b      	mov	r3, r1
 23fbb46:	4640      	mov	r0, r8
 23fbb48:	4649      	mov	r1, r9
 23fbb4a:	f7fa faa9 	bl	23f60a0 <__aeabi_dsub>
 23fbb4e:	4602      	mov	r2, r0
 23fbb50:	460b      	mov	r3, r1
 23fbb52:	2000      	movs	r0, #0
 23fbb54:	495f      	ldr	r1, [pc, #380]	; (23fbcd4 <__kernel_cos+0x26c>)
 23fbb56:	f7fa faa3 	bl	23f60a0 <__aeabi_dsub>
 23fbb5a:	ecbd 8b04 	vpop	{d8-d9}
 23fbb5e:	ec41 0b10 	vmov	d0, r0, r1
 23fbb62:	e8bd 8ff8 	ldmia.w	sp!, {r3, r4, r5, r6, r7, r8, r9, sl, fp, pc}
 23fbb66:	ee10 2a10 	vmov	r2, s0
 23fbb6a:	ee10 0a10 	vmov	r0, s0
 23fbb6e:	463b      	mov	r3, r7
 23fbb70:	4639      	mov	r1, r7
 23fbb72:	f7fa fc4d 	bl	23f6410 <__aeabi_dmul>
 23fbb76:	4604      	mov	r4, r0
 23fbb78:	460d      	mov	r5, r1
 23fbb7a:	a345      	add	r3, pc, #276	; (adr r3, 23fbc90 <__kernel_cos+0x228>)
 23fbb7c:	e9d3 2300 	ldrd	r2, r3, [r3]
 23fbb80:	f7fa fc46 	bl	23f6410 <__aeabi_dmul>
 23fbb84:	a344      	add	r3, pc, #272	; (adr r3, 23fbc98 <__kernel_cos+0x230>)
 23fbb86:	e9d3 2300 	ldrd	r2, r3, [r3]
 23fbb8a:	f7fa fa8b 	bl	23f60a4 <__adddf3>
 23fbb8e:	4622      	mov	r2, r4
 23fbb90:	462b      	mov	r3, r5
 23fbb92:	f7fa fc3d 	bl	23f6410 <__aeabi_dmul>
 23fbb96:	a342      	add	r3, pc, #264	; (adr r3, 23fbca0 <__kernel_cos+0x238>)
 23fbb98:	e9d3 2300 	ldrd	r2, r3, [r3]
 23fbb9c:	f7fa fa80 	bl	23f60a0 <__aeabi_dsub>
 23fbba0:	4622      	mov	r2, r4
 23fbba2:	462b      	mov	r3, r5
 23fbba4:	f7fa fc34 	bl	23f6410 <__aeabi_dmul>
 23fbba8:	a33f      	add	r3, pc, #252	; (adr r3, 23fbca8 <__kernel_cos+0x240>)
 23fbbaa:	e9d3 2300 	ldrd	r2, r3, [r3]
 23fbbae:	f7fa fa79 	bl	23f60a4 <__adddf3>
 23fbbb2:	4622      	mov	r2, r4
 23fbbb4:	462b      	mov	r3, r5
 23fbbb6:	f7fa fc2b 	bl	23f6410 <__aeabi_dmul>
 23fbbba:	a33d      	add	r3, pc, #244	; (adr r3, 23fbcb0 <__kernel_cos+0x248>)
 23fbbbc:	e9d3 2300 	ldrd	r2, r3, [r3]
 23fbbc0:	f7fa fa6e 	bl	23f60a0 <__aeabi_dsub>
 23fbbc4:	4622      	mov	r2, r4
 23fbbc6:	462b      	mov	r3, r5
 23fbbc8:	f7fa fc22 	bl	23f6410 <__aeabi_dmul>
 23fbbcc:	a33a      	add	r3, pc, #232	; (adr r3, 23fbcb8 <__kernel_cos+0x250>)
 23fbbce:	e9d3 2300 	ldrd	r2, r3, [r3]
 23fbbd2:	f7fa fa67 	bl	23f60a4 <__adddf3>
 23fbbd6:	462b      	mov	r3, r5
 23fbbd8:	4622      	mov	r2, r4
 23fbbda:	f7fa fc19 	bl	23f6410 <__aeabi_dmul>
 23fbbde:	4b3e      	ldr	r3, [pc, #248]	; (23fbcd8 <__kernel_cos+0x270>)
 23fbbe0:	4599      	cmp	r9, r3
 23fbbe2:	ec41 0b18 	vmov	d8, r0, r1
 23fbbe6:	dd90      	ble.n	23fbb0a <__kernel_cos+0xa2>
 23fbbe8:	4b3c      	ldr	r3, [pc, #240]	; (23fbcdc <__kernel_cos+0x274>)
 23fbbea:	4599      	cmp	r9, r3
 23fbbec:	dc3c      	bgt.n	23fbc68 <__kernel_cos+0x200>
 23fbbee:	2200      	movs	r2, #0
 23fbbf0:	f5a9 1300 	sub.w	r3, r9, #2097152	; 0x200000
 23fbbf4:	2000      	movs	r0, #0
 23fbbf6:	4937      	ldr	r1, [pc, #220]	; (23fbcd4 <__kernel_cos+0x26c>)
 23fbbf8:	4690      	mov	r8, r2
 23fbbfa:	4699      	mov	r9, r3
 23fbbfc:	f7fa fa50 	bl	23f60a0 <__aeabi_dsub>
 23fbc00:	ec41 0b19 	vmov	d9, r0, r1
 23fbc04:	2200      	movs	r2, #0
 23fbc06:	4b32      	ldr	r3, [pc, #200]	; (23fbcd0 <__kernel_cos+0x268>)
 23fbc08:	4620      	mov	r0, r4
 23fbc0a:	4629      	mov	r1, r5
 23fbc0c:	f7fa fc00 	bl	23f6410 <__aeabi_dmul>
 23fbc10:	4642      	mov	r2, r8
 23fbc12:	464b      	mov	r3, r9
 23fbc14:	f7fa fa44 	bl	23f60a0 <__aeabi_dsub>
 23fbc18:	4680      	mov	r8, r0
 23fbc1a:	4689      	mov	r9, r1
 23fbc1c:	4620      	mov	r0, r4
 23fbc1e:	4629      	mov	r1, r5
 23fbc20:	ec53 2b18 	vmov	r2, r3, d8
 23fbc24:	f7fa fbf4 	bl	23f6410 <__aeabi_dmul>
 23fbc28:	4604      	mov	r4, r0
 23fbc2a:	460d      	mov	r5, r1
 23fbc2c:	4652      	mov	r2, sl
 23fbc2e:	465b      	mov	r3, fp
 23fbc30:	4630      	mov	r0, r6
 23fbc32:	4639      	mov	r1, r7
 23fbc34:	f7fa fbec 	bl	23f6410 <__aeabi_dmul>
 23fbc38:	4602      	mov	r2, r0
 23fbc3a:	460b      	mov	r3, r1
 23fbc3c:	4620      	mov	r0, r4
 23fbc3e:	4629      	mov	r1, r5
 23fbc40:	f7fa fa2e 	bl	23f60a0 <__aeabi_dsub>
 23fbc44:	4602      	mov	r2, r0
 23fbc46:	460b      	mov	r3, r1
 23fbc48:	4640      	mov	r0, r8
 23fbc4a:	4649      	mov	r1, r9
 23fbc4c:	f7fa fa28 	bl	23f60a0 <__aeabi_dsub>
 23fbc50:	4602      	mov	r2, r0
 23fbc52:	460b      	mov	r3, r1
 23fbc54:	ec51 0b19 	vmov	r0, r1, d9
 23fbc58:	f7fa fa22 	bl	23f60a0 <__aeabi_dsub>
 23fbc5c:	ecbd 8b04 	vpop	{d8-d9}
 23fbc60:	ec41 0b10 	vmov	d0, r0, r1
 23fbc64:	e8bd 8ff8 	ldmia.w	sp!, {r3, r4, r5, r6, r7, r8, r9, sl, fp, pc}
 23fbc68:	ed9f 7b15 	vldr	d7, [pc, #84]	; 23fbcc0 <__kernel_cos+0x258>
 23fbc6c:	f04f 0800 	mov.w	r8, #0
 23fbc70:	f8df 906c 	ldr.w	r9, [pc, #108]	; 23fbce0 <__kernel_cos+0x278>
 23fbc74:	eeb0 9a47 	vmov.f32	s18, s14
 23fbc78:	eef0 9a67 	vmov.f32	s19, s15
 23fbc7c:	e7c2      	b.n	23fbc04 <__kernel_cos+0x19c>
 23fbc7e:	ecbd 8b04 	vpop	{d8-d9}
 23fbc82:	ed9f 0b11 	vldr	d0, [pc, #68]	; 23fbcc8 <__kernel_cos+0x260>
 23fbc86:	e8bd 8ff8 	ldmia.w	sp!, {r3, r4, r5, r6, r7, r8, r9, sl, fp, pc}
 23fbc8a:	bf00      	nop
 23fbc8c:	f3af 8000 	nop.w
 23fbc90:	be8838d4 	.word	0xbe8838d4
 23fbc94:	bda8fae9 	.word	0xbda8fae9
 23fbc98:	bdb4b1c4 	.word	0xbdb4b1c4
 23fbc9c:	3e21ee9e 	.word	0x3e21ee9e
 23fbca0:	809c52ad 	.word	0x809c52ad
 23fbca4:	3e927e4f 	.word	0x3e927e4f
 23fbca8:	19cb1590 	.word	0x19cb1590
 23fbcac:	3efa01a0 	.word	0x3efa01a0
 23fbcb0:	16c15177 	.word	0x16c15177
 23fbcb4:	3f56c16c 	.word	0x3f56c16c
 23fbcb8:	5555554c 	.word	0x5555554c
 23fbcbc:	3fa55555 	.word	0x3fa55555
 23fbcc0:	00000000 	.word	0x00000000
 23fbcc4:	3fe70000 	.word	0x3fe70000
 23fbcc8:	00000000 	.word	0x00000000
 23fbccc:	3ff00000 	.word	0x3ff00000
 23fbcd0:	3fe00000 	.word	0x3fe00000
 23fbcd4:	3ff00000 	.word	0x3ff00000
 23fbcd8:	3fd33332 	.word	0x3fd33332
 23fbcdc:	3fe90000 	.word	0x3fe90000
 23fbce0:	3fd20000 	.word	0x3fd20000
 23fbce4:	00000000 	.word	0x00000000

023fbce8 <__kernel_rem_pio2>:
 23fbce8:	e92d 4ff0 	stmdb	sp!, {r4, r5, r6, r7, r8, r9, sl, fp, lr}
 23fbcec:	f5ad 7d19 	sub.w	sp, sp, #612	; 0x264
 23fbcf0:	461c      	mov	r4, r3
 23fbcf2:	f112 0f14 	cmn.w	r2, #20
 23fbcf6:	9308      	str	r3, [sp, #32]
 23fbcf8:	910b      	str	r1, [sp, #44]	; 0x2c
 23fbcfa:	4bb6      	ldr	r3, [pc, #728]	; (23fbfd4 <__kernel_rem_pio2+0x2ec>)
 23fbcfc:	99a2      	ldr	r1, [sp, #648]	; 0x288
 23fbcfe:	9004      	str	r0, [sp, #16]
 23fbd00:	f853 1021 	ldr.w	r1, [r3, r1, lsl #2]
 23fbd04:	f104 33ff 	add.w	r3, r4, #4294967295
 23fbd08:	9105      	str	r1, [sp, #20]
 23fbd0a:	9303      	str	r3, [sp, #12]
 23fbd0c:	f2c0 833a 	blt.w	23fc384 <__kernel_rem_pio2+0x69c>
 23fbd10:	1ed3      	subs	r3, r2, #3
 23fbd12:	49b1      	ldr	r1, [pc, #708]	; (23fbfd8 <__kernel_rem_pio2+0x2f0>)
 23fbd14:	fb81 0103 	smull	r0, r1, r1, r3
 23fbd18:	17db      	asrs	r3, r3, #31
 23fbd1a:	ebc3 03a1 	rsb	r3, r3, r1, asr #2
 23fbd1e:	9307      	str	r3, [sp, #28]
 23fbd20:	3301      	adds	r3, #1
 23fbd22:	eba3 0383 	sub.w	r3, r3, r3, lsl #2
 23fbd26:	00db      	lsls	r3, r3, #3
 23fbd28:	18d3      	adds	r3, r2, r3
 23fbd2a:	9a07      	ldr	r2, [sp, #28]
 23fbd2c:	9306      	str	r3, [sp, #24]
 23fbd2e:	9b03      	ldr	r3, [sp, #12]
 23fbd30:	1ad4      	subs	r4, r2, r3
 23fbd32:	9a05      	ldr	r2, [sp, #20]
 23fbd34:	18d6      	adds	r6, r2, r3
 23fbd36:	d414      	bmi.n	23fbd62 <__kernel_rem_pio2+0x7a>
 23fbd38:	3601      	adds	r6, #1
 23fbd3a:	ad20      	add	r5, sp, #128	; 0x80
 23fbd3c:	f04f 0800 	mov.w	r8, #0
 23fbd40:	f04f 0900 	mov.w	r9, #0
 23fbd44:	4426      	add	r6, r4
 23fbd46:	9fa3      	ldr	r7, [sp, #652]	; 0x28c
 23fbd48:	2c00      	cmp	r4, #0
 23fbd4a:	4640      	mov	r0, r8
 23fbd4c:	4649      	mov	r1, r9
 23fbd4e:	db03      	blt.n	23fbd58 <__kernel_rem_pio2+0x70>
 23fbd50:	f857 0024 	ldr.w	r0, [r7, r4, lsl #2]
 23fbd54:	f7fa faf2 	bl	23f633c <__aeabi_i2d>
 23fbd58:	3401      	adds	r4, #1
 23fbd5a:	42b4      	cmp	r4, r6
 23fbd5c:	e8e5 0102 	strd	r0, r1, [r5], #8
 23fbd60:	d1f2      	bne.n	23fbd48 <__kernel_rem_pio2+0x60>
 23fbd62:	9b05      	ldr	r3, [sp, #20]
 23fbd64:	2b00      	cmp	r3, #0
 23fbd66:	f2c0 83c7 	blt.w	23fc4f8 <__kernel_rem_pio2+0x810>
 23fbd6a:	9b08      	ldr	r3, [sp, #32]
 23fbd6c:	a920      	add	r1, sp, #128	; 0x80
 23fbd6e:	f50d 7be0 	add.w	fp, sp, #448	; 0x1c0
 23fbd72:	f8dd 900c 	ldr.w	r9, [sp, #12]
 23fbd76:	00da      	lsls	r2, r3, #3
 23fbd78:	eb01 0ac3 	add.w	sl, r1, r3, lsl #3
 23fbd7c:	9202      	str	r2, [sp, #8]
 23fbd7e:	9a05      	ldr	r2, [sp, #20]
 23fbd80:	441a      	add	r2, r3
 23fbd82:	9201      	str	r2, [sp, #4]
 23fbd84:	9a04      	ldr	r2, [sp, #16]
 23fbd86:	eb02 08c3 	add.w	r8, r2, r3, lsl #3
 23fbd8a:	9b03      	ldr	r3, [sp, #12]
 23fbd8c:	2b00      	cmp	r3, #0
 23fbd8e:	f2c0 81a6 	blt.w	23fc0de <__kernel_rem_pio2+0x3f6>
 23fbd92:	4657      	mov	r7, sl
 23fbd94:	9e04      	ldr	r6, [sp, #16]
 23fbd96:	2400      	movs	r4, #0
 23fbd98:	2500      	movs	r5, #0
 23fbd9a:	e977 2302 	ldrd	r2, r3, [r7, #-8]!
 23fbd9e:	e8f6 0102 	ldrd	r0, r1, [r6], #8
 23fbda2:	f7fa fb35 	bl	23f6410 <__aeabi_dmul>
 23fbda6:	4602      	mov	r2, r0
 23fbda8:	460b      	mov	r3, r1
 23fbdaa:	4620      	mov	r0, r4
 23fbdac:	4629      	mov	r1, r5
 23fbdae:	f7fa f979 	bl	23f60a4 <__adddf3>
 23fbdb2:	4546      	cmp	r6, r8
 23fbdb4:	4604      	mov	r4, r0
 23fbdb6:	460d      	mov	r5, r1
 23fbdb8:	d1ef      	bne.n	23fbd9a <__kernel_rem_pio2+0xb2>
 23fbdba:	f109 0901 	add.w	r9, r9, #1
 23fbdbe:	9b01      	ldr	r3, [sp, #4]
 23fbdc0:	f10a 0a08 	add.w	sl, sl, #8
 23fbdc4:	4599      	cmp	r9, r3
 23fbdc6:	e8eb 4502 	strd	r4, r5, [fp], #8
 23fbdca:	d1de      	bne.n	23fbd8a <__kernel_rem_pio2+0xa2>
 23fbdcc:	9a04      	ldr	r2, [sp, #16]
 23fbdce:	a90b      	add	r1, sp, #44	; 0x2c
 23fbdd0:	9b02      	ldr	r3, [sp, #8]
 23fbdd2:	4413      	add	r3, r2
 23fbdd4:	469b      	mov	fp, r3
 23fbdd6:	9b05      	ldr	r3, [sp, #20]
 23fbdd8:	eb01 0283 	add.w	r2, r1, r3, lsl #2
 23fbddc:	a90c      	add	r1, sp, #48	; 0x30
 23fbdde:	920a      	str	r2, [sp, #40]	; 0x28
 23fbde0:	461a      	mov	r2, r3
 23fbde2:	eb01 0383 	add.w	r3, r1, r3, lsl #2
 23fbde6:	9201      	str	r2, [sp, #4]
 23fbde8:	3b08      	subs	r3, #8
 23fbdea:	9309      	str	r3, [sp, #36]	; 0x24
 23fbdec:	9a01      	ldr	r2, [sp, #4]
 23fbdee:	a998      	add	r1, sp, #608	; 0x260
 23fbdf0:	2a00      	cmp	r2, #0
 23fbdf2:	eb01 03c2 	add.w	r3, r1, r2, lsl #3
 23fbdf6:	e953 4528 	ldrd	r4, r5, [r3, #-160]	; 0xa0
 23fbdfa:	dd29      	ble.n	23fbe50 <__kernel_rem_pio2+0x168>
 23fbdfc:	f50d 7ae0 	add.w	sl, sp, #448	; 0x1c0
 23fbe00:	f10d 0930 	add.w	r9, sp, #48	; 0x30
 23fbe04:	eb0a 08c2 	add.w	r8, sl, r2, lsl #3
 23fbe08:	2200      	movs	r2, #0
 23fbe0a:	4b74      	ldr	r3, [pc, #464]	; (23fbfdc <__kernel_rem_pio2+0x2f4>)
 23fbe0c:	4620      	mov	r0, r4
 23fbe0e:	4629      	mov	r1, r5
 23fbe10:	f7fa fafe 	bl	23f6410 <__aeabi_dmul>
 23fbe14:	f7fa fdac 	bl	23f6970 <__aeabi_d2iz>
 23fbe18:	f7fa fa90 	bl	23f633c <__aeabi_i2d>
 23fbe1c:	2200      	movs	r2, #0
 23fbe1e:	4b70      	ldr	r3, [pc, #448]	; (23fbfe0 <__kernel_rem_pio2+0x2f8>)
 23fbe20:	4606      	mov	r6, r0
 23fbe22:	460f      	mov	r7, r1
 23fbe24:	f7fa faf4 	bl	23f6410 <__aeabi_dmul>
 23fbe28:	4602      	mov	r2, r0
 23fbe2a:	460b      	mov	r3, r1
 23fbe2c:	4620      	mov	r0, r4
 23fbe2e:	4629      	mov	r1, r5
 23fbe30:	f7fa f936 	bl	23f60a0 <__aeabi_dsub>
 23fbe34:	f7fa fd9c 	bl	23f6970 <__aeabi_d2iz>
 23fbe38:	4639      	mov	r1, r7
 23fbe3a:	f849 0b04 	str.w	r0, [r9], #4
 23fbe3e:	4630      	mov	r0, r6
 23fbe40:	e978 2302 	ldrd	r2, r3, [r8, #-8]!
 23fbe44:	f7fa f92e 	bl	23f60a4 <__adddf3>
 23fbe48:	4604      	mov	r4, r0
 23fbe4a:	45d0      	cmp	r8, sl
 23fbe4c:	460d      	mov	r5, r1
 23fbe4e:	d1db      	bne.n	23fbe08 <__kernel_rem_pio2+0x120>
 23fbe50:	f8dd 9018 	ldr.w	r9, [sp, #24]
 23fbe54:	ec45 4b10 	vmov	d0, r4, r5
 23fbe58:	4648      	mov	r0, r9
 23fbe5a:	f000 fced 	bl	23fc838 <scalbn>
 23fbe5e:	2200      	movs	r2, #0
 23fbe60:	f04f 537f 	mov.w	r3, #1069547520	; 0x3fc00000
 23fbe64:	ee10 0a10 	vmov	r0, s0
 23fbe68:	ec55 4b10 	vmov	r4, r5, d0
 23fbe6c:	4629      	mov	r1, r5
 23fbe6e:	f7fa facf 	bl	23f6410 <__aeabi_dmul>
 23fbe72:	ec41 0b10 	vmov	d0, r0, r1
 23fbe76:	f7fe f857 	bl	23f9f28 <floor>
 23fbe7a:	2200      	movs	r2, #0
 23fbe7c:	4b59      	ldr	r3, [pc, #356]	; (23fbfe4 <__kernel_rem_pio2+0x2fc>)
 23fbe7e:	ec51 0b10 	vmov	r0, r1, d0
 23fbe82:	f7fa fac5 	bl	23f6410 <__aeabi_dmul>
 23fbe86:	4602      	mov	r2, r0
 23fbe88:	460b      	mov	r3, r1
 23fbe8a:	4620      	mov	r0, r4
 23fbe8c:	4629      	mov	r1, r5
 23fbe8e:	f7fa f907 	bl	23f60a0 <__aeabi_dsub>
 23fbe92:	460d      	mov	r5, r1
 23fbe94:	4604      	mov	r4, r0
 23fbe96:	f7fa fd6b 	bl	23f6970 <__aeabi_d2iz>
 23fbe9a:	4680      	mov	r8, r0
 23fbe9c:	f7fa fa4e 	bl	23f633c <__aeabi_i2d>
 23fbea0:	460b      	mov	r3, r1
 23fbea2:	4602      	mov	r2, r0
 23fbea4:	4629      	mov	r1, r5
 23fbea6:	4620      	mov	r0, r4
 23fbea8:	f7fa f8fa 	bl	23f60a0 <__aeabi_dsub>
 23fbeac:	464b      	mov	r3, r9
 23fbeae:	4606      	mov	r6, r0
 23fbeb0:	460f      	mov	r7, r1
 23fbeb2:	2b00      	cmp	r3, #0
 23fbeb4:	f340 8098 	ble.w	23fbfe8 <__kernel_rem_pio2+0x300>
 23fbeb8:	9a01      	ldr	r2, [sp, #4]
 23fbeba:	a90c      	add	r1, sp, #48	; 0x30
 23fbebc:	f1c9 0318 	rsb	r3, r9, #24
 23fbec0:	f1c9 0517 	rsb	r5, r9, #23
 23fbec4:	3a01      	subs	r2, #1
 23fbec6:	f851 1022 	ldr.w	r1, [r1, r2, lsl #2]
 23fbeca:	fa41 f003 	asr.w	r0, r1, r3
 23fbece:	fa00 f303 	lsl.w	r3, r0, r3
 23fbed2:	4480      	add	r8, r0
 23fbed4:	1acb      	subs	r3, r1, r3
 23fbed6:	a90c      	add	r1, sp, #48	; 0x30
 23fbed8:	fa43 f505 	asr.w	r5, r3, r5
 23fbedc:	f841 3022 	str.w	r3, [r1, r2, lsl #2]
 23fbee0:	2d00      	cmp	r5, #0
 23fbee2:	f300 808b 	bgt.w	23fbffc <__kernel_rem_pio2+0x314>
 23fbee6:	2200      	movs	r2, #0
 23fbee8:	2300      	movs	r3, #0
 23fbeea:	4630      	mov	r0, r6
 23fbeec:	4639      	mov	r1, r7
 23fbeee:	f7fa fcf7 	bl	23f68e0 <__aeabi_dcmpeq>
 23fbef2:	2800      	cmp	r0, #0
 23fbef4:	f000 824d 	beq.w	23fc392 <__kernel_rem_pio2+0x6aa>
 23fbef8:	9a01      	ldr	r2, [sp, #4]
 23fbefa:	9b05      	ldr	r3, [sp, #20]
 23fbefc:	f102 3aff 	add.w	sl, r2, #4294967295
 23fbf00:	4553      	cmp	r3, sl
 23fbf02:	dc10      	bgt.n	23fbf26 <__kernel_rem_pio2+0x23e>
 23fbf04:	f06f 4340 	mvn.w	r3, #3221225472	; 0xc0000000
 23fbf08:	980a      	ldr	r0, [sp, #40]	; 0x28
 23fbf0a:	4413      	add	r3, r2
 23fbf0c:	aa0c      	add	r2, sp, #48	; 0x30
 23fbf0e:	eb02 0383 	add.w	r3, r2, r3, lsl #2
 23fbf12:	2200      	movs	r2, #0
 23fbf14:	f853 1904 	ldr.w	r1, [r3], #-4
 23fbf18:	4283      	cmp	r3, r0
 23fbf1a:	ea42 0201 	orr.w	r2, r2, r1
 23fbf1e:	d1f9      	bne.n	23fbf14 <__kernel_rem_pio2+0x22c>
 23fbf20:	2a00      	cmp	r2, #0
 23fbf22:	f040 80df 	bne.w	23fc0e4 <__kernel_rem_pio2+0x3fc>
 23fbf26:	9b05      	ldr	r3, [sp, #20]
 23fbf28:	aa0c      	add	r2, sp, #48	; 0x30
 23fbf2a:	3b01      	subs	r3, #1
 23fbf2c:	f852 3023 	ldr.w	r3, [r2, r3, lsl #2]
 23fbf30:	2b00      	cmp	r3, #0
 23fbf32:	f040 80cf 	bne.w	23fc0d4 <__kernel_rem_pio2+0x3ec>
 23fbf36:	9a09      	ldr	r2, [sp, #36]	; 0x24
 23fbf38:	2301      	movs	r3, #1
 23fbf3a:	f852 1904 	ldr.w	r1, [r2], #-4
 23fbf3e:	3301      	adds	r3, #1
 23fbf40:	2900      	cmp	r1, #0
 23fbf42:	d0fa      	beq.n	23fbf3a <__kernel_rem_pio2+0x252>
 23fbf44:	9a01      	ldr	r2, [sp, #4]
 23fbf46:	18d3      	adds	r3, r2, r3
 23fbf48:	9302      	str	r3, [sp, #8]
 23fbf4a:	1c53      	adds	r3, r2, #1
 23fbf4c:	4699      	mov	r9, r3
 23fbf4e:	9a01      	ldr	r2, [sp, #4]
 23fbf50:	f06f 4a40 	mvn.w	sl, #3221225472	; 0xc0000000
 23fbf54:	9908      	ldr	r1, [sp, #32]
 23fbf56:	440a      	add	r2, r1
 23fbf58:	4690      	mov	r8, r2
 23fbf5a:	9a07      	ldr	r2, [sp, #28]
 23fbf5c:	441a      	add	r2, r3
 23fbf5e:	4492      	add	sl, r2
 23fbf60:	9aa3      	ldr	r2, [sp, #652]	; 0x28c
 23fbf62:	eb02 0a8a 	add.w	sl, r2, sl, lsl #2
 23fbf66:	aa20      	add	r2, sp, #128	; 0x80
 23fbf68:	eb02 08c8 	add.w	r8, r2, r8, lsl #3
 23fbf6c:	aa70      	add	r2, sp, #448	; 0x1c0
 23fbf6e:	eb02 03c3 	add.w	r3, r2, r3, lsl #3
 23fbf72:	9301      	str	r3, [sp, #4]
 23fbf74:	f85a 0f04 	ldr.w	r0, [sl, #4]!
 23fbf78:	4647      	mov	r7, r8
 23fbf7a:	f7fa f9df 	bl	23f633c <__aeabi_i2d>
 23fbf7e:	460b      	mov	r3, r1
 23fbf80:	9903      	ldr	r1, [sp, #12]
 23fbf82:	4602      	mov	r2, r0
 23fbf84:	f108 0808 	add.w	r8, r8, #8
 23fbf88:	2900      	cmp	r1, #0
 23fbf8a:	e948 2302 	strd	r2, r3, [r8, #-8]
 23fbf8e:	db1e      	blt.n	23fbfce <__kernel_rem_pio2+0x2e6>
 23fbf90:	9e04      	ldr	r6, [sp, #16]
 23fbf92:	2400      	movs	r4, #0
 23fbf94:	2500      	movs	r5, #0
 23fbf96:	e001      	b.n	23fbf9c <__kernel_rem_pio2+0x2b4>
 23fbf98:	e977 2302 	ldrd	r2, r3, [r7, #-8]!
 23fbf9c:	e8f6 0102 	ldrd	r0, r1, [r6], #8
 23fbfa0:	f7fa fa36 	bl	23f6410 <__aeabi_dmul>
 23fbfa4:	4602      	mov	r2, r0
 23fbfa6:	460b      	mov	r3, r1
 23fbfa8:	4620      	mov	r0, r4
 23fbfaa:	4629      	mov	r1, r5
 23fbfac:	f7fa f87a 	bl	23f60a4 <__adddf3>
 23fbfb0:	455e      	cmp	r6, fp
 23fbfb2:	4604      	mov	r4, r0
 23fbfb4:	460d      	mov	r5, r1
 23fbfb6:	d1ef      	bne.n	23fbf98 <__kernel_rem_pio2+0x2b0>
 23fbfb8:	9b01      	ldr	r3, [sp, #4]
 23fbfba:	f109 0901 	add.w	r9, r9, #1
 23fbfbe:	e8e3 4502 	strd	r4, r5, [r3], #8
 23fbfc2:	9301      	str	r3, [sp, #4]
 23fbfc4:	9b02      	ldr	r3, [sp, #8]
 23fbfc6:	4599      	cmp	r9, r3
 23fbfc8:	ddd4      	ble.n	23fbf74 <__kernel_rem_pio2+0x28c>
 23fbfca:	9301      	str	r3, [sp, #4]
 23fbfcc:	e70e      	b.n	23fbdec <__kernel_rem_pio2+0x104>
 23fbfce:	2400      	movs	r4, #0
 23fbfd0:	2500      	movs	r5, #0
 23fbfd2:	e7f1      	b.n	23fbfb8 <__kernel_rem_pio2+0x2d0>
 23fbfd4:	023fff18 	.word	0x023fff18
 23fbfd8:	2aaaaaab 	.word	0x2aaaaaab
 23fbfdc:	3e700000 	.word	0x3e700000
 23fbfe0:	41700000 	.word	0x41700000
 23fbfe4:	40200000 	.word	0x40200000
 23fbfe8:	d16b      	bne.n	23fc0c2 <__kernel_rem_pio2+0x3da>
 23fbfea:	9b01      	ldr	r3, [sp, #4]
 23fbfec:	aa0c      	add	r2, sp, #48	; 0x30
 23fbfee:	3b01      	subs	r3, #1
 23fbff0:	f852 5023 	ldr.w	r5, [r2, r3, lsl #2]
 23fbff4:	15ed      	asrs	r5, r5, #23
 23fbff6:	2d00      	cmp	r5, #0
 23fbff8:	f77f af75 	ble.w	23fbee6 <__kernel_rem_pio2+0x1fe>
 23fbffc:	9b01      	ldr	r3, [sp, #4]
 23fbffe:	f108 0801 	add.w	r8, r8, #1
 23fc002:	2b00      	cmp	r3, #0
 23fc004:	f340 81c3 	ble.w	23fc38e <__kernel_rem_pio2+0x6a6>
 23fc008:	9c0c      	ldr	r4, [sp, #48]	; 0x30
 23fc00a:	2c00      	cmp	r4, #0
 23fc00c:	d151      	bne.n	23fc0b2 <__kernel_rem_pio2+0x3ca>
 23fc00e:	9b01      	ldr	r3, [sp, #4]
 23fc010:	2b01      	cmp	r3, #1
 23fc012:	d020      	beq.n	23fc056 <__kernel_rem_pio2+0x36e>
 23fc014:	ab0c      	add	r3, sp, #48	; 0x30
 23fc016:	2201      	movs	r2, #1
 23fc018:	f853 4f04 	ldr.w	r4, [r3, #4]!
 23fc01c:	2c00      	cmp	r4, #0
 23fc01e:	d04b      	beq.n	23fc0b8 <__kernel_rem_pio2+0x3d0>
 23fc020:	1c53      	adds	r3, r2, #1
 23fc022:	a90c      	add	r1, sp, #48	; 0x30
 23fc024:	f1c4 7480 	rsb	r4, r4, #16777216	; 0x1000000
 23fc028:	f841 4022 	str.w	r4, [r1, r2, lsl #2]
 23fc02c:	9901      	ldr	r1, [sp, #4]
 23fc02e:	4299      	cmp	r1, r3
 23fc030:	dd10      	ble.n	23fc054 <__kernel_rem_pio2+0x36c>
 23fc032:	a80c      	add	r0, sp, #48	; 0x30
 23fc034:	aa0c      	add	r2, sp, #48	; 0x30
 23fc036:	f852 2023 	ldr.w	r2, [r2, r3, lsl #2]
 23fc03a:	eb00 0383 	add.w	r3, r0, r3, lsl #2
 23fc03e:	eb00 0081 	add.w	r0, r0, r1, lsl #2
 23fc042:	f06f 417f 	mvn.w	r1, #4278190080	; 0xff000000
 23fc046:	e000      	b.n	23fc04a <__kernel_rem_pio2+0x362>
 23fc048:	681a      	ldr	r2, [r3, #0]
 23fc04a:	1a8a      	subs	r2, r1, r2
 23fc04c:	f843 2b04 	str.w	r2, [r3], #4
 23fc050:	4283      	cmp	r3, r0
 23fc052:	d1f9      	bne.n	23fc048 <__kernel_rem_pio2+0x360>
 23fc054:	2401      	movs	r4, #1
 23fc056:	9b06      	ldr	r3, [sp, #24]
 23fc058:	2b00      	cmp	r3, #0
 23fc05a:	dd0e      	ble.n	23fc07a <__kernel_rem_pio2+0x392>
 23fc05c:	2b01      	cmp	r3, #1
 23fc05e:	f000 816b 	beq.w	23fc338 <__kernel_rem_pio2+0x650>
 23fc062:	2b02      	cmp	r3, #2
 23fc064:	d109      	bne.n	23fc07a <__kernel_rem_pio2+0x392>
 23fc066:	9b01      	ldr	r3, [sp, #4]
 23fc068:	a90c      	add	r1, sp, #48	; 0x30
 23fc06a:	1e5a      	subs	r2, r3, #1
 23fc06c:	ab0c      	add	r3, sp, #48	; 0x30
 23fc06e:	f853 3022 	ldr.w	r3, [r3, r2, lsl #2]
 23fc072:	f3c3 0315 	ubfx	r3, r3, #0, #22
 23fc076:	f841 3022 	str.w	r3, [r1, r2, lsl #2]
 23fc07a:	2d02      	cmp	r5, #2
 23fc07c:	f47f af33 	bne.w	23fbee6 <__kernel_rem_pio2+0x1fe>
 23fc080:	4632      	mov	r2, r6
 23fc082:	463b      	mov	r3, r7
 23fc084:	2000      	movs	r0, #0
 23fc086:	49b6      	ldr	r1, [pc, #728]	; (23fc360 <__kernel_rem_pio2+0x678>)
 23fc088:	f7fa f80a 	bl	23f60a0 <__aeabi_dsub>
 23fc08c:	4606      	mov	r6, r0
 23fc08e:	460f      	mov	r7, r1
 23fc090:	2c00      	cmp	r4, #0
 23fc092:	f43f af28 	beq.w	23fbee6 <__kernel_rem_pio2+0x1fe>
 23fc096:	9806      	ldr	r0, [sp, #24]
 23fc098:	ed9f 0bad 	vldr	d0, [pc, #692]	; 23fc350 <__kernel_rem_pio2+0x668>
 23fc09c:	f000 fbcc 	bl	23fc838 <scalbn>
 23fc0a0:	4630      	mov	r0, r6
 23fc0a2:	4639      	mov	r1, r7
 23fc0a4:	ec53 2b10 	vmov	r2, r3, d0
 23fc0a8:	f7f9 fffa 	bl	23f60a0 <__aeabi_dsub>
 23fc0ac:	4606      	mov	r6, r0
 23fc0ae:	460f      	mov	r7, r1
 23fc0b0:	e719      	b.n	23fbee6 <__kernel_rem_pio2+0x1fe>
 23fc0b2:	2301      	movs	r3, #1
 23fc0b4:	2200      	movs	r2, #0
 23fc0b6:	e7b4      	b.n	23fc022 <__kernel_rem_pio2+0x33a>
 23fc0b8:	3201      	adds	r2, #1
 23fc0ba:	9901      	ldr	r1, [sp, #4]
 23fc0bc:	428a      	cmp	r2, r1
 23fc0be:	d1ab      	bne.n	23fc018 <__kernel_rem_pio2+0x330>
 23fc0c0:	e7c9      	b.n	23fc056 <__kernel_rem_pio2+0x36e>
 23fc0c2:	2200      	movs	r2, #0
 23fc0c4:	4ba7      	ldr	r3, [pc, #668]	; (23fc364 <__kernel_rem_pio2+0x67c>)
 23fc0c6:	f7fa fc29 	bl	23f691c <__aeabi_dcmpge>
 23fc0ca:	2800      	cmp	r0, #0
 23fc0cc:	f040 8152 	bne.w	23fc374 <__kernel_rem_pio2+0x68c>
 23fc0d0:	4605      	mov	r5, r0
 23fc0d2:	e708      	b.n	23fbee6 <__kernel_rem_pio2+0x1fe>
 23fc0d4:	9b01      	ldr	r3, [sp, #4]
 23fc0d6:	3301      	adds	r3, #1
 23fc0d8:	4699      	mov	r9, r3
 23fc0da:	9302      	str	r3, [sp, #8]
 23fc0dc:	e737      	b.n	23fbf4e <__kernel_rem_pio2+0x266>
 23fc0de:	2400      	movs	r4, #0
 23fc0e0:	2500      	movs	r5, #0
 23fc0e2:	e66a      	b.n	23fbdba <__kernel_rem_pio2+0xd2>
 23fc0e4:	9b06      	ldr	r3, [sp, #24]
 23fc0e6:	9503      	str	r5, [sp, #12]
 23fc0e8:	f1a3 0218 	sub.w	r2, r3, #24
 23fc0ec:	ab0c      	add	r3, sp, #48	; 0x30
 23fc0ee:	f8cd 801c 	str.w	r8, [sp, #28]
 23fc0f2:	f853 302a 	ldr.w	r3, [r3, sl, lsl #2]
 23fc0f6:	9206      	str	r2, [sp, #24]
 23fc0f8:	b973      	cbnz	r3, 23fc118 <__kernel_rem_pio2+0x430>
 23fc0fa:	4b9b      	ldr	r3, [pc, #620]	; (23fc368 <__kernel_rem_pio2+0x680>)
 23fc0fc:	9901      	ldr	r1, [sp, #4]
 23fc0fe:	4419      	add	r1, r3
 23fc100:	460b      	mov	r3, r1
 23fc102:	a90c      	add	r1, sp, #48	; 0x30
 23fc104:	eb01 0383 	add.w	r3, r1, r3, lsl #2
 23fc108:	f853 1904 	ldr.w	r1, [r3], #-4
 23fc10c:	f10a 3aff 	add.w	sl, sl, #4294967295
 23fc110:	3a18      	subs	r2, #24
 23fc112:	2900      	cmp	r1, #0
 23fc114:	d0f8      	beq.n	23fc108 <__kernel_rem_pio2+0x420>
 23fc116:	9206      	str	r2, [sp, #24]
 23fc118:	9806      	ldr	r0, [sp, #24]
 23fc11a:	ed9f 0b8d 	vldr	d0, [pc, #564]	; 23fc350 <__kernel_rem_pio2+0x668>
 23fc11e:	f000 fb8b 	bl	23fc838 <scalbn>
 23fc122:	f1ba 0f00 	cmp.w	sl, #0
 23fc126:	ec55 4b10 	vmov	r4, r5, d0
 23fc12a:	f2c0 81db 	blt.w	23fc4e4 <__kernel_rem_pio2+0x7fc>
 23fc12e:	ab70      	add	r3, sp, #448	; 0x1c0
 23fc130:	ea4f 02ca 	mov.w	r2, sl, lsl #3
 23fc134:	f04f 0800 	mov.w	r8, #0
 23fc138:	f8df 9230 	ldr.w	r9, [pc, #560]	; 23fc36c <__kernel_rem_pio2+0x684>
 23fc13c:	eb03 0bca 	add.w	fp, r3, sl, lsl #3
 23fc140:	9204      	str	r2, [sp, #16]
 23fc142:	f10a 0301 	add.w	r3, sl, #1
 23fc146:	aa0c      	add	r2, sp, #48	; 0x30
 23fc148:	f10b 0708 	add.w	r7, fp, #8
 23fc14c:	eb02 0683 	add.w	r6, r2, r3, lsl #2
 23fc150:	9306      	str	r3, [sp, #24]
 23fc152:	f856 0d04 	ldr.w	r0, [r6, #-4]!
 23fc156:	f7fa f8f1 	bl	23f633c <__aeabi_i2d>
 23fc15a:	4622      	mov	r2, r4
 23fc15c:	462b      	mov	r3, r5
 23fc15e:	f7fa f957 	bl	23f6410 <__aeabi_dmul>
 23fc162:	464b      	mov	r3, r9
 23fc164:	4642      	mov	r2, r8
 23fc166:	e967 0102 	strd	r0, r1, [r7, #-8]!
 23fc16a:	4620      	mov	r0, r4
 23fc16c:	4629      	mov	r1, r5
 23fc16e:	f7fa f94f 	bl	23f6410 <__aeabi_dmul>
 23fc172:	ab0c      	add	r3, sp, #48	; 0x30
 23fc174:	4604      	mov	r4, r0
 23fc176:	460d      	mov	r5, r1
 23fc178:	429e      	cmp	r6, r3
 23fc17a:	d1ea      	bne.n	23fc152 <__kernel_rem_pio2+0x46a>
 23fc17c:	ab48      	add	r3, sp, #288	; 0x120
 23fc17e:	f04f 0900 	mov.w	r9, #0
 23fc182:	e9cd 3a01 	strd	r3, sl, [sp, #4]
 23fc186:	f8dd a014 	ldr.w	sl, [sp, #20]
 23fc18a:	f1ba 0f00 	cmp.w	sl, #0
 23fc18e:	db2c      	blt.n	23fc1ea <__kernel_rem_pio2+0x502>
 23fc190:	f8df 81dc 	ldr.w	r8, [pc, #476]	; 23fc370 <__kernel_rem_pio2+0x688>
 23fc194:	465f      	mov	r7, fp
 23fc196:	2600      	movs	r6, #0
 23fc198:	2400      	movs	r4, #0
 23fc19a:	2500      	movs	r5, #0
 23fc19c:	a36e      	add	r3, pc, #440	; (adr r3, 23fc358 <__kernel_rem_pio2+0x670>)
 23fc19e:	e9d3 2300 	ldrd	r2, r3, [r3]
 23fc1a2:	e003      	b.n	23fc1ac <__kernel_rem_pio2+0x4c4>
 23fc1a4:	45b1      	cmp	r9, r6
 23fc1a6:	db10      	blt.n	23fc1ca <__kernel_rem_pio2+0x4e2>
 23fc1a8:	e8f8 2302 	ldrd	r2, r3, [r8], #8
 23fc1ac:	e8f7 0102 	ldrd	r0, r1, [r7], #8
 23fc1b0:	3601      	adds	r6, #1
 23fc1b2:	f7fa f92d 	bl	23f6410 <__aeabi_dmul>
 23fc1b6:	4602      	mov	r2, r0
 23fc1b8:	460b      	mov	r3, r1
 23fc1ba:	4620      	mov	r0, r4
 23fc1bc:	4629      	mov	r1, r5
 23fc1be:	f7f9 ff71 	bl	23f60a4 <__adddf3>
 23fc1c2:	45b2      	cmp	sl, r6
 23fc1c4:	4604      	mov	r4, r0
 23fc1c6:	460d      	mov	r5, r1
 23fc1c8:	daec      	bge.n	23fc1a4 <__kernel_rem_pio2+0x4bc>
 23fc1ca:	9b01      	ldr	r3, [sp, #4]
 23fc1cc:	f1ab 0b08 	sub.w	fp, fp, #8
 23fc1d0:	9a02      	ldr	r2, [sp, #8]
 23fc1d2:	eb03 03c9 	add.w	r3, r3, r9, lsl #3
 23fc1d6:	454a      	cmp	r2, r9
 23fc1d8:	e9c3 4500 	strd	r4, r5, [r3]
 23fc1dc:	f109 0301 	add.w	r3, r9, #1
 23fc1e0:	d006      	beq.n	23fc1f0 <__kernel_rem_pio2+0x508>
 23fc1e2:	f1ba 0f00 	cmp.w	sl, #0
 23fc1e6:	4699      	mov	r9, r3
 23fc1e8:	dad2      	bge.n	23fc190 <__kernel_rem_pio2+0x4a8>
 23fc1ea:	2400      	movs	r4, #0
 23fc1ec:	2500      	movs	r5, #0
 23fc1ee:	e7ec      	b.n	23fc1ca <__kernel_rem_pio2+0x4e2>
 23fc1f0:	9ba2      	ldr	r3, [sp, #648]	; 0x288
 23fc1f2:	f8dd a008 	ldr.w	sl, [sp, #8]
 23fc1f6:	2b02      	cmp	r3, #2
 23fc1f8:	dc1e      	bgt.n	23fc238 <__kernel_rem_pio2+0x550>
 23fc1fa:	2b00      	cmp	r3, #0
 23fc1fc:	f300 80ff 	bgt.w	23fc3fe <__kernel_rem_pio2+0x716>
 23fc200:	d113      	bne.n	23fc22a <__kernel_rem_pio2+0x542>
 23fc202:	9c04      	ldr	r4, [sp, #16]
 23fc204:	2000      	movs	r0, #0
 23fc206:	9d01      	ldr	r5, [sp, #4]
 23fc208:	2100      	movs	r1, #0
 23fc20a:	3408      	adds	r4, #8
 23fc20c:	442c      	add	r4, r5
 23fc20e:	e974 2302 	ldrd	r2, r3, [r4, #-8]!
 23fc212:	f7f9 ff47 	bl	23f60a4 <__adddf3>
 23fc216:	42a5      	cmp	r5, r4
 23fc218:	d1f9      	bne.n	23fc20e <__kernel_rem_pio2+0x526>
 23fc21a:	9b03      	ldr	r3, [sp, #12]
 23fc21c:	b113      	cbz	r3, 23fc224 <__kernel_rem_pio2+0x53c>
 23fc21e:	f101 4300 	add.w	r3, r1, #2147483648	; 0x80000000
 23fc222:	4619      	mov	r1, r3
 23fc224:	9b0b      	ldr	r3, [sp, #44]	; 0x2c
 23fc226:	e9c3 0100 	strd	r0, r1, [r3]
 23fc22a:	9b07      	ldr	r3, [sp, #28]
 23fc22c:	f003 0007 	and.w	r0, r3, #7
 23fc230:	f50d 7d19 	add.w	sp, sp, #612	; 0x264
 23fc234:	e8bd 8ff0 	ldmia.w	sp!, {r4, r5, r6, r7, r8, r9, sl, fp, pc}
 23fc238:	9ba2      	ldr	r3, [sp, #648]	; 0x288
 23fc23a:	2b03      	cmp	r3, #3
 23fc23c:	d1f5      	bne.n	23fc22a <__kernel_rem_pio2+0x542>
 23fc23e:	f1ba 0f00 	cmp.w	sl, #0
 23fc242:	f000 816b 	beq.w	23fc51c <__kernel_rem_pio2+0x834>
 23fc246:	9a01      	ldr	r2, [sp, #4]
 23fc248:	9b04      	ldr	r3, [sp, #16]
 23fc24a:	eb02 0bca 	add.w	fp, r2, sl, lsl #3
 23fc24e:	18d3      	adds	r3, r2, r3
 23fc250:	e9d3 4500 	ldrd	r4, r5, [r3]
 23fc254:	e97b 6702 	ldrd	r6, r7, [fp, #-8]!
 23fc258:	4620      	mov	r0, r4
 23fc25a:	4629      	mov	r1, r5
 23fc25c:	4632      	mov	r2, r6
 23fc25e:	463b      	mov	r3, r7
 23fc260:	f7f9 ff20 	bl	23f60a4 <__adddf3>
 23fc264:	46a0      	mov	r8, r4
 23fc266:	46a9      	mov	r9, r5
 23fc268:	4604      	mov	r4, r0
 23fc26a:	460d      	mov	r5, r1
 23fc26c:	4630      	mov	r0, r6
 23fc26e:	4622      	mov	r2, r4
 23fc270:	4639      	mov	r1, r7
 23fc272:	462b      	mov	r3, r5
 23fc274:	f7f9 ff14 	bl	23f60a0 <__aeabi_dsub>
 23fc278:	464b      	mov	r3, r9
 23fc27a:	4642      	mov	r2, r8
 23fc27c:	f7f9 ff12 	bl	23f60a4 <__adddf3>
 23fc280:	9b01      	ldr	r3, [sp, #4]
 23fc282:	455b      	cmp	r3, fp
 23fc284:	e9cb 0102 	strd	r0, r1, [fp, #8]
 23fc288:	e9cb 4500 	strd	r4, r5, [fp]
 23fc28c:	d1e2      	bne.n	23fc254 <__kernel_rem_pio2+0x56c>
 23fc28e:	f1ba 0f01 	cmp.w	sl, #1
 23fc292:	f340 8143 	ble.w	23fc51c <__kernel_rem_pio2+0x834>
 23fc296:	9b04      	ldr	r3, [sp, #16]
 23fc298:	f50d 7b94 	add.w	fp, sp, #296	; 0x128
 23fc29c:	9901      	ldr	r1, [sp, #4]
 23fc29e:	461a      	mov	r2, r3
 23fc2a0:	f06f 4360 	mvn.w	r3, #3758096384	; 0xe0000000
 23fc2a4:	4453      	add	r3, sl
 23fc2a6:	440a      	add	r2, r1
 23fc2a8:	00db      	lsls	r3, r3, #3
 23fc2aa:	f103 0a08 	add.w	sl, r3, #8
 23fc2ae:	9302      	str	r3, [sp, #8]
 23fc2b0:	e9d2 4500 	ldrd	r4, r5, [r2]
 23fc2b4:	448a      	add	sl, r1
 23fc2b6:	4620      	mov	r0, r4
 23fc2b8:	4629      	mov	r1, r5
 23fc2ba:	46a0      	mov	r8, r4
 23fc2bc:	46a9      	mov	r9, r5
 23fc2be:	e97a 6702 	ldrd	r6, r7, [sl, #-8]!
 23fc2c2:	4632      	mov	r2, r6
 23fc2c4:	463b      	mov	r3, r7
 23fc2c6:	f7f9 feed 	bl	23f60a4 <__adddf3>
 23fc2ca:	4604      	mov	r4, r0
 23fc2cc:	460d      	mov	r5, r1
 23fc2ce:	4630      	mov	r0, r6
 23fc2d0:	4622      	mov	r2, r4
 23fc2d2:	4639      	mov	r1, r7
 23fc2d4:	462b      	mov	r3, r5
 23fc2d6:	f7f9 fee3 	bl	23f60a0 <__aeabi_dsub>
 23fc2da:	4642      	mov	r2, r8
 23fc2dc:	464b      	mov	r3, r9
 23fc2de:	f7f9 fee1 	bl	23f60a4 <__adddf3>
 23fc2e2:	45d3      	cmp	fp, sl
 23fc2e4:	e9ca 0102 	strd	r0, r1, [sl, #8]
 23fc2e8:	e9ca 4500 	strd	r4, r5, [sl]
 23fc2ec:	d1e3      	bne.n	23fc2b6 <__kernel_rem_pio2+0x5ce>
 23fc2ee:	9c02      	ldr	r4, [sp, #8]
 23fc2f0:	2000      	movs	r0, #0
 23fc2f2:	9b01      	ldr	r3, [sp, #4]
 23fc2f4:	2100      	movs	r1, #0
 23fc2f6:	3410      	adds	r4, #16
 23fc2f8:	f103 0510 	add.w	r5, r3, #16
 23fc2fc:	441c      	add	r4, r3
 23fc2fe:	e974 2302 	ldrd	r2, r3, [r4, #-8]!
 23fc302:	f7f9 fecf 	bl	23f60a4 <__adddf3>
 23fc306:	42a5      	cmp	r5, r4
 23fc308:	d1f9      	bne.n	23fc2fe <__kernel_rem_pio2+0x616>
 23fc30a:	9b03      	ldr	r3, [sp, #12]
 23fc30c:	2b00      	cmp	r3, #0
 23fc30e:	f040 80b4 	bne.w	23fc47a <__kernel_rem_pio2+0x792>
 23fc312:	9d01      	ldr	r5, [sp, #4]
 23fc314:	9c0b      	ldr	r4, [sp, #44]	; 0x2c
 23fc316:	e9d5 2300 	ldrd	r2, r3, [r5]
 23fc31a:	e9c4 0104 	strd	r0, r1, [r4, #16]
 23fc31e:	e9c4 2300 	strd	r2, r3, [r4]
 23fc322:	e9d5 2302 	ldrd	r2, r3, [r5, #8]
 23fc326:	e9c4 2302 	strd	r2, r3, [r4, #8]
 23fc32a:	9b07      	ldr	r3, [sp, #28]
 23fc32c:	f003 0007 	and.w	r0, r3, #7
 23fc330:	f50d 7d19 	add.w	sp, sp, #612	; 0x264
 23fc334:	e8bd 8ff0 	ldmia.w	sp!, {r4, r5, r6, r7, r8, r9, sl, fp, pc}
 23fc338:	9b01      	ldr	r3, [sp, #4]
 23fc33a:	a90c      	add	r1, sp, #48	; 0x30
 23fc33c:	1e5a      	subs	r2, r3, #1
 23fc33e:	ab0c      	add	r3, sp, #48	; 0x30
 23fc340:	f853 3022 	ldr.w	r3, [r3, r2, lsl #2]
 23fc344:	f3c3 0316 	ubfx	r3, r3, #0, #23
 23fc348:	f841 3022 	str.w	r3, [r1, r2, lsl #2]
 23fc34c:	e695      	b.n	23fc07a <__kernel_rem_pio2+0x392>
 23fc34e:	bf00      	nop
 23fc350:	00000000 	.word	0x00000000
 23fc354:	3ff00000 	.word	0x3ff00000
 23fc358:	40000000 	.word	0x40000000
 23fc35c:	3ff921fb 	.word	0x3ff921fb
 23fc360:	3ff00000 	.word	0x3ff00000
 23fc364:	3fe00000 	.word	0x3fe00000
 23fc368:	3ffffffe 	.word	0x3ffffffe
 23fc36c:	3e700000 	.word	0x3e700000
 23fc370:	023ffee0 	.word	0x023ffee0
 23fc374:	9b01      	ldr	r3, [sp, #4]
 23fc376:	f108 0801 	add.w	r8, r8, #1
 23fc37a:	2b00      	cmp	r3, #0
 23fc37c:	f340 80a8 	ble.w	23fc4d0 <__kernel_rem_pio2+0x7e8>
 23fc380:	2502      	movs	r5, #2
 23fc382:	e641      	b.n	23fc008 <__kernel_rem_pio2+0x320>
 23fc384:	2100      	movs	r1, #0
 23fc386:	f06f 0317 	mvn.w	r3, #23
 23fc38a:	9107      	str	r1, [sp, #28]
 23fc38c:	e4cc      	b.n	23fbd28 <__kernel_rem_pio2+0x40>
 23fc38e:	2400      	movs	r4, #0
 23fc390:	e661      	b.n	23fc056 <__kernel_rem_pio2+0x36e>
 23fc392:	ec47 6b10 	vmov	d0, r6, r7
 23fc396:	9e06      	ldr	r6, [sp, #24]
 23fc398:	9503      	str	r5, [sp, #12]
 23fc39a:	4270      	negs	r0, r6
 23fc39c:	f8cd 801c 	str.w	r8, [sp, #28]
 23fc3a0:	f000 fa4a 	bl	23fc838 <scalbn>
 23fc3a4:	2200      	movs	r2, #0
 23fc3a6:	4b5f      	ldr	r3, [pc, #380]	; (23fc524 <__kernel_rem_pio2+0x83c>)
 23fc3a8:	ee10 0a10 	vmov	r0, s0
 23fc3ac:	ec55 4b10 	vmov	r4, r5, d0
 23fc3b0:	4629      	mov	r1, r5
 23fc3b2:	f7fa fab3 	bl	23f691c <__aeabi_dcmpge>
 23fc3b6:	2800      	cmp	r0, #0
 23fc3b8:	d055      	beq.n	23fc466 <__kernel_rem_pio2+0x77e>
 23fc3ba:	3618      	adds	r6, #24
 23fc3bc:	2200      	movs	r2, #0
 23fc3be:	4b5a      	ldr	r3, [pc, #360]	; (23fc528 <__kernel_rem_pio2+0x840>)
 23fc3c0:	4620      	mov	r0, r4
 23fc3c2:	4629      	mov	r1, r5
 23fc3c4:	9606      	str	r6, [sp, #24]
 23fc3c6:	f7fa f823 	bl	23f6410 <__aeabi_dmul>
 23fc3ca:	9f01      	ldr	r7, [sp, #4]
 23fc3cc:	f7fa fad0 	bl	23f6970 <__aeabi_d2iz>
 23fc3d0:	4606      	mov	r6, r0
 23fc3d2:	f7f9 ffb3 	bl	23f633c <__aeabi_i2d>
 23fc3d6:	2200      	movs	r2, #0
 23fc3d8:	4b52      	ldr	r3, [pc, #328]	; (23fc524 <__kernel_rem_pio2+0x83c>)
 23fc3da:	f107 0a01 	add.w	sl, r7, #1
 23fc3de:	f7fa f817 	bl	23f6410 <__aeabi_dmul>
 23fc3e2:	460b      	mov	r3, r1
 23fc3e4:	4602      	mov	r2, r0
 23fc3e6:	4629      	mov	r1, r5
 23fc3e8:	4620      	mov	r0, r4
 23fc3ea:	f7f9 fe59 	bl	23f60a0 <__aeabi_dsub>
 23fc3ee:	f7fa fabf 	bl	23f6970 <__aeabi_d2iz>
 23fc3f2:	ab0c      	add	r3, sp, #48	; 0x30
 23fc3f4:	f843 0027 	str.w	r0, [r3, r7, lsl #2]
 23fc3f8:	f843 602a 	str.w	r6, [r3, sl, lsl #2]
 23fc3fc:	e68c      	b.n	23fc118 <__kernel_rem_pio2+0x430>
 23fc3fe:	9d01      	ldr	r5, [sp, #4]
 23fc400:	2000      	movs	r0, #0
 23fc402:	9a06      	ldr	r2, [sp, #24]
 23fc404:	2100      	movs	r1, #0
 23fc406:	eb05 04c2 	add.w	r4, r5, r2, lsl #3
 23fc40a:	e974 2302 	ldrd	r2, r3, [r4, #-8]!
 23fc40e:	f7f9 fe49 	bl	23f60a4 <__adddf3>
 23fc412:	42a5      	cmp	r5, r4
 23fc414:	d1f9      	bne.n	23fc40a <__kernel_rem_pio2+0x722>
 23fc416:	9b03      	ldr	r3, [sp, #12]
 23fc418:	2b00      	cmp	r3, #0
 23fc41a:	d149      	bne.n	23fc4b0 <__kernel_rem_pio2+0x7c8>
 23fc41c:	9b0b      	ldr	r3, [sp, #44]	; 0x2c
 23fc41e:	4602      	mov	r2, r0
 23fc420:	e9c3 0100 	strd	r0, r1, [r3]
 23fc424:	460b      	mov	r3, r1
 23fc426:	9901      	ldr	r1, [sp, #4]
 23fc428:	e9d1 0100 	ldrd	r0, r1, [r1]
 23fc42c:	f7f9 fe38 	bl	23f60a0 <__aeabi_dsub>
 23fc430:	f1ba 0f00 	cmp.w	sl, #0
 23fc434:	dd0d      	ble.n	23fc452 <__kernel_rem_pio2+0x76a>
 23fc436:	ad4a      	add	r5, sp, #296	; 0x128
 23fc438:	2401      	movs	r4, #1
 23fc43a:	3401      	adds	r4, #1
 23fc43c:	e8f5 2302 	ldrd	r2, r3, [r5], #8
 23fc440:	f7f9 fe30 	bl	23f60a4 <__adddf3>
 23fc444:	45a2      	cmp	sl, r4
 23fc446:	daf8      	bge.n	23fc43a <__kernel_rem_pio2+0x752>
 23fc448:	9b03      	ldr	r3, [sp, #12]
 23fc44a:	b113      	cbz	r3, 23fc452 <__kernel_rem_pio2+0x76a>
 23fc44c:	f101 4300 	add.w	r3, r1, #2147483648	; 0x80000000
 23fc450:	4619      	mov	r1, r3
 23fc452:	9b0b      	ldr	r3, [sp, #44]	; 0x2c
 23fc454:	e9c3 0102 	strd	r0, r1, [r3, #8]
 23fc458:	9b07      	ldr	r3, [sp, #28]
 23fc45a:	f003 0007 	and.w	r0, r3, #7
 23fc45e:	f50d 7d19 	add.w	sp, sp, #612	; 0x264
 23fc462:	e8bd 8ff0 	ldmia.w	sp!, {r4, r5, r6, r7, r8, r9, sl, fp, pc}
 23fc466:	4620      	mov	r0, r4
 23fc468:	4629      	mov	r1, r5
 23fc46a:	f7fa fa81 	bl	23f6970 <__aeabi_d2iz>
 23fc46e:	9b01      	ldr	r3, [sp, #4]
 23fc470:	aa0c      	add	r2, sp, #48	; 0x30
 23fc472:	469a      	mov	sl, r3
 23fc474:	f842 0023 	str.w	r0, [r2, r3, lsl #2]
 23fc478:	e64e      	b.n	23fc118 <__kernel_rem_pio2+0x430>
 23fc47a:	9b01      	ldr	r3, [sp, #4]
 23fc47c:	4602      	mov	r2, r0
 23fc47e:	461e      	mov	r6, r3
 23fc480:	685c      	ldr	r4, [r3, #4]
 23fc482:	68dd      	ldr	r5, [r3, #12]
 23fc484:	f101 4300 	add.w	r3, r1, #2147483648	; 0x80000000
 23fc488:	990b      	ldr	r1, [sp, #44]	; 0x2c
 23fc48a:	e9c1 2304 	strd	r2, r3, [r1, #16]
 23fc48e:	6832      	ldr	r2, [r6, #0]
 23fc490:	f104 4300 	add.w	r3, r4, #2147483648	; 0x80000000
 23fc494:	e9c1 2300 	strd	r2, r3, [r1]
 23fc498:	f105 4300 	add.w	r3, r5, #2147483648	; 0x80000000
 23fc49c:	68b2      	ldr	r2, [r6, #8]
 23fc49e:	e9c1 2302 	strd	r2, r3, [r1, #8]
 23fc4a2:	9b07      	ldr	r3, [sp, #28]
 23fc4a4:	f003 0007 	and.w	r0, r3, #7
 23fc4a8:	f50d 7d19 	add.w	sp, sp, #612	; 0x264
 23fc4ac:	e8bd 8ff0 	ldmia.w	sp!, {r4, r5, r6, r7, r8, r9, sl, fp, pc}
 23fc4b0:	9a0b      	ldr	r2, [sp, #44]	; 0x2c
 23fc4b2:	f101 4300 	add.w	r3, r1, #2147483648	; 0x80000000
 23fc4b6:	6053      	str	r3, [r2, #4]
 23fc4b8:	460b      	mov	r3, r1
 23fc4ba:	9901      	ldr	r1, [sp, #4]
 23fc4bc:	6010      	str	r0, [r2, #0]
 23fc4be:	4602      	mov	r2, r0
 23fc4c0:	e9d1 0100 	ldrd	r0, r1, [r1]
 23fc4c4:	f7f9 fdec 	bl	23f60a0 <__aeabi_dsub>
 23fc4c8:	f1ba 0f00 	cmp.w	sl, #0
 23fc4cc:	dcb3      	bgt.n	23fc436 <__kernel_rem_pio2+0x74e>
 23fc4ce:	e7bd      	b.n	23fc44c <__kernel_rem_pio2+0x764>
 23fc4d0:	4632      	mov	r2, r6
 23fc4d2:	463b      	mov	r3, r7
 23fc4d4:	2000      	movs	r0, #0
 23fc4d6:	4915      	ldr	r1, [pc, #84]	; (23fc52c <__kernel_rem_pio2+0x844>)
 23fc4d8:	f7f9 fde2 	bl	23f60a0 <__aeabi_dsub>
 23fc4dc:	2502      	movs	r5, #2
 23fc4de:	4606      	mov	r6, r0
 23fc4e0:	460f      	mov	r7, r1
 23fc4e2:	e500      	b.n	23fbee6 <__kernel_rem_pio2+0x1fe>
 23fc4e4:	9ba2      	ldr	r3, [sp, #648]	; 0x288
 23fc4e6:	2b02      	cmp	r3, #2
 23fc4e8:	dc0a      	bgt.n	23fc500 <__kernel_rem_pio2+0x818>
 23fc4ea:	2b00      	cmp	r3, #0
 23fc4ec:	dc11      	bgt.n	23fc512 <__kernel_rem_pio2+0x82a>
 23fc4ee:	f47f ae9c 	bne.w	23fc22a <__kernel_rem_pio2+0x542>
 23fc4f2:	2000      	movs	r0, #0
 23fc4f4:	2100      	movs	r1, #0
 23fc4f6:	e690      	b.n	23fc21a <__kernel_rem_pio2+0x532>
 23fc4f8:	9b08      	ldr	r3, [sp, #32]
 23fc4fa:	00db      	lsls	r3, r3, #3
 23fc4fc:	9302      	str	r3, [sp, #8]
 23fc4fe:	e465      	b.n	23fbdcc <__kernel_rem_pio2+0xe4>
 23fc500:	9ba2      	ldr	r3, [sp, #648]	; 0x288
 23fc502:	2b03      	cmp	r3, #3
 23fc504:	f47f ae91 	bne.w	23fc22a <__kernel_rem_pio2+0x542>
 23fc508:	ab48      	add	r3, sp, #288	; 0x120
 23fc50a:	2000      	movs	r0, #0
 23fc50c:	2100      	movs	r1, #0
 23fc50e:	9301      	str	r3, [sp, #4]
 23fc510:	e6fb      	b.n	23fc30a <__kernel_rem_pio2+0x622>
 23fc512:	ab48      	add	r3, sp, #288	; 0x120
 23fc514:	2000      	movs	r0, #0
 23fc516:	2100      	movs	r1, #0
 23fc518:	9301      	str	r3, [sp, #4]
 23fc51a:	e77c      	b.n	23fc416 <__kernel_rem_pio2+0x72e>
 23fc51c:	2000      	movs	r0, #0
 23fc51e:	2100      	movs	r1, #0
 23fc520:	e6f3      	b.n	23fc30a <__kernel_rem_pio2+0x622>
 23fc522:	bf00      	nop
 23fc524:	41700000 	.word	0x41700000
 23fc528:	3e700000 	.word	0x3e700000
 23fc52c:	3ff00000 	.word	0x3ff00000

023fc530 <__kernel_sin>:
 23fc530:	e92d 4ff0 	stmdb	sp!, {r4, r5, r6, r7, r8, r9, sl, fp, lr}
 23fc534:	ec5b ab10 	vmov	sl, fp, d0
 23fc538:	f02b 4300 	bic.w	r3, fp, #2147483648	; 0x80000000
 23fc53c:	4680      	mov	r8, r0
 23fc53e:	ed2d 8b02 	vpush	{d8}
 23fc542:	f1b3 5f79 	cmp.w	r3, #1044381696	; 0x3e400000
 23fc546:	b083      	sub	sp, #12
 23fc548:	ed8d 1b00 	vstr	d1, [sp]
 23fc54c:	da07      	bge.n	23fc55e <__kernel_sin+0x2e>
 23fc54e:	ee10 0a10 	vmov	r0, s0
 23fc552:	4659      	mov	r1, fp
 23fc554:	f7fa fa0c 	bl	23f6970 <__aeabi_d2iz>
 23fc558:	2800      	cmp	r0, #0
 23fc55a:	f000 808e 	beq.w	23fc67a <__kernel_sin+0x14a>
 23fc55e:	4652      	mov	r2, sl
 23fc560:	465b      	mov	r3, fp
 23fc562:	4650      	mov	r0, sl
 23fc564:	4659      	mov	r1, fp
 23fc566:	f7f9 ff53 	bl	23f6410 <__aeabi_dmul>
 23fc56a:	4604      	mov	r4, r0
 23fc56c:	460d      	mov	r5, r1
 23fc56e:	4650      	mov	r0, sl
 23fc570:	4622      	mov	r2, r4
 23fc572:	4659      	mov	r1, fp
 23fc574:	462b      	mov	r3, r5
 23fc576:	f7f9 ff4b 	bl	23f6410 <__aeabi_dmul>
 23fc57a:	4606      	mov	r6, r0
 23fc57c:	460f      	mov	r7, r1
 23fc57e:	4620      	mov	r0, r4
 23fc580:	4629      	mov	r1, r5
 23fc582:	a344      	add	r3, pc, #272	; (adr r3, 23fc694 <__kernel_sin+0x164>)
 23fc584:	e9d3 2300 	ldrd	r2, r3, [r3]
 23fc588:	f7f9 ff42 	bl	23f6410 <__aeabi_dmul>
 23fc58c:	a343      	add	r3, pc, #268	; (adr r3, 23fc69c <__kernel_sin+0x16c>)
 23fc58e:	e9d3 2300 	ldrd	r2, r3, [r3]
 23fc592:	f7f9 fd85 	bl	23f60a0 <__aeabi_dsub>
 23fc596:	4622      	mov	r2, r4
 23fc598:	462b      	mov	r3, r5
 23fc59a:	f7f9 ff39 	bl	23f6410 <__aeabi_dmul>
 23fc59e:	a341      	add	r3, pc, #260	; (adr r3, 23fc6a4 <__kernel_sin+0x174>)
 23fc5a0:	e9d3 2300 	ldrd	r2, r3, [r3]
 23fc5a4:	f7f9 fd7e 	bl	23f60a4 <__adddf3>
 23fc5a8:	4622      	mov	r2, r4
 23fc5aa:	462b      	mov	r3, r5
 23fc5ac:	f7f9 ff30 	bl	23f6410 <__aeabi_dmul>
 23fc5b0:	a33e      	add	r3, pc, #248	; (adr r3, 23fc6ac <__kernel_sin+0x17c>)
 23fc5b2:	e9d3 2300 	ldrd	r2, r3, [r3]
 23fc5b6:	f7f9 fd73 	bl	23f60a0 <__aeabi_dsub>
 23fc5ba:	4622      	mov	r2, r4
 23fc5bc:	462b      	mov	r3, r5
 23fc5be:	f7f9 ff27 	bl	23f6410 <__aeabi_dmul>
 23fc5c2:	a33c      	add	r3, pc, #240	; (adr r3, 23fc6b4 <__kernel_sin+0x184>)
 23fc5c4:	e9d3 2300 	ldrd	r2, r3, [r3]
 23fc5c8:	f7f9 fd6c 	bl	23f60a4 <__adddf3>
 23fc5cc:	ec41 0b18 	vmov	d8, r0, r1
 23fc5d0:	f1b8 0f00 	cmp.w	r8, #0
 23fc5d4:	d037      	beq.n	23fc646 <__kernel_sin+0x116>
 23fc5d6:	2200      	movs	r2, #0
 23fc5d8:	4b2d      	ldr	r3, [pc, #180]	; (23fc690 <__kernel_sin+0x160>)
 23fc5da:	e9dd 0100 	ldrd	r0, r1, [sp]
 23fc5de:	f7f9 ff17 	bl	23f6410 <__aeabi_dmul>
 23fc5e2:	4680      	mov	r8, r0
 23fc5e4:	4689      	mov	r9, r1
 23fc5e6:	4630      	mov	r0, r6
 23fc5e8:	4639      	mov	r1, r7
 23fc5ea:	ec53 2b18 	vmov	r2, r3, d8
 23fc5ee:	f7f9 ff0f 	bl	23f6410 <__aeabi_dmul>
 23fc5f2:	4602      	mov	r2, r0
 23fc5f4:	460b      	mov	r3, r1
 23fc5f6:	4640      	mov	r0, r8
 23fc5f8:	4649      	mov	r1, r9
 23fc5fa:	f7f9 fd51 	bl	23f60a0 <__aeabi_dsub>
 23fc5fe:	4622      	mov	r2, r4
 23fc600:	462b      	mov	r3, r5
 23fc602:	f7f9 ff05 	bl	23f6410 <__aeabi_dmul>
 23fc606:	e9dd 2300 	ldrd	r2, r3, [sp]
 23fc60a:	f7f9 fd49 	bl	23f60a0 <__aeabi_dsub>
 23fc60e:	4604      	mov	r4, r0
 23fc610:	460d      	mov	r5, r1
 23fc612:	4630      	mov	r0, r6
 23fc614:	4639      	mov	r1, r7
 23fc616:	a31c      	add	r3, pc, #112	; (adr r3, 23fc688 <__kernel_sin+0x158>)
 23fc618:	e9d3 2300 	ldrd	r2, r3, [r3]
 23fc61c:	f7f9 fef8 	bl	23f6410 <__aeabi_dmul>
 23fc620:	4602      	mov	r2, r0
 23fc622:	460b      	mov	r3, r1
 23fc624:	4620      	mov	r0, r4
 23fc626:	4629      	mov	r1, r5
 23fc628:	f7f9 fd3c 	bl	23f60a4 <__adddf3>
 23fc62c:	4602      	mov	r2, r0
 23fc62e:	460b      	mov	r3, r1
 23fc630:	4650      	mov	r0, sl
 23fc632:	4659      	mov	r1, fp
 23fc634:	f7f9 fd34 	bl	23f60a0 <__aeabi_dsub>
 23fc638:	ec41 0b10 	vmov	d0, r0, r1
 23fc63c:	b003      	add	sp, #12
 23fc63e:	ecbd 8b02 	vpop	{d8}
 23fc642:	e8bd 8ff0 	ldmia.w	sp!, {r4, r5, r6, r7, r8, r9, sl, fp, pc}
 23fc646:	4602      	mov	r2, r0
 23fc648:	460b      	mov	r3, r1
 23fc64a:	4620      	mov	r0, r4
 23fc64c:	4629      	mov	r1, r5
 23fc64e:	f7f9 fedf 	bl	23f6410 <__aeabi_dmul>
 23fc652:	a30d      	add	r3, pc, #52	; (adr r3, 23fc688 <__kernel_sin+0x158>)
 23fc654:	e9d3 2300 	ldrd	r2, r3, [r3]
 23fc658:	f7f9 fd22 	bl	23f60a0 <__aeabi_dsub>
 23fc65c:	4632      	mov	r2, r6
 23fc65e:	463b      	mov	r3, r7
 23fc660:	f7f9 fed6 	bl	23f6410 <__aeabi_dmul>
 23fc664:	4652      	mov	r2, sl
 23fc666:	465b      	mov	r3, fp
 23fc668:	f7f9 fd1c 	bl	23f60a4 <__adddf3>
 23fc66c:	ec41 0b10 	vmov	d0, r0, r1
 23fc670:	b003      	add	sp, #12
 23fc672:	ecbd 8b02 	vpop	{d8}
 23fc676:	e8bd 8ff0 	ldmia.w	sp!, {r4, r5, r6, r7, r8, r9, sl, fp, pc}
 23fc67a:	ec4b ab10 	vmov	d0, sl, fp
 23fc67e:	b003      	add	sp, #12
 23fc680:	ecbd 8b02 	vpop	{d8}
 23fc684:	e8bd 8ff0 	ldmia.w	sp!, {r4, r5, r6, r7, r8, r9, sl, fp, pc}
 23fc688:	55555549 	.word	0x55555549
 23fc68c:	3fc55555 	.word	0x3fc55555
 23fc690:	3fe00000 	.word	0x3fe00000
 23fc694:	5acfd57c 	.word	0x5acfd57c
 23fc698:	3de5d93a 	.word	0x3de5d93a
 23fc69c:	8a2b9ceb 	.word	0x8a2b9ceb
 23fc6a0:	3e5ae5e6 	.word	0x3e5ae5e6
 23fc6a4:	57b1fe7d 	.word	0x57b1fe7d
 23fc6a8:	3ec71de3 	.word	0x3ec71de3
 23fc6ac:	19c161d5 	.word	0x19c161d5
 23fc6b0:	3f2a01a0 	.word	0x3f2a01a0
 23fc6b4:	1110f8a6 	.word	0x1110f8a6
 23fc6b8:	3f811111 	.word	0x3f811111

023fc6bc <fabs>:
 23fc6bc:	ec51 0b10 	vmov	r0, r1, d0
 23fc6c0:	ee10 2a10 	vmov	r2, s0
 23fc6c4:	f021 4300 	bic.w	r3, r1, #2147483648	; 0x80000000
 23fc6c8:	ec43 2b10 	vmov	d0, r2, r3
 23fc6cc:	4770      	bx	lr
 23fc6ce:	bf00      	nop

023fc6d0 <finite>:
 23fc6d0:	b082      	sub	sp, #8
 23fc6d2:	4805      	ldr	r0, [pc, #20]	; (23fc6e8 <finite+0x18>)
 23fc6d4:	ed8d 0b00 	vstr	d0, [sp]
 23fc6d8:	9b01      	ldr	r3, [sp, #4]
 23fc6da:	f023 4300 	bic.w	r3, r3, #2147483648	; 0x80000000
 23fc6de:	4418      	add	r0, r3
 23fc6e0:	0fc0      	lsrs	r0, r0, #31
 23fc6e2:	b002      	add	sp, #8
 23fc6e4:	4770      	bx	lr
 23fc6e6:	bf00      	nop
 23fc6e8:	80100000 	.word	0x80100000
 23fc6ec:	00000000 	.word	0x00000000

023fc6f0 <nan>:
 23fc6f0:	ed9f 0b01 	vldr	d0, [pc, #4]	; 23fc6f8 <nan+0x8>
 23fc6f4:	4770      	bx	lr
 23fc6f6:	bf00      	nop
 23fc6f8:	00000000 	.word	0x00000000
 23fc6fc:	7ff80000 	.word	0x7ff80000

023fc700 <rint>:
 23fc700:	ec53 2b10 	vmov	r2, r3, d0
 23fc704:	f3c3 5c0a 	ubfx	ip, r3, #20, #11
 23fc708:	ee10 0a10 	vmov	r0, s0
 23fc70c:	f2ac 31ff 	subw	r1, ip, #1023	; 0x3ff
 23fc710:	2913      	cmp	r1, #19
 23fc712:	b5f0      	push	{r4, r5, r6, r7, lr}
 23fc714:	461c      	mov	r4, r3
 23fc716:	b083      	sub	sp, #12
 23fc718:	ea4f 7ed3 	mov.w	lr, r3, lsr #31
 23fc71c:	dc3a      	bgt.n	23fc794 <rint+0x94>
 23fc71e:	2900      	cmp	r1, #0
 23fc720:	db30      	blt.n	23fc784 <rint+0x84>
 23fc722:	4d42      	ldr	r5, [pc, #264]	; (23fc82c <rint+0x12c>)
 23fc724:	fa45 fc01 	asr.w	ip, r5, r1
 23fc728:	ea03 050c 	and.w	r5, r3, ip
 23fc72c:	4315      	orrs	r5, r2
 23fc72e:	d02d      	beq.n	23fc78c <rint+0x8c>
 23fc730:	ea03 035c 	and.w	r3, r3, ip, lsr #1
 23fc734:	ea4f 0c5c 	mov.w	ip, ip, lsr #1
 23fc738:	4318      	orrs	r0, r3
 23fc73a:	d00c      	beq.n	23fc756 <rint+0x56>
 23fc73c:	ea24 0c0c 	bic.w	ip, r4, ip
 23fc740:	f44f 2480 	mov.w	r4, #262144	; 0x40000
 23fc744:	2913      	cmp	r1, #19
 23fc746:	fa44 f101 	asr.w	r1, r4, r1
 23fc74a:	bf0c      	ite	eq
 23fc74c:	f04f 4000 	moveq.w	r0, #2147483648	; 0x80000000
 23fc750:	2000      	movne	r0, #0
 23fc752:	ea4c 0401 	orr.w	r4, ip, r1
 23fc756:	4936      	ldr	r1, [pc, #216]	; (23fc830 <rint+0x130>)
 23fc758:	4623      	mov	r3, r4
 23fc75a:	4602      	mov	r2, r0
 23fc75c:	eb01 0ece 	add.w	lr, r1, lr, lsl #3
 23fc760:	e9de 4500 	ldrd	r4, r5, [lr]
 23fc764:	4620      	mov	r0, r4
 23fc766:	4629      	mov	r1, r5
 23fc768:	f7f9 fc9c 	bl	23f60a4 <__adddf3>
 23fc76c:	4622      	mov	r2, r4
 23fc76e:	462b      	mov	r3, r5
 23fc770:	e9cd 0100 	strd	r0, r1, [sp]
 23fc774:	e9dd 0100 	ldrd	r0, r1, [sp]
 23fc778:	f7f9 fc92 	bl	23f60a0 <__aeabi_dsub>
 23fc77c:	ec41 0b10 	vmov	d0, r0, r1
 23fc780:	b003      	add	sp, #12
 23fc782:	bdf0      	pop	{r4, r5, r6, r7, pc}
 23fc784:	f023 4100 	bic.w	r1, r3, #2147483648	; 0x80000000
 23fc788:	4311      	orrs	r1, r2
 23fc78a:	d124      	bne.n	23fc7d6 <rint+0xd6>
 23fc78c:	ec43 2b10 	vmov	d0, r2, r3
 23fc790:	b003      	add	sp, #12
 23fc792:	bdf0      	pop	{r4, r5, r6, r7, pc}
 23fc794:	2933      	cmp	r1, #51	; 0x33
 23fc796:	dd08      	ble.n	23fc7aa <rint+0xaa>
 23fc798:	f5b1 6f80 	cmp.w	r1, #1024	; 0x400
 23fc79c:	d1f6      	bne.n	23fc78c <rint+0x8c>
 23fc79e:	4619      	mov	r1, r3
 23fc7a0:	f7f9 fc80 	bl	23f60a4 <__adddf3>
 23fc7a4:	ec41 0b10 	vmov	d0, r0, r1
 23fc7a8:	e7f2      	b.n	23fc790 <rint+0x90>
 23fc7aa:	f2ac 4c13 	subw	ip, ip, #1043	; 0x413
 23fc7ae:	f04f 31ff 	mov.w	r1, #4294967295
 23fc7b2:	fa21 f10c 	lsr.w	r1, r1, ip
 23fc7b6:	420a      	tst	r2, r1
 23fc7b8:	d0e8      	beq.n	23fc78c <rint+0x8c>
 23fc7ba:	ea10 0251 	ands.w	r2, r0, r1, lsr #1
 23fc7be:	ea4f 0351 	mov.w	r3, r1, lsr #1
 23fc7c2:	d0c8      	beq.n	23fc756 <rint+0x56>
 23fc7c4:	ea20 0303 	bic.w	r3, r0, r3
 23fc7c8:	f04f 4080 	mov.w	r0, #1073741824	; 0x40000000
 23fc7cc:	fa40 fc0c 	asr.w	ip, r0, ip
 23fc7d0:	ea43 000c 	orr.w	r0, r3, ip
 23fc7d4:	e7bf      	b.n	23fc756 <rint+0x56>
 23fc7d6:	f3c3 0313 	ubfx	r3, r3, #0, #20
 23fc7da:	4a16      	ldr	r2, [pc, #88]	; (23fc834 <rint+0x134>)
 23fc7dc:	4318      	orrs	r0, r3
 23fc7de:	4022      	ands	r2, r4
 23fc7e0:	f004 4400 	and.w	r4, r4, #2147483648	; 0x80000000
 23fc7e4:	4243      	negs	r3, r0
 23fc7e6:	4303      	orrs	r3, r0
 23fc7e8:	0b1b      	lsrs	r3, r3, #12
 23fc7ea:	f403 2300 	and.w	r3, r3, #524288	; 0x80000
 23fc7ee:	ea43 0702 	orr.w	r7, r3, r2
 23fc7f2:	4b0f      	ldr	r3, [pc, #60]	; (23fc830 <rint+0x130>)
 23fc7f4:	ee10 2a10 	vmov	r2, s0
 23fc7f8:	eb03 0ece 	add.w	lr, r3, lr, lsl #3
 23fc7fc:	463b      	mov	r3, r7
 23fc7fe:	e9de 6700 	ldrd	r6, r7, [lr]
 23fc802:	4630      	mov	r0, r6
 23fc804:	4639      	mov	r1, r7
 23fc806:	f7f9 fc4d 	bl	23f60a4 <__adddf3>
 23fc80a:	4632      	mov	r2, r6
 23fc80c:	463b      	mov	r3, r7
 23fc80e:	e9cd 0100 	strd	r0, r1, [sp]
 23fc812:	e9dd 0100 	ldrd	r0, r1, [sp]
 23fc816:	f7f9 fc43 	bl	23f60a0 <__aeabi_dsub>
 23fc81a:	f021 4100 	bic.w	r1, r1, #2147483648	; 0x80000000
 23fc81e:	4602      	mov	r2, r0
 23fc820:	ea41 0304 	orr.w	r3, r1, r4
 23fc824:	ec43 2b10 	vmov	d0, r2, r3
 23fc828:	b003      	add	sp, #12
 23fc82a:	bdf0      	pop	{r4, r5, r6, r7, pc}
 23fc82c:	000fffff 	.word	0x000fffff
 23fc830:	023fff28 	.word	0x023fff28
 23fc834:	fffe0000 	.word	0xfffe0000

023fc838 <scalbn>:
 23fc838:	b538      	push	{r3, r4, r5, lr}
 23fc83a:	ec53 2b10 	vmov	r2, r3, d0
 23fc83e:	f3c3 510a 	ubfx	r1, r3, #20, #11
 23fc842:	469c      	mov	ip, r3
 23fc844:	4604      	mov	r4, r0
 23fc846:	bb89      	cbnz	r1, 23fc8ac <scalbn+0x74>
 23fc848:	f023 4c00 	bic.w	ip, r3, #2147483648	; 0x80000000
 23fc84c:	ee10 1a10 	vmov	r1, s0
 23fc850:	ea5c 0101 	orrs.w	r1, ip, r1
 23fc854:	d029      	beq.n	23fc8aa <scalbn+0x72>
 23fc856:	4d3e      	ldr	r5, [pc, #248]	; (23fc950 <scalbn+0x118>)
 23fc858:	4619      	mov	r1, r3
 23fc85a:	2200      	movs	r2, #0
 23fc85c:	4b3d      	ldr	r3, [pc, #244]	; (23fc954 <scalbn+0x11c>)
 23fc85e:	ee10 0a10 	vmov	r0, s0
 23fc862:	f7f9 fdd5 	bl	23f6410 <__aeabi_dmul>
 23fc866:	42ac      	cmp	r4, r5
 23fc868:	4602      	mov	r2, r0
 23fc86a:	460b      	mov	r3, r1
 23fc86c:	db16      	blt.n	23fc89c <scalbn+0x64>
 23fc86e:	468c      	mov	ip, r1
 23fc870:	f3c1 510a 	ubfx	r1, r1, #20, #11
 23fc874:	3936      	subs	r1, #54	; 0x36
 23fc876:	4421      	add	r1, r4
 23fc878:	f240 70fe 	movw	r0, #2046	; 0x7fe
 23fc87c:	4281      	cmp	r1, r0
 23fc87e:	dc21      	bgt.n	23fc8c4 <scalbn+0x8c>
 23fc880:	2900      	cmp	r1, #0
 23fc882:	dc47      	bgt.n	23fc914 <scalbn+0xdc>
 23fc884:	f111 0f35 	cmn.w	r1, #53	; 0x35
 23fc888:	da34      	bge.n	23fc8f4 <scalbn+0xbc>
 23fc88a:	f24c 3150 	movw	r1, #50000	; 0xc350
 23fc88e:	428c      	cmp	r4, r1
 23fc890:	dc18      	bgt.n	23fc8c4 <scalbn+0x8c>
 23fc892:	2b00      	cmp	r3, #0
 23fc894:	a126      	add	r1, pc, #152	; (adr r1, 23fc930 <scalbn+0xf8>)
 23fc896:	e9d1 0100 	ldrd	r0, r1, [r1]
 23fc89a:	db43      	blt.n	23fc924 <scalbn+0xec>
 23fc89c:	a324      	add	r3, pc, #144	; (adr r3, 23fc930 <scalbn+0xf8>)
 23fc89e:	e9d3 2300 	ldrd	r2, r3, [r3]
 23fc8a2:	f7f9 fdb5 	bl	23f6410 <__aeabi_dmul>
 23fc8a6:	ec41 0b10 	vmov	d0, r0, r1
 23fc8aa:	bd38      	pop	{r3, r4, r5, pc}
 23fc8ac:	f240 7eff 	movw	lr, #2047	; 0x7ff
 23fc8b0:	4571      	cmp	r1, lr
 23fc8b2:	d1e0      	bne.n	23fc876 <scalbn+0x3e>
 23fc8b4:	ee10 0a10 	vmov	r0, s0
 23fc8b8:	4619      	mov	r1, r3
 23fc8ba:	f7f9 fbf3 	bl	23f60a4 <__adddf3>
 23fc8be:	ec41 0b10 	vmov	d0, r0, r1
 23fc8c2:	bd38      	pop	{r3, r4, r5, pc}
 23fc8c4:	2b00      	cmp	r3, #0
 23fc8c6:	a11c      	add	r1, pc, #112	; (adr r1, 23fc938 <scalbn+0x100>)
 23fc8c8:	e9d1 0100 	ldrd	r0, r1, [r1]
 23fc8cc:	db07      	blt.n	23fc8de <scalbn+0xa6>
 23fc8ce:	a31a      	add	r3, pc, #104	; (adr r3, 23fc938 <scalbn+0x100>)
 23fc8d0:	e9d3 2300 	ldrd	r2, r3, [r3]
 23fc8d4:	f7f9 fd9c 	bl	23f6410 <__aeabi_dmul>
 23fc8d8:	ec41 0b10 	vmov	d0, r0, r1
 23fc8dc:	bd38      	pop	{r3, r4, r5, pc}
 23fc8de:	a118      	add	r1, pc, #96	; (adr r1, 23fc940 <scalbn+0x108>)
 23fc8e0:	e9d1 0100 	ldrd	r0, r1, [r1]
 23fc8e4:	a314      	add	r3, pc, #80	; (adr r3, 23fc938 <scalbn+0x100>)
 23fc8e6:	e9d3 2300 	ldrd	r2, r3, [r3]
 23fc8ea:	f7f9 fd91 	bl	23f6410 <__aeabi_dmul>
 23fc8ee:	ec41 0b10 	vmov	d0, r0, r1
 23fc8f2:	e7f3      	b.n	23fc8dc <scalbn+0xa4>
 23fc8f4:	4818      	ldr	r0, [pc, #96]	; (23fc958 <scalbn+0x120>)
 23fc8f6:	3136      	adds	r1, #54	; 0x36
 23fc8f8:	4614      	mov	r4, r2
 23fc8fa:	4b18      	ldr	r3, [pc, #96]	; (23fc95c <scalbn+0x124>)
 23fc8fc:	ea0c 0000 	and.w	r0, ip, r0
 23fc900:	2200      	movs	r2, #0
 23fc902:	ea40 5501 	orr.w	r5, r0, r1, lsl #20
 23fc906:	4620      	mov	r0, r4
 23fc908:	4629      	mov	r1, r5
 23fc90a:	f7f9 fd81 	bl	23f6410 <__aeabi_dmul>
 23fc90e:	ec41 0b10 	vmov	d0, r0, r1
 23fc912:	bd38      	pop	{r3, r4, r5, pc}
 23fc914:	4810      	ldr	r0, [pc, #64]	; (23fc958 <scalbn+0x120>)
 23fc916:	ea0c 0000 	and.w	r0, ip, r0
 23fc91a:	ea40 5301 	orr.w	r3, r0, r1, lsl #20
 23fc91e:	ec43 2b10 	vmov	d0, r2, r3
 23fc922:	bd38      	pop	{r3, r4, r5, pc}
 23fc924:	a108      	add	r1, pc, #32	; (adr r1, 23fc948 <scalbn+0x110>)
 23fc926:	e9d1 0100 	ldrd	r0, r1, [r1]
 23fc92a:	e7b7      	b.n	23fc89c <scalbn+0x64>
 23fc92c:	f3af 8000 	nop.w
 23fc930:	c2f8f359 	.word	0xc2f8f359
 23fc934:	01a56e1f 	.word	0x01a56e1f
 23fc938:	8800759c 	.word	0x8800759c
 23fc93c:	7e37e43c 	.word	0x7e37e43c
 23fc940:	8800759c 	.word	0x8800759c
 23fc944:	fe37e43c 	.word	0xfe37e43c
 23fc948:	c2f8f359 	.word	0xc2f8f359
 23fc94c:	81a56e1f 	.word	0x81a56e1f
 23fc950:	ffff3cb0 	.word	0xffff3cb0
 23fc954:	43500000 	.word	0x43500000
 23fc958:	800fffff 	.word	0x800fffff
 23fc95c:	3c900000 	.word	0x3c900000

023fc960 <atexit>:
 23fc960:	2300      	movs	r3, #0
 23fc962:	4601      	mov	r1, r0
 23fc964:	461a      	mov	r2, r3
 23fc966:	4618      	mov	r0, r3
 23fc968:	f000 b85e 	b.w	23fca28 <__register_exitproc>

023fc96c <memcpy>:
 23fc96c:	440a      	add	r2, r1
 23fc96e:	1e43      	subs	r3, r0, #1
 23fc970:	4291      	cmp	r1, r2
 23fc972:	d100      	bne.n	23fc976 <memcpy+0xa>
 23fc974:	4770      	bx	lr
 23fc976:	b510      	push	{r4, lr}
 23fc978:	f811 4b01 	ldrb.w	r4, [r1], #1
 23fc97c:	4291      	cmp	r1, r2
 23fc97e:	f803 4f01 	strb.w	r4, [r3, #1]!
 23fc982:	d1f9      	bne.n	23fc978 <memcpy+0xc>
 23fc984:	bd10      	pop	{r4, pc}

023fc986 <memmove>:
 23fc986:	4288      	cmp	r0, r1
 23fc988:	b510      	push	{r4, lr}
 23fc98a:	eb01 0402 	add.w	r4, r1, r2
 23fc98e:	d902      	bls.n	23fc996 <memmove+0x10>
 23fc990:	4284      	cmp	r4, r0
 23fc992:	4623      	mov	r3, r4
 23fc994:	d807      	bhi.n	23fc9a6 <memmove+0x20>
 23fc996:	1e43      	subs	r3, r0, #1
 23fc998:	42a1      	cmp	r1, r4
 23fc99a:	d008      	beq.n	23fc9ae <memmove+0x28>
 23fc99c:	f811 2b01 	ldrb.w	r2, [r1], #1
 23fc9a0:	f803 2f01 	strb.w	r2, [r3, #1]!
 23fc9a4:	e7f8      	b.n	23fc998 <memmove+0x12>
 23fc9a6:	4402      	add	r2, r0
 23fc9a8:	4601      	mov	r1, r0
 23fc9aa:	428a      	cmp	r2, r1
 23fc9ac:	d100      	bne.n	23fc9b0 <memmove+0x2a>
 23fc9ae:	bd10      	pop	{r4, pc}
 23fc9b0:	f813 4d01 	ldrb.w	r4, [r3, #-1]!
 23fc9b4:	f802 4d01 	strb.w	r4, [r2, #-1]!
 23fc9b8:	e7f7      	b.n	23fc9aa <memmove+0x24>

023fc9ba <memset>:
 23fc9ba:	4402      	add	r2, r0
 23fc9bc:	4603      	mov	r3, r0
 23fc9be:	4293      	cmp	r3, r2
 23fc9c0:	d100      	bne.n	23fc9c4 <memset+0xa>
 23fc9c2:	4770      	bx	lr
 23fc9c4:	f803 1b01 	strb.w	r1, [r3], #1
 23fc9c8:	e7f9      	b.n	23fc9be <memset+0x4>
	...

023fc9cc <srand>:
 23fc9cc:	b538      	push	{r3, r4, r5, lr}
 23fc9ce:	4b10      	ldr	r3, [pc, #64]	; (23fca10 <srand+0x44>)
 23fc9d0:	4604      	mov	r4, r0
 23fc9d2:	681d      	ldr	r5, [r3, #0]
 23fc9d4:	6bab      	ldr	r3, [r5, #56]	; 0x38
 23fc9d6:	b9b3      	cbnz	r3, 23fca06 <srand+0x3a>
 23fc9d8:	2018      	movs	r0, #24
 23fc9da:	f7fc fa43 	bl	23f8e64 <malloc>
 23fc9de:	4602      	mov	r2, r0
 23fc9e0:	63a8      	str	r0, [r5, #56]	; 0x38
 23fc9e2:	b920      	cbnz	r0, 23fc9ee <srand+0x22>
 23fc9e4:	4b0b      	ldr	r3, [pc, #44]	; (23fca14 <srand+0x48>)
 23fc9e6:	2142      	movs	r1, #66	; 0x42
 23fc9e8:	480b      	ldr	r0, [pc, #44]	; (23fca18 <srand+0x4c>)
 23fc9ea:	f7fc fa73 	bl	23f8ed4 <__assert_func>
 23fc9ee:	490b      	ldr	r1, [pc, #44]	; (23fca1c <srand+0x50>)
 23fc9f0:	4b0b      	ldr	r3, [pc, #44]	; (23fca20 <srand+0x54>)
 23fc9f2:	e9c0 1300 	strd	r1, r3, [r0]
 23fc9f6:	4b0b      	ldr	r3, [pc, #44]	; (23fca24 <srand+0x58>)
 23fc9f8:	2100      	movs	r1, #0
 23fc9fa:	6083      	str	r3, [r0, #8]
 23fc9fc:	230b      	movs	r3, #11
 23fc9fe:	8183      	strh	r3, [r0, #12]
 23fca00:	2001      	movs	r0, #1
 23fca02:	e9c2 0104 	strd	r0, r1, [r2, #16]
 23fca06:	6bab      	ldr	r3, [r5, #56]	; 0x38
 23fca08:	2200      	movs	r2, #0
 23fca0a:	611c      	str	r4, [r3, #16]
 23fca0c:	615a      	str	r2, [r3, #20]
 23fca0e:	bd38      	pop	{r3, r4, r5, pc}
 23fca10:	1006198c 	.word	0x1006198c
 23fca14:	023fff38 	.word	0x023fff38
 23fca18:	023fff4f 	.word	0x023fff4f
 23fca1c:	abcd330e 	.word	0xabcd330e
 23fca20:	e66d1234 	.word	0xe66d1234
 23fca24:	0005deec 	.word	0x0005deec

023fca28 <__register_exitproc>:
 23fca28:	e92d 43f8 	stmdb	sp!, {r3, r4, r5, r6, r7, r8, r9, lr}
 23fca2c:	f8df 80bc 	ldr.w	r8, [pc, #188]	; 23fcaec <__register_exitproc+0xc4>
 23fca30:	4606      	mov	r6, r0
 23fca32:	461f      	mov	r7, r3
 23fca34:	460d      	mov	r5, r1
 23fca36:	f8d8 0000 	ldr.w	r0, [r8]
 23fca3a:	4691      	mov	r9, r2
 23fca3c:	f000 f858 	bl	23fcaf0 <__retarget_lock_acquire_recursive>
 23fca40:	4b26      	ldr	r3, [pc, #152]	; (23fcadc <__register_exitproc+0xb4>)
 23fca42:	681c      	ldr	r4, [r3, #0]
 23fca44:	b934      	cbnz	r4, 23fca54 <__register_exitproc+0x2c>
 23fca46:	4c26      	ldr	r4, [pc, #152]	; (23fcae0 <__register_exitproc+0xb8>)
 23fca48:	601c      	str	r4, [r3, #0]
 23fca4a:	4b26      	ldr	r3, [pc, #152]	; (23fcae4 <__register_exitproc+0xbc>)
 23fca4c:	b113      	cbz	r3, 23fca54 <__register_exitproc+0x2c>
 23fca4e:	681b      	ldr	r3, [r3, #0]
 23fca50:	f8c4 3088 	str.w	r3, [r4, #136]	; 0x88
 23fca54:	6863      	ldr	r3, [r4, #4]
 23fca56:	2b1f      	cmp	r3, #31
 23fca58:	dd07      	ble.n	23fca6a <__register_exitproc+0x42>
 23fca5a:	f8d8 0000 	ldr.w	r0, [r8]
 23fca5e:	f000 f849 	bl	23fcaf4 <__retarget_lock_release_recursive>
 23fca62:	f04f 30ff 	mov.w	r0, #4294967295
 23fca66:	e8bd 83f8 	ldmia.w	sp!, {r3, r4, r5, r6, r7, r8, r9, pc}
 23fca6a:	b35e      	cbz	r6, 23fcac4 <__register_exitproc+0x9c>
 23fca6c:	f8d4 0088 	ldr.w	r0, [r4, #136]	; 0x88
 23fca70:	b988      	cbnz	r0, 23fca96 <__register_exitproc+0x6e>
 23fca72:	4b1d      	ldr	r3, [pc, #116]	; (23fcae8 <__register_exitproc+0xc0>)
 23fca74:	b923      	cbnz	r3, 23fca80 <__register_exitproc+0x58>
 23fca76:	f8d8 0000 	ldr.w	r0, [r8]
 23fca7a:	f000 f83a 	bl	23fcaf2 <__retarget_lock_release>
 23fca7e:	e7f0      	b.n	23fca62 <__register_exitproc+0x3a>
 23fca80:	f44f 7084 	mov.w	r0, #264	; 0x108
 23fca84:	f7fc f9ee 	bl	23f8e64 <malloc>
 23fca88:	2800      	cmp	r0, #0
 23fca8a:	d0f4      	beq.n	23fca76 <__register_exitproc+0x4e>
 23fca8c:	2300      	movs	r3, #0
 23fca8e:	e9c0 3340 	strd	r3, r3, [r0, #256]	; 0x100
 23fca92:	f8c4 0088 	str.w	r0, [r4, #136]	; 0x88
 23fca96:	6863      	ldr	r3, [r4, #4]
 23fca98:	2201      	movs	r2, #1
 23fca9a:	2e02      	cmp	r6, #2
 23fca9c:	f840 9023 	str.w	r9, [r0, r3, lsl #2]
 23fcaa0:	fa02 f203 	lsl.w	r2, r2, r3
 23fcaa4:	eb00 0183 	add.w	r1, r0, r3, lsl #2
 23fcaa8:	f8d0 3100 	ldr.w	r3, [r0, #256]	; 0x100
 23fcaac:	ea43 0302 	orr.w	r3, r3, r2
 23fcab0:	f8c0 3100 	str.w	r3, [r0, #256]	; 0x100
 23fcab4:	f8c1 7080 	str.w	r7, [r1, #128]	; 0x80
 23fcab8:	bf02      	ittt	eq
 23fcaba:	f8d0 3104 	ldreq.w	r3, [r0, #260]	; 0x104
 23fcabe:	4313      	orreq	r3, r2
 23fcac0:	f8c0 3104 	streq.w	r3, [r0, #260]	; 0x104
 23fcac4:	6863      	ldr	r3, [r4, #4]
 23fcac6:	f8d8 0000 	ldr.w	r0, [r8]
 23fcaca:	1c5a      	adds	r2, r3, #1
 23fcacc:	3302      	adds	r3, #2
 23fcace:	6062      	str	r2, [r4, #4]
 23fcad0:	f844 5023 	str.w	r5, [r4, r3, lsl #2]
 23fcad4:	f000 f80e 	bl	23fcaf4 <__retarget_lock_release_recursive>
 23fcad8:	2000      	movs	r0, #0
 23fcada:	e7c4      	b.n	23fca66 <__register_exitproc+0x3e>
 23fcadc:	1007afec 	.word	0x1007afec
 23fcae0:	1007af60 	.word	0x1007af60
 23fcae4:	00000000 	.word	0x00000000
 23fcae8:	023f8e65 	.word	0x023f8e65
 23fcaec:	100619f0 	.word	0x100619f0

023fcaf0 <__retarget_lock_acquire_recursive>:
 23fcaf0:	4770      	bx	lr

023fcaf2 <__retarget_lock_release>:
 23fcaf2:	4770      	bx	lr

023fcaf4 <__retarget_lock_release_recursive>:
 23fcaf4:	4770      	bx	lr
	...

023fcaf8 <__DelayMs_veneer>:
 23fcaf8:	b401      	push	{r0}
 23fcafa:	4802      	ldr	r0, [pc, #8]	; (23fcb04 <__DelayMs_veneer+0xc>)
 23fcafc:	4684      	mov	ip, r0
 23fcafe:	bc01      	pop	{r0}
 23fcb00:	4760      	bx	ip
 23fcb02:	bf00      	nop
 23fcb04:	1010a995 	.word	0x1010a995

023fcb08 <__io_assert_failed_veneer>:
 23fcb08:	b401      	push	{r0}
 23fcb0a:	4802      	ldr	r0, [pc, #8]	; (23fcb14 <__io_assert_failed_veneer+0xc>)
 23fcb0c:	4684      	mov	ip, r0
 23fcb0e:	bc01      	pop	{r0}
 23fcb10:	4760      	bx	ip
 23fcb12:	bf00      	nop
 23fcb14:	1010a871 	.word	0x1010a871

023fcb18 <__DelayUs_veneer>:
 23fcb18:	b401      	push	{r0}
 23fcb1a:	4802      	ldr	r0, [pc, #8]	; (23fcb24 <__DelayUs_veneer+0xc>)
 23fcb1c:	4684      	mov	ip, r0
 23fcb1e:	bc01      	pop	{r0}
 23fcb20:	4760      	bx	ip
 23fcb22:	bf00      	nop
 23fcb24:	1010a949 	.word	0x1010a949

023fcb28 <dynalib_user>:
 23fcb28:	023f6a71 023f6a99 023f6a9d 00000000     qj?..j?..j?.....
 23fcb38:	69647541 6173206f 656c706d 66612073     Audio samples af
 23fcb48:	20726574 6d697274 4500203a 524f5252     ter trim: .ERROR
 23fcb58:	6566203a 72757461 655f3265 61727478     : feature2_extra
 23fcb68:	735f7463 656d6765 6620746e 656c6961     ct_segment faile
 23fcb78:	4e4b0064 6d65204e 7261656c 7265206e     d.KNN emlearn er
 23fcb88:	3a726f72 3d3d0020 3d3d3d3d 3d3d3d3d     ror: .==========
 23fcb98:	3d3d3d3d 3d3d3d3d 3d3d3d3d 3d3d3d3d     ================
 23fcba8:	3d3d3d3d 003d3d3d 64657250 69746369     =======.Predicti
 23fcbb8:	72206e6f 6c757365 4e4b0074 7270204e     on result.KNN pr
 23fcbc8:	63696465 20646574 73616c63 00203a73     edicted class: .
 23fcbd8:	204e4e4b 64657270 65746369 68632064     KNN predicted ch
 23fcbe8:	3a64726f 4e4b0020 6e69204e 696c6176     ord: .KNN invali
 23fcbf8:	72702064 63696465 6e6f6974 4b00203a     d prediction: .K
 23fcc08:	69204e4e 7265666e 65636e65 6d697420     NN inference tim
 23fcc18:	00203a65 00737520 746f6850 20326e6f     e: . us.Photon2 
 23fcc28:	6576696c 6f686320 72206472 676f6365     live chord recog
 23fcc38:	6974696e 50006e6f 6d204d44 6f726369     nition.PDM micro
 23fcc48:	6e6f6870 3e2d2065 20383120 6576696c     phone -> 18 live
 23fcc58:	61656620 65727574 3e2d2073 4e4e4b20      features -> KNN
 23fcc68:	646f6d20 46006c65 75746165 3a736572      model.Features:
 23fcc78:	6e656320 696f7274 202b2064 464d2035      centroid + 5 MF
 23fcc88:	2b204343 20323120 6f726863 735f616d     CC + 12 chroma_s
 23fcc98:	00746674 6f726863 635f616d 2c736e65     tft.chroma_cens,
 23fcca8:	6e6f7420 7a74656e 646e6120 6e615220      tonnetz and Ran
 23fccb8:	206d6f64 65726f46 61207473 64206572     dom Forest are d
 23fccc8:	62617369 2064656c 72206f74 63756465     isabled to reduc
 23fccd8:	41522065 5541004d 5f4f4944 504d4153     e RAM.AUDIO_SAMP
 23fcce8:	525f454c 5f455441 203a5a48 43455200     LE_RATE_HZ: .REC
 23fccf8:	5f44524f 203a534d 44554100 535f4f49     ORD_MS: .AUDIO_S
 23fcd08:	4c504d41 203a5345 4f484300 4b5f4452     AMPLES: .CHORD_K
 23fcd18:	4e5f4e4e 465f4d55 55544145 3a534552     NN_NUM_FEATURES:
 23fcd28:	48430020 5f44524f 5f4e4e4b 5f4d554e      .CHORD_KNN_NUM_
 23fcd38:	53414c43 3a534553 52450020 3a524f52     CLASSES: .ERROR:
 23fcd48:	61656620 65727574 78655f32 63617274      feature2_extrac
 23fcd58:	5f726f74 74696e69 69616620 0064656c     tor_init failed.
 23fcd68:	4f525245 4d203a52 6f726369 6e6f6870     ERROR: Microphon
 23fcd78:	44505f65 6e69204d 66207469 656c6961     e_PDM init faile
 23fcd88:	00203a64 4f525245 4d203a52 6f726369     d: .ERROR: Micro
 23fcd98:	6e6f6870 44505f65 7473204d 20747261     phone_PDM start 
 23fcda8:	6c696166 203a6465 63694d00 68706f72     failed: .Microph
 23fcdb8:	20656e6f 72617473 00646574 79616c50     one started.Play
 23fcdc8:	63206120 64726f68 65687720 7469206e      a chord when it
 23fcdd8:	79617320 65522073 64726f63 2e676e69      says Recording.
 23fcde8:	52002e2e 726f6365 69742064 203a656d     ...Record time: 
 23fcdf8:	736d2000 52524500 203a524f 6f636572     . ms.ERROR: reco
 23fce08:	6e696472 69742067 756f656d 65520074     rding timeout.Re
 23fce18:	64726f63 73206465 6c706d61 203a7365     corded samples: 
 23fce28:	69615700 676e6974 66656220 2065726f     .Waiting before 
 23fce38:	7478656e 63657220 6964726f 2e2e676e     next recording..
 23fce48:	6441002e 41007275 75647369 64420072     ..Adur.Aisdur.Bd
 23fce58:	43007275 00727564 64736943 44007275     ur.Cdur.Cisdur.D
 23fce68:	00727564 64736944 45007275 00727564     dur.Disdur.Edur.
 23fce78:	72756446 73694600 00727564 72756447     Fdur.Fisdur.Gdur
 23fce88:	73694700 00727564                       .Gisdur.

023fce90 <CSWTCH.39>:
 23fce90:	023fce4a 023fce4f 023fce56 023fce5b     J.?.O.?.V.?.[.?.
 23fcea0:	023fce60 023fce67 023fce6c 023fce73     `.?.g.?.l.?.s.?.
 23fceb0:	023fce78 023fce7d 023fce84 023fce89     x.?.}.?...?...?.

023fcec0 <_ZL14CHORD_KNN_MEAN>:
 23fcec0:	44223e6a 42c753af 4216b5d0 40eafb3b     j>"D.S.B...B;..@
 23fced0:	40bdeeda 3fd043e5 3eebd0c0 3ef067aa     ...@.C.?...>.g.>
 23fcee0:	3ee2516d 3eb5fa9c 3ec197af 3ef31d37     mQ.>...>...>7..>
 23fcef0:	3ed9dcb6 3ee646fa 3f32cd95 3f1147bf     ...>.F.>..2?.G.?
 23fcf00:	3f111f90 3f15787c                       ...?|x.?

023fcf08 <_ZL14chord_knn_data>:
 23fcf08:	ffa6fffd fff7ffbb 004e0038 0048ffe6     ........8.N...H.
 23fcf18:	fffcfff4 fff800a0 ffecfff6 00a7002f     ............/...
 23fcf28:	fff9000d 003b0022 ffabffe6 00410063     ....".;.....c.A.
 23fcf38:	001dffa3 ff9affb4 ffad00b8 ffb9ffb1     ................
 23fcf48:	00c4fffe ffd4fff7 002effe2 ffb4ffff     ................
 23fcf58:	00480051 0016ff9c ff90ffad ff9b00a7     Q.H.............
 23fcf68:	ffb1ffa4 00c30000 ffb7ffd4 ffacfff6     ................
 23fcf78:	fffeffc5 0052002f 004efff4 fffcfffc     ..../.R...N.....
 23fcf88:	000300d2 ffe2fff2 00a50023 0004000c     ........#.......
 23fcf98:	ffbbffb8 00290006 004e0022 003bffcd     ......).".N...;.
 23fcfa8:	ffd8ffd2 ffed00ea ffd2ffce 00c10017     ................
 23fcfb8:	ffe80005 ffdfffb3 0044001d fff1002f     ..........D./...
 23fcfc8:	0052ffb3 ffaeffba ffb900bb ffb7ffae     ..R.............
 23fcfd8:	00c60011 ffb6ffcf 0028ffff ffbdffe3     ..........(.....
 23fcfe8:	0016002b 0038ffe2 fff0ffea ffef00f2     +.....8.........
 23fcff8:	ffe4ffe3 00b40017 fff5000d 0067ffe9     ..............g.
 23fd008:	ffbd000d 0000001a 0016ffb2 ffb2ffbb     ................
 23fd018:	ffbc00bb ffd1ffbe 00bf0023 ffccffe7     ........#.......
 23fd028:	0045fff7 ffb2fffe 001c000b 0021ffb8     ..E...........!.
 23fd038:	ffa4ffc7 ffb000f5 ffd0ffc7 00c0001b     ................
 23fd048:	ffd0fff6 ffee001f ffb1ffc6 ffee0024     ............$...
 23fd058:	0048ffe5 fff1ffed fff1012e ffddffdf     ..H.............
 23fd068:	00ae0009 00150002 004e003a ffa0ffe2     ........:.N.....
 23fd078:	ffc8000b fff9ff9b ff99ff9d ff9f00b8     ................
 23fd088:	ffb5ffa0 00c9ffe3 ffbcffcd 0024000e     ..............$.
 23fd098:	ff88ffea ffcd003e 0024ffaf ffadffc4     ....>.....$.....
 23fd0a8:	ffc00102 ffceffc5 00b80019 0003ffe2     ................
 23fd0b8:	ff8dff98 00410022 0022001f 001cffe7     ....".A...".....
 23fd0c8:	ffd0ffde ffd400cc ffd4ffcc 00ab0033     ............3...
 23fd0d8:	ffe70011 0019fff1 ffd30009 000a0015     ................
 23fd0e8:	0021ffb4 ffa8ffbb ffac00d9 ffc0ffb0     ..!.............
 23fd0f8:	00c3fffd ffe8ffec ffd6ffa4 00250055     ............U.%.
 23fd108:	ffe5ffe7 00a8ffc2 ffb4ffd1 ffbb00fa     ................
 23fd118:	ffb7ffaf 00bffff5 ffcfffea fff8fff0     ................
 23fd128:	ffbbffe8 003f000e 006affe2 ffd5ffe0     ......?...j.....
 23fd138:	ffe300f2 ffdaffe0 00b0004b 000ffff7     ........K.......
 23fd148:	0014ffee ffb8000f 0038ffc6 0010ffb8     ..........8.....
 23fd158:	ffa4ffb2 ffa700ae ffb2ffad 00befffc     ................
 23fd168:	ffcdffeb 0023ffe2 ffbe001a fff8ffef     ......#.........
 23fd178:	001bffa4 ff96ffab ff9e0094 ffa0ff9e     ................
 23fd188:	00caffcf ffb2ffd0 ff89ffef 0058ffa4     ..............X.
 23fd198:	0042003b 003c0014 fff40007 00030079     ;.B...<.....y...
 23fd1a8:	fff80005 00a3004e 000f0029 fff4ffcc     ....N...).......
 23fd1b8:	ffdc001f 0001ffe2 0020ffb2 ff93ffb7     .......... .....
 23fd1c8:	ffb10091 ffa5ffad 00c6ffee ffadffd0     ................
 23fd1d8:	ffedfff4 ffebfff3 ffdeffea 008cffd9     ................
 23fd1e8:	ffcfffde ffe900ca ffd7ffd8 00aa0023     ............#...
 23fd1f8:	ffd7ffee ff890002 ffe1ffb9 006c001a     ..............l.
 23fd208:	0052fff8 ffe40003 fff200e8 fff1ffea     ..R.............
 23fd218:	00a50037 00020016 fffb0000 ff680004     7.............h.
 23fd228:	001effb0 004cffc0 ff9cffd8 ffb50146     ......L.....F...
 23fd238:	ffd2ffbd 00ac0019 0027ffd8 fff8ffb7     ..........'.....
 23fd248:	ffb0004c 0038ffcf 0048ffa2 ff87ffb4     L.....8...H.....
 23fd258:	ffa200b6 ffb4ffa3 00bcffff ffacffe5     ................
 23fd268:	000f011c ff2dfecd 01170118 004d0035     ......-.....5.M.
 23fd278:	00830057 009900a9 00750056 00610064     W.......V.u.d.a.
 23fd288:	00520099 00b1009b ff54ffc4 004a0096     ..R.......T...J.
 23fd298:	ffb1ffb6 ffd90069 0078ffce ffc7ffc9     ....i.....x.....
 23fd2a8:	ffecffb6 ffcb00be 0073007e ff8affa8     ........~.s.....
 23fd2b8:	008b00cc ffc2ffc5 fff8005b 0094fffa     ........[.......
 23fd2c8:	ffddffeb 00040002 ffdf00b6 001f0001     ................
 23fd2d8:	fff9ffa5 008b0064 fffe0007 00090090     ....d...........
 23fd2e8:	00b10007 fff2000d 0006fffb fff40082     ................
 23fd2f8:	0089ffe9 ffe2ffef 005f007e ffa3ffd1     ........~._.....
 23fd308:	ffbc00a6 00d0ffa2 ffacffce ffe1ff98     ................
 23fd318:	ffb4007f 0054fff3 ffdcffd2 00760083     ......T.......v.
 23fd328:	ffd2fffc ffe700bb 00b0fffe ffddfff8     ................
 23fd338:	00070003 000e0096 ffd6fff8 000cffc0     ................
 23fd348:	00620086 fff9000d fffa006c 00c80000     ..b.....l.......
 23fd358:	ffeb0000 0006ffee ffff0091 0030ffe6     ..............0.
 23fd368:	ffd3fffe 00640094 ffa2ffd2 ffd2007e     ......d.....~...
 23fd378:	00c4ffb9 ffb8ffc2 ffe3ffa6 ffbd00a8     ................
 23fd388:	fffaffa1 00230058 0020001b ff9dffd0     ....X.#... .....
 23fd398:	ffa20075 00a9ff92 ff97ffa6 ffb9ff6f     u...........o...
 23fd3a8:	ffb400a3 0020ffe6 0047ffa9 007d005e     ...... ...G.^.}.
 23fd3b8:	000b001d 00100078 007b0027 fff2fffb     ....x...'.{.....
 23fd3c8:	0010fff2 00110098 00830000 0010ffb7     ................
 23fd3d8:	005a0043 ffeb0008 ffea0094 009affeb     C.Z.............
 23fd3e8:	ffddffe0 0017fff1 fffa00a4 0055ffc9     ..............U.
 23fd3f8:	00550004 000a001a ffd2ffdf ffd00054     ..U.........T...
 23fd408:	007dffd8 ffc4ffd0 fff1ffb5 ffe300ac     ..}.............
 23fd418:	003a0031 fff3ffba 001affc8 000d0024     1.:.........$...
 23fd428:	0042009c 00f40038 fffc0018 fff7ffd8     ..B.8...........
 23fd438:	fff50086 0077ffae 0025004a ffcfffc0     ......w.J.%.....
 23fd448:	ffc6ffcf ffba00d3 00c6ffba ffb5ffc0     ................
 23fd458:	ffcfffb1 ffbc009a 003affb8 fff6003f     ..........:.?...
 23fd468:	000fffd9 ffbaffc9 ffa40087 00c6ff9c     ................
 23fd478:	ffaeffb8 ffd8ffa9 ffbe00a0 fffd0023     ............#...
 23fd488:	0002ffa0 00230019 fff70015 fffc0054     ......#.....T...
 23fd498:	00ca0007 ffe5ffee 0007ffee 00010097     ................
 23fd4a8:	0089000e ff83fff6 003e002c ffa6ffc1     ........,.>.....
 23fd4b8:	ffab0047 009affa5 ffa4ffa8 ffb5ff7d     G...........}...
 23fd4c8:	ffa4009e 0043ffd2 ffc9001e 00300053     ......C.....S.0.
 23fd4d8:	ffb2ffcd ffac0087 00beffa8 ff9effba     ................
 23fd4e8:	ffccff73 ffbd008d fff00034 004eff73     s.......4...s.N.
 23fd4f8:	0050002f 002c0025 003d005e 009b0043     /.P.%.,.^.=.C...
 23fd508:	001e002a 001c0022 00220079 0003ffb3     *..."...y.".....
 23fd518:	0091000c 001f001d ffbeffe1 ffa1000f     ................
 23fd528:	0094ffb5 ffaaffc2 ffd4ff95 ffdb00a3     ................
 23fd538:	0065ffcc 002b003d 00080008 ffabffbd     ..e.=.+.........
 23fd548:	ffbd0020 00c6ffa8 ffb1ffb5 ffcfff7f      ...............
 23fd558:	ffb400aa ffd500b1 ff22ff9b 00cc00f2     ..........".....
 23fd568:	ffbcffcb fffcfffd 00faffe5 ffdaffdb     ................
 23fd578:	ffccffac ffcf0071 0023004b ff79fffa     ....q...K.#...y.
 23fd588:	008a00dc ffbdffbb fffd0046 00f6fffc     ........F.......
 23fd598:	ffc5ffcc ffceffa8 ffda00a5 ffc9007c     ............|...
 23fd5a8:	ff71ffb9 00c900f3 ffc1ffd2 ffe0003d     ..q.........=...
 23fd5b8:	009cffe6 ffe0ffca ffe9ffc6 ffe400b6     ................
 23fd5c8:	ff7effef 000afff3 0035ffd0 000f0005     ..~.......5.....
 23fd5d8:	0047fff4 0000fffb fff0007a ffe1ffcd     ..G.....z.......
 23fd5e8:	00a8ffe5 0048002d ff88006e ffbbffcc     ....-.H.n.......
 23fd5f8:	ffa2ff91 0002ff81 ff94ff78 ff98006b     ........x...k...
 23fd608:	ff7eff3a 00c5ff93 002c00b7 ff51fff3     :.~.......,...Q.
 23fd618:	ffcafffb ffa4ff98 0022ff8d ffa0ff89     ..........".....
 23fd628:	ffa40062 ff8bff48 00c4ffa3 00180065     b...H.......e...
 23fd638:	ff8dffcf 000a0041 fff0ffe0 003dffcd     ....A.........=.
 23fd648:	ffff0004 ffee0056 ffd7ffb0 00b2ffef     ....V...........
 23fd658:	003affab 002c007c ff9dffa0 ff93ff97     ..:.|.,.........
 23fd668:	003cff85 ff94ff82 ff920072 ff87ff4d     ..<.....r...M...
 23fd678:	00c6ff97 0053ffc9 ffe10078 ff99ff5d     ......S.x...]...
 23fd688:	ffbeffae 0068ffa0 ffb4ffb6 ffb800bc     ......h.........
 23fd698:	ff9eff5d 00bfffaf ffda00df ff60ff19     ].............`.
 23fd6a8:	00ca00df 00370037 0064000b 00580078     ....7.7...d.x.X.
 23fd6b8:	00690070 00300059 008e0054 ffd5ff94     p.i.Y.0.T.......
 23fd6c8:	009d0049 0013ffeb ffb2ffbb fff3ffa1     I...............
 23fd6d8:	ffa2ff8e ff950059 ff9eff54 00c6ffa0     ....Y...T.......
 23fd6e8:	ffdc0001 0033ffe2 002b0033 ffebffee     ......3.3.+.....
 23fd6f8:	0046ffd7 ffdfffd7 ffca0099 ffc6ff96     ..F.............
 23fd708:	00baffd8 fffe00c1 ff67ff85 001c0071     ..........g.q...
 23fd718:	0008fff9 005bfff8 001e0030 002e0070     ......[.0...p...
 23fd728:	fffeffee 00a5001e 007a0073 ff92001c     ........s.z.....
 23fd738:	ff9bffd7 ff91ff92 0050ff88 ff9bff83     ..........P.....
 23fd748:	ff90004f ff85ff49 00c6ff9d 00540044     O...I.......D.T.
 23fd758:	ff980051 ff89ffe5 ffd1ffa3 0029ff95     Q.............).
 23fd768:	ffa8ff91 ffac0083 ff91ff5b 00c5ffaa     ........[.......
 23fd778:	ff86004a ffc5ffc5 0025006d fffcfff9     J.......m.%.....
 23fd788:	001fffd8 ffefffe9 fff30062 ffebffb9     ........b.......
 23fd798:	00b5fff2 000d0039 ffb40063 ffba002f     ....9...c.../...
 23fd7a8:	ff81ff90 fffbff78 ff90ff74 ff860024     ....x...t...$...
 23fd7b8:	ff77ff17 00c6ff97 0034000c ff9f0094     ..w.......4.....
 23fd7c8:	ff7cffda ff88ff8d 0066ff7f ff94ff75     ..|.......f.u...
 23fd7d8:	ff8f0060 ff74ff2a 00c6ffa1 ff87007d     `...*.t.....}...
 23fd7e8:	ffc6ff7e 00a800bb 000f0013 0042ffea     ~.............B.
 23fd7f8:	002e0032 00290080 0005fff6 00a7002a     2.....).....*...
 23fd808:	ffe00026 00190004 004100b6 ffb2ffbf     &.........A.....
 23fd818:	fffdffad ffe2ffbf ffd50092 ffb9ff9b     ................
 23fd828:	00c5ffcf ffe50083 ffbbffc7 009400f7     ................
 23fd838:	ffc3ffd6 0011ffbe 0000ffdb ffe80091     ................
 23fd848:	ffc4ff9e 00c2ffde fffb015b ff04fea8     ........[.......
 23fd858:	013f0104 00620060 00aa0058 00a600e3     ..?.`.b.X.......
 23fd868:	009a0066 00680064 0087009a 00bb00b1     f...d.h.........
 23fd878:	ff64ffd2 00500089 ffc2ffc3 0018ffbc     ..d...P.........
 23fd888:	ffddffd6 ffe10069 ffaeff90 00b6ffe2     ....i...........
 23fd898:	00be0090 ff860009 00180074 ffb2ffa9     ........t.......
 23fd8a8:	0005ff93 ffbbffa0 ffc500a9 ff93ff6f     ............o...
 23fd8b8:	00beffbc ff27014f ff24fe9b 013e011c     ....O.'...$...>.
 23fd8c8:	00850055 009d005a 00a300c9 00970074     U...Z.......t...
 23fd8d8:	006e0094 008400a1 00420013 ffa80063     ..n.......B.c...
 23fd8e8:	ffbd0023 ffb7ffb0 0002ff96 ffbbffaa     #...............
 23fd8f8:	ffaa0071 ff8aff4e 00c4ffaf 0013004d     q...N.......M...
 23fd908:	ff730016 ffe9000d ffabffb9 001affa3     ..s.............
 23fd918:	ffdaffcd ffb0008d ff9cff67 00beffce     ........g.......
 23fd928:	fea30057 004eff17 00610026 00880086     W.....N.&.a.....
 23fd938:	005c0063 0063007a 006f007c 009400a8     c.\.z.c.|.o.....
 23fd948:	0086005e ff65ff77 00d60043 ffeb0026     ^...w.e.C...&...
 23fd958:	fff000d5 ffc5ffe5 ffd00037 00adffe5     ........7.......
 23fd968:	ffccffb5 fff9ffc7 ff73ff59 00c2009d     ........Y.s.....
 23fd978:	ffdbffd3 ffc600d8 ff97ffd0 ff9b0039     ............9...
 23fd988:	010dffb6 ffa2ff6e ffc2ff9d ff5bffe7     ....n.........[.
 23fd998:	006cffc0 0048000b 002100d1 ffff0007     ..l...H...!.....
 23fd9a8:	0006005a 0042fffe 0010ffef 0003fff7     Z.....B.........
 23fd9b8:	ff3cffe2 0091ffbf 0051002e fffa00f4     ..<.......Q.....
 23fd9c8:	ffd9ffe9 ffe9002c 001ffff2 ffe9ffde     ....,...........
 23fd9d8:	fffdffdf ff47ffcd 0099ffda 00560041     ......G.....A.V.
 23fd9e8:	fffa0100 ffd6ffee ffd40026 001bffe0     ........&.......
 23fd9f8:	ffd6ff9c ffe1ffcd ff6c0026 0048ff97     ........&.l...H.
 23fda08:	0011fff6 007200c7 004d000f 005400ea     ......r...M...T.
 23fda18:	008a002b 001a001c 003c002f ff90ffaa     +......./.<.....
 23fda28:	0072003f ffa90005 ffc000ce ff97ffbc     ?.r.............
 23fda38:	ffb20045 00caffbf ffa8ffa3 ffafffa7     E...............
 23fda48:	ff55ffb3 00970010 0037003e ffed00fc     ..U.....>.7.....
 23fda58:	ffb1ffda ffc50012 00b0ffc9 ffbaffb5     ................
 23fda68:	ffe8ffbb ffde0018 0069ffa6 00170029     ..........i.)...
 23fda78:	005800cf 0031001d 0040008b 009e0038     ..X...1...@.8...
 23fda88:	00110000 001c0006 0033ff8b 00e1003b     ..........3.;...
 23fda98:	0001004b ffe600f6 ffa3ffb6 ffaeffd6     K...............
 23fdaa8:	00a9ffb5 ffb7ff99 ffd7ffb6 002bff84     ..............+.
 23fdab8:	009e002e 004a0072 ffd600e7 ffadffe4     ....r.J.........
 23fdac8:	ffbcffcc 00f7ffc4 ffb2ffb4 ffc6ffac     ................
 23fdad8:	00070080 ffaaffb2 00b30109 fff200ca     ................
 23fdae8:	ffebffcb ffe7004c 00a3ffdc ffcfffbe     ....L...........
 23fdaf8:	fff0ffe2 ffc20059 ffd0ffe6 00920105     ....Y...........
 23fdb08:	ffd200e9 ffbfffaa ffd90029 008bffc5     ........).......
 23fdb18:	ffadff94 ffc4ffc8 fff8004f ffb7fff6     ........O.......
 23fdb28:	007500a4 ffd900ca ffcaffc5 ffdc004b     ..u.........K...
 23fdb38:	0105ffd4 ffcbffb1 ffdcffde 003500d1     ..............5.
 23fdb48:	ff54ff65 011f0116 0009008c 000bfff5     e.T.............
 23fdb58:	fffb000d 008dfff6 fff7ffd5 ffff0010     ................
 23fdb68:	000d00c5 ff8cff91 00e90104 fff500fe     ................
 23fdb78:	ffebffd7 00010069 0086fff8 ffe0ffc0     ....i...........
 23fdb88:	0004ffef 00b100b8 ff59ffea 00480048     ..........Y.H.H.
 23fdb98:	ffef00e0 ffdaffd5 ffca0015 00fcffd5     ................
 23fdba8:	0018ffb5 fff7ffe2 ff250052 003fff2e     ........R.%...?.
 23fdbb8:	00600032 00a900a8 00600075 006c009f     2.`.....u.`...l.
 23fdbc8:	00740082 007d0094 00870068 ff760024     ..t...}.h...$.v.
 23fdbd8:	0062ff5d 00420040 00460066 fffd0036     ].b.@.B.f.F.6...
 23fdbe8:	0054005d 0082005f 00570091 00660045     ].T._.....W.E.f.
 23fdbf8:	0007ff86 002f0074 004e0023 ffc700cb     ....t./.#.N.....
 23fdc08:	ff8afffa ff98ffac 0131ffa9 ff88ff99     ..........1.....
 23fdc18:	ffacff92 ff500005 0069ffab 00430039     ......P...i.9.C.
 23fdc28:	002e00c5 00100027 001f0051 00730012     ....'...Q.....s.
 23fdc38:	0007fffb 00110006 ffadffa2 00390060     ............`.9.
 23fdc48:	0013fff7 ffca00ea ffa0ffd9 ffae0024     ............$...
 23fdc58:	0072ffb4 ffa2ff7d ffd0ffa8 0013ffca     ..r.}...........
 23fdc68:	ffdf00c3 ffd6ffd4 ffa700e3 ff81ffbc     ................
 23fdc78:	ff8cffff 00c2ff90 ff80ff4f ffb1ff90     ........O.......
 23fdc88:	ff790005 0066ffc1 ffee0009 00a60038     ..y...f.....8...
 23fdc98:	fff50018 006f0015 fffb0016 002a008d     ......o.......*.
 23fdca8:	00030008 0004ffce 00650043 ffc30011     ........C.e.....
 23fdcb8:	00b5ffc5 ffa8ffb2 0035ff90 ff9effa4     ..........5.....
 23fdcc8:	ffad0071 ff8aff8d 0002fffe 0075002b     q...........+.u.
 23fdcd8:	ffa6ffc4 0093ffbf ffc2ffb8 002fff98     ............../.
 23fdce8:	ffa5ffae ffa4007d ff88ff9e ff91ffdf     ....}...........
 23fdcf8:	006effdf 00120054 007cfff9 fff0ffef     ..n.T.....|.....
 23fdd08:	007efff1 ffccffdf ffd90019 ffcaffdc     ..~.............
 23fdd18:	ff9fffc0 009e0010 ffde000a 00a5ffe1     ................
 23fdd28:	ffb5ffc9 004bffa6 ffbeffc1 ffc40034     ......K.....4...
 23fdd38:	ffabffb5 ffc4ffbb 00a70034 ffbafff5     ........4.......
 23fdd48:	00bbffca ffcbffc0 0062ffa4 ffb2ffaf     ..........b.....
 23fdd58:	ff9e002a ff8bff92 ff2e0004 0084ffb5     *...............
 23fdd68:	fffe0007 00b3003d 0047002f 00760066     ....=.../.G.f.v.
 23fdd78:	00090029 0012004e 000f000e ffc4ff7a     )...N.......z...
 23fdd88:	00ba00af ff09ff76 0088ffa5 ff82ff9e     ....v...........
 23fdd98:	fff9ff74 ff88ff8f ff8a0078 ff70ff7a     t.......x...z.p.
 23fdda8:	ffe0ffbd 009a0060 ff55ff78 0086ffce     ....`...x.U.....
 23fddb8:	ffa1ffb9 0032ff89 ff9affaa ffa900a9     ......2.........
 23fddc8:	ff93ff9e ff85ffca 0073fff2 ffe6ffe1     ..........s.....
 23fddd8:	008f000e ffe4fff2 003bfff8 fff0fff1     ..........;.....
 23fdde8:	fff50045 fff1ffdf 000dffc2 00690070     E...........p.i.
 23fddf8:	ff24ff6c 008affb1 ff91ffa5 002cff79     l.$.........y.,.
 23fde08:	ff93ff96 ff93003b ff83ff86 00210062     ....;.......b.!.
 23fde18:	ffff0007 ffb4ffd1 00b2ffcd ffb7ffb6     ................
 23fde28:	0059ffaa ffc6ffb9 ffb60077 ffaeffbc     ..Y.....w.......
 23fde38:	ff9bffaf 0093002e ffb9ffea 00aaffea     ................
 23fde48:	ffbeffd4 0002ffc2 ffb5ffc6 ffd7005f     ............_...
 23fde58:	ffc0ffb1 ff84ffc4 008d0013 ff8dffc3     ................
 23fde68:	00c3ffe6 ffaaffd8 0024ffae ffcfffcd     ..........$.....
 23fde78:	ffe70092 ffc5ffc2 ff92ffbd 007a0024     ............$.z.
 23fde88:	ffcbff9e 004fffc1 ffa8ffc2 ffdbff94     ......O.........
 23fde98:	ffa9ffb6 ffc300b1 ff8cffa4 ff6dffff     ..............m.
 23fdea8:	0055ffaf 002e0032 00880018 0014000d     ..U.2...........
 23fdeb8:	0065001b fff4000a 0001007b ffef0004     ..e.....{.......
 23fdec8:	ffc1ff95 00630082 ff70ff8d 0077ffb2     ......c...p...w.
 23fded8:	ff7cff99 fff7ff66 ff8aff91 ff970091     ..|.f...........
 23fdee8:	ff76ff7b ff94ffb7 00650038 ffa8ffcc     {.v.....8.e.....
 23fdef8:	009cffc1 ff92ffb1 0018ff88 ff9fffa7     ................
 23fdf08:	ffaa0065 ff94ff96 fef3007d 003bff42     e.......}...B.;.
 23fdf18:	004f002e 00950040 0014001f 00440033     ..O.@.......3.D.
 23fdf28:	002e0045 003f008a 002c0022 ff43ffed     E.....?.".,...C.
 23fdf38:	0073ffc2 00270011 00bafffe fff4fff0     ..s...'.........
 23fdf48:	000effde ffd9ffec ffe90072 ffcdffd0     ........r.......
 23fdf58:	ff64ffd0 005c000c ffdaffb9 00bc0004     ..d...\.........
 23fdf68:	ffe6fff0 004effdc ffd6ffdb ffe50079     ......N.....y...
 23fdf78:	ffceffd2 ff42ffcd 007bffe5 fff8fffc     ......B...{.....
 23fdf88:	009e0017 ffe50000 0019ffe2 ffe3fff1     ................
 23fdf98:	fff9007b fff2ffe2 ffe3ffe3 0070004d     {...........M.p.
 23fdfa8:	ff60ff8b 006dffba ffaeffa9 0000ff86     ..`...m.........
 23fdfb8:	ff98ffa3 ffa10095 ff83ff95 0010ffbe     ................
 23fdfc8:	00500077 ff10ff6e 0068ffa5 ff8dff95     w.P.n.....h.....
 23fdfd8:	0048ff71 ff88ff90 ff99009e ff70ff7c     q.H.........|.p.
 23fdfe8:	fff4ffed ffe90017 fff8ff91 00110009     ................
 23fdff8:	000800d0 ffea0029 ffd30063 00a4ffd6     ....)...c.......
 23fe008:	ffe2000b 00300046 ffaaffd3 ffc7ffaa     ....F.0.........
 23fe018:	0016ffdd fff000ed ffe10027 ffeb0078     ........'...x...
 23fe028:	008affcd ffb6fff4 ffd900a5 ff6aff98     ..............j.
 23fe038:	00590023 000b0013 000f00d7 00000017     #.Y.............
 23fe048:	000e004d 00a8fff6 00050025 0002012b     M.......%...+...
 23fe058:	ff19feaf 01580107 0082004b 00a3005b     ......X.K...[...
 23fe068:	008d00df 008c007e 0081009b 00730093     ....~.........s.
 23fe078:	00910098 ff70ff93 0025ffbb 004f0016     ......p...%...O.
 23fe088:	005300dc 00190075 0004007f 009a0010     ..S.u...........
 23fe098:	000b0014 0059ffe3 00190010 ffceff89     ......Y.........
 23fe0a8:	0000ffec 000700dd ffd7000e ffe70017     ................
 23fe0b8:	00acffdb ffcfffec ffbe00b3 ffeaff1d     ................
 23fe0c8:	0060fffe 008b0082 00910099 007400b0     ..`...........t.
 23fe0d8:	00510072 007b0067 00690068 006400ff     r.Q.g.{.h.i...d.
 23fe0e8:	fef2ff8a 00130020 ffddffc9 fff200bd     .... ...........
 23fe0f8:	ffcc002f ffd3ffc6 0095ffa1 ffb9ffde     /...............
 23fe108:	00a60137 fed6ff68 001e0023 00320009     7...h...#.....2.
 23fe118:	004500e0 000f008a 00050040 00b3ffe8     ..E.....@.......
 23fe128:	0015003e ff19004b 003cff25 0055002e     >...K...%.<...U.
 23fe138:	00ab0099 0060008d 00700092 005a006e     ......`...p.n.Z.
 23fe148:	00920081 007f0069 fff6001c ffb8ffd0     ....i...........
 23fe158:	ffe4ffec ffe6ffc2 003300e1 ffb80036     ..........3.6...
 23fe168:	ffbf0013 0075ffa7 ffc8ffdf 0045011e     ......u.......E.
 23fe178:	ff0cff40 ffe80007 ffeaffd6 ffff00a0     @...............
 23fe188:	ffeb0021 000b0069 00caffd9 ffe4000e     !...i...........
 23fe198:	ffe000c8 ff21ff80 001d004e 000bffe1     ......!.N.......
 23fe1a8:	002c0115 000a0036 fffd0081 007effc0     ..,.6.........~.
 23fe1b8:	ffce0004 ffdc0131 ff0aff38 ffedffea     ....1...8.......
 23fe1c8:	0036001f 00af00fc 002b0059 00250072     ..6.....Y.+.r.%.
 23fe1d8:	008effd0 0002001f fee9006c ff7effa4     ........l.....~.
 23fe1e8:	ffa8ffde 001ffffa 003c00c3 0007004b     ..........<.K...
 23fe1f8:	001e0077 00c6ffb5 ffe1000d 00bb012c     w...........,...
 23fe208:	ff96ff6e ff78ff93 003dffc7 004d00e5     n.....x...=...M.
 23fe218:	ffe0fff1 ffee0044 0089ffd2 ffd1001a     ....D...........
 23fe228:	ffe2ffed ffcb0032 ff3aff4e ffdeffc0     ....2...N.:.....
 23fe238:	ffe30115 ffc7ffba ffd5007d 004fff72     ........}...r.O.
 23fe248:	ffa9ffaa 003f0104 fed9ffbe ffbdffd6     ......?.........
 23fe258:	ffd2ffaf ffd3010a ffc5ffee ffe30065     ............e...
 23fe268:	0059ffc7 ffa3ffd2 ff41014d ff15fe95     ..Y.....M.A.....
 23fe278:	0147010c 00550056 00b50059 005700bf     ..G.V.U.Y.....W.
 23fe288:	00e7005c 008f0087 0072009a ffd7ffe4     \.........r.....
 23fe298:	ffc0ffd3 00190035 0041ffd7 fff2006f     ....5.....A.o...
 23fe2a8:	ffc1ffff fff30010 0094ffff ffaafffb     ................
 23fe2b8:	ffbffff9 ff64ffec ff24ffe2 ffe5ffa0     ......d...$.....
 23fe2c8:	ffc10109 ff8efffc ffa5008c 0074ff19     ..............t.
 23fe2d8:	ff77ffa7 ffb00033 ffe3ff70 005efff2     ..w.3...p.....^.
 23fe2e8:	0052003f 002c0095 0030006e 00240072     ?.R...,.n.0.r.$.
 23fe2f8:	0095002b 00340033 ffbcffdb 0016fff3     +...3.4.........
 23fe308:	0027ffe3 ffe9ffdc ffcf00ad ffc5ffe5     ..'.............
 23fe318:	ffd10038 0087ffdb ffb1ffd8 ffa1ffd8     8...............
 23fe328:	0049ffe2 00110016 ffffffe3 ffc40099     ..I.............
 23fe338:	ffc7ffd4 ffcc0057 0098ffea ffcdffe6     ....W...........
 23fe348:	005900f6 ff2eff03 00fe00fb 003e0021     ..Y.........!.>.
 23fe358:	00550082 00550086 005a007e 007b005d     ..U...U.~.Z.].{.
 23fe368:	00380049 004e000a ffdcffbe 003f0036     I.8...N.....6.?.
 23fe378:	fff6ffe5 ffcb00cd ffd5001d ffde0044     ............D...
 23fe388:	0089ffd2 ffd3ffee 00760003 ffe8ffd8     ..........v.....
 23fe398:	001d0006 ffdfffc4 ffbb00c2 ffbeffee     ................
 23fe3a8:	ffc0003f 0084ffa9 ffb4ffd9 ffc50057     ?...........W...
 23fe3b8:	ff77ff93 006e0049 002f0028 00b90037     ..w.I.n.(./.7...
 23fe3c8:	00320040 006e001b 00270004 001a009f     @.2...n...'.....
 23fe3d8:	ffa9ffbe 007a0021 ff9fffb1 ffdfffe5     ....!.z.........
 23fe3e8:	00f1ffe3 ffd5ffe5 0056ffce ffcaff9a     ..........V.....
 23fe3f8:	ffc100b2 0022ff9f ffbe009d ff78ffb3     ......".......x.
 23fe408:	ff94ff9b 0111ffa7 ffc6ffa6 0061ff92     ..............a.
 23fe418:	ff8aff53 ff9100be ff57001c 0050ff96     S.........W...P.
 23fe428:	fffaffef 00210020 009c002b 00330028     .... .!.+...(.3.
 23fe438:	0042001f 0029002a 00200092 ff8cffbc     ..B.*.)... .....
 23fe448:	00720010 fffd0021 ffd1ffd3 0123ffdd     ..r.!.........#.
 23fe458:	ffcfffdb ffdbffc9 ffc8ffae ffc4009d     ................
 23fe468:	ffdeffd6 0061003a ffa0ffa4 ff98ffa4     ....:.a.........
 23fe478:	0100ffc0 ffb0ffb3 0013ff9e ffa8ff98     ................
 23fe488:	ffa2009c 005d0017 ffd3ffbc 0019ffdb     ......].........
 23fe498:	ffeefffc 00bb0028 0009fff9 0050ffec     ....(.........P.
 23fe4a8:	fff5ffea fff70096 0018ffea 0014ffdc     ................
 23fe4b8:	ffeaffbe fff40005 00c7fffc 0001fff5     ................
 23fe4c8:	0025fffa 0000ffe9 fffc0082 0037fff3     ..%...........7.
 23fe4d8:	002fffeb ffc3ffbd ffddffe8 0103fff3     ../.............
 23fe4e8:	ffe9ffdd 0044ffdd ffd7ffbc ffcd0080     ......D.........
 23fe4f8:	ff8f0051 ffe8ff71 006e0053 002b0024     Q...q...S.n.$.+.
 23fe508:	00a50025 002d002b 0022000a 001c0016     %...+.-...".....
 23fe518:	001f008c 007300b8 ff26ffb6 003a004d     ......s...&.M.:.
 23fe528:	ff94ff98 00ebffdd ffd6ffb3 000aff97     ................
 23fe538:	ffa7ff80 ffa400bc 00010004 ffbfffef     ................
 23fe548:	0003ffe5 ffb4ffb9 00b3ffe6 ffe2ffb8     ................
 23fe558:	ffe9ffa8 ffaeff8b ffa800b6 0055fff3     ..............U.
 23fe568:	fffcfffd ffd2ffd2 ffcbffc9 011effe7     ................
 23fe578:	ffd0ffd5 0016ffb1 ffc9ffb2 ffbb00b2     ................
 23fe588:	00b2001b ff90fffd ff9affd5 ffa1ffa6     ................
 23fe598:	00feffc8 ffdfffa0 002eff9d ffa7ff78     ............x...
 23fe5a8:	ffa000af 0083fff8 ffcb0030 ffa4ff80     ........0.......
 23fe5b8:	ffb6ffbc 0114ffd0 ffd2ffaf 0030ffb8     ..............0.
 23fe5c8:	ffadff80 ffb000b2 ffcbffe9 0021ffc9     ..............!.
 23fe5d8:	0024000a fff5fffa 009b0011 ffff0002     ..$.............
 23fe5e8:	0010ffe9 0009ffe2 000500a3 001600e2     ................
 23fe5f8:	ff4dff60 006f00b1 fff3ffee 00e8fff3     `.M...o.........
 23fe608:	0024002f 0031fffe fff4ffe7 ffed00a3     /.$...1.........
 23fe618:	008d009a ff4effa9 0047003f ffb8ffb5     ......N.?.G.....
 23fe628:	0124ffff fffaffe4 002cffb7 ffd3ffbf     ..$.......,.....
 23fe638:	ffc400b3 ff8c005b ffbbff74 000b0023     ....[...t...#...
 23fe648:	003c001f 00e0004b 005900c2 00610030     ..<.K.....Y.0.a.
 23fe658:	0005fff8 00300096 ffaefff8 ffedffea     ......0.........
 23fe668:	ffaefff5 ffd5ffd5 00ddffe4 ffc1ffb9     ................
 23fe678:	0088ffb5 ffe3ffe4 ffe700be ffc4001b     ................
 23fe688:	ff5fffeb 0007ffe8 ffa4ffa3 00b3ffd0     .._.............
 23fe698:	ffb2ffb0 0026ff99 ffbaff88 ff9000be     ......&.........
 23fe6a8:	0096ffda ffd70027 ffe2ffb5 ffb7ffb0     ....'...........
 23fe6b8:	011a000d ffdc0001 0015ffb9 ffdfff9b     ................
 23fe6c8:	ffc5007c 00d70022 ff8cffdb ff890019     |..."...........
 23fe6d8:	ff8dff93 00b9ffd4 ffd6ffa6 003fff9b     ..............?.
 23fe6e8:	ffb0ffc0 ffb200be 01120028 ff74001d     ........(.....t.
 23fe6f8:	ff7cffb7 ff99ff8a 00d3ffd8 ffdcffae     ..|.............
 23fe708:	0043ff9a ffa3ff90 ff9100be 006100cd     ..C...........a.
 23fe718:	ff53ffb4 001d004a ffcfffd4 00ccffd1     ..S.J...........
 23fe728:	ffdefffd 006dffcf ffd3ffbe ffd400b4     ......m.........
 23fe738:	0023003a ff790016 fff7003a ffa8ffa0     :.#...y.:.......
 23fe748:	00d1ffb3 ffbcffbc 0052ffab ffb2ff89     ..........R.....
 23fe758:	ff9f00b3 ffdb007c ff64ffae 00490080     ....|.....d...I.
 23fe768:	ffd5ffe6 00c3ffdf fffaffec 0053ffd4     ..............S.
 23fe778:	ffd5ffbe ffda00b5 ffd7ffa3 002d0060     ............`.-.
 23fe788:	ffbdffc5 ffa7ffc3 ffacffb4 ffabfff2     ................
 23fe798:	ffb0ffbe ffbd0090 005bffb0 ffeeffd3     ..........[.....
 23fe7a8:	00320076 ff59ff8b ff83ff9d ff96ff9f     v.2...Y.........
 23fe7b8:	ff81ffe2 ff79ffae ff7cffe9 00a1ff84     ......y...|.....
 23fe7c8:	fff9ffc3 fff00076 ff9cff52 ff86ff9e     ....v...R.......
 23fe7d8:	ff98ff97 ff79ffea ff7affb3 ff81000e     ......y...z.....
 23fe7e8:	0096ff7c fff30012 001e0008 ffeeffc4     |...............
 23fe7f8:	ffbcffd5 ffc6ffc5 ffbf0005 ffb3ffcc     ................
 23fe808:	ffbb004f 0091ffb7 0080ffc8 fff20090     O...............
 23fe818:	ffabff87 ff72ff8d ffa8ff89 ff6effc3     ......r.......n.
 23fe828:	ff79ff96 ff79002c 00a3ff77 00c50025     ..y.,.y.w...%...
 23fe838:	ffae004a ff9cff7f ff74ff8d ffb0ff91     J.........t.....
 23fe848:	ff73ffe6 ff83ff98 ff85006b 0067ff77     ..s.....k...w.g.
 23fe858:	0025001e 0013000b ffceff9a ffe3ffe9     ..%.............
 23fe868:	ffeaffe3 ffd5003d ffcdffe4 ffd8006e     ....=.......n...
 23fe878:	0086ffd3 00b90079 001f0028 ff77ff76     ....y...(...v.w.
 23fe888:	ff77ff8c ffa2ff85 ff7dfffb ff8cff9d     ..w.......}.....
 23fe898:	ff8e005a 0081ff87 0064ffc7 00070087     Z.........d.....
 23fe8a8:	ff75ffaa ff6dff89 ff9fff7d ff71ffec     ..u...m.}.....q.
 23fe8b8:	ff7cff95 ff770097 0049ff6f ffb3004c     ..|...w.o.I.L...
 23fe8c8:	0059ff76 0009fffe fff60018 fffefffd     v.Y.............
 23fe8d8:	0006006b 0008000b 0010004d 00940009     k.......M.......
 23fe8e8:	00b1000f 00200052 ff27ffc7 ff66ff86     ....R. ...'...f.
 23fe8f8:	ff95ff7f ff6cffd0 ff84ff89 ff7a004f     ......l.....O.z.
 23fe908:	0057ff76 0026ff95 002a00a5 ff5aff94     v.W...&...*...Z.
 23fe918:	ff74ff92 ffa8ff89 ff6affc9 ff78ff97     ..t.......j...x.
 23fe928:	ff7f0037 0090ff76 000dffcf 00280042     7...v.......B.(.
 23fe938:	ffe5ffad ffa8ffc2 ffaeffb4 ffa80022     ............"...
 23fe948:	ffb7ffbd ffbd008f 0066ffae 0076ff84     ..........f...v.
 23fe958:	fff800c9 ff99ff73 ff5cff78 ff6eff80     ....s...x.\...n.
 23fe968:	ff5dffdb ff6bff93 ff680099 003aff61     ..]...k...h.a.:.
 23fe978:	0077ffa9 001200ad ff7eff8e ff55ff72     ..w.......~.r.U.
 23fe988:	ff6eff75 ff4effa0 ff66ff8e ff670063     u.n...N...f.c.g.
 23fe998:	006dff5a 00c20057 001a0006 ffa8ff6d     Z.m.W.......m...
 23fe9a8:	ff9effb7 ffc2ffaf ffa20011 ffadffbd     ................
 23fe9b8:	ffae0069 0078ffaa 00fa0064 ffce0029     i.....x.d...)...
 23fe9c8:	ff98ff67 ff76ff88 ff90ff84 ff7bffee     g.....v.......{.
 23fe9d8:	ff7fffa0 ff790048 0074ff7c 0033ffa6     ....H.y.|.t...3.
 23fe9e8:	004500a0 ff8fff9e ff6eff87 ff81ff84     ..E.......n.....
 23fe9f8:	ff6affeb ff74ff84 ff6d0043 0076ff6e     ..j...t.C.m.n.v.
 23fea08:	005ffffc 00110033 ffc6ff8a ffadffb8     .._.3...........
 23fea18:	ffbdffb5 ffa00023 ffbfffc6 ffac007a     ....#.......z...
 23fea28:	0063ffa0 0035ff7b 001600d0 ffc1ff5d     ..c.{.5.....]...
 23fea38:	ff60ff78 ff60ff70 ff52ffac ff60ff80     x.`.p.`...R...`.
 23fea48:	ff62001b 0094ff5d 001cfff0 00070058     ..b.].......X...
 23fea58:	ff90ff5c ff9fffa1 ffa7ffab ff88fff2     \...............
 23fea68:	ff85ffc4 ff8bffee 00adff88 0044fff9     ..............D.
 23fea78:	fff2004b ffd0ffbe ffb5ffb6 ffcaffbf     K...............
 23fea88:	ffaf0004 ffbaffc4 ffa2007b 0054ffa7     ........{.....T.
 23fea98:	00ca000a ffec0072 ff5eff95 ff71ff80     ....r.....^...q.
 23feaa8:	ff95ff94 ff76ffea ff8bff92 ff7f0066     ......v.....f...
 23feab8:	006aff79 0038ff6e 001000d5 ff72ffa4     y.j.n.8.......r.
 23feac8:	ff67ff7e ff8dff8e ff68ffe2 ff7aff91     ~.g.......h...z.
 23fead8:	ff7a0064 006eff6a fff3000e 0021ffdb     d.z.j.n.......!.
 23feae8:	00220072 fff400a6 fff0ffea 008f0037     r.".........7...
 23feaf8:	ffeaffe5 0087ffd4 ffd5ffe9 ff9fffee     ................
 23feb08:	0057ffc5 00420051 001b00bf fff1fff0     ..W.Q.B.........
 23feb18:	00a90021 fffefff4 002affd5 fff8ffec     !.........*.....
 23feb28:	004bffa1 00540033 ffeb006a ffee00bb     ..K.3.T.j.......
 23feb38:	ffbbffba 008dfffd ffd9ffb2 0090ffad     ................
 23feb48:	ffacffc1 0008ffca fff90030 000f002c     ........0...,...
 23feb58:	ffda00bf ffd2ffc5 00820023 ffe3ffbc     ........#.......
 23feb68:	008fffc4 ffbeffe3 ffb9ffb5 000d0048     ............H...
 23feb78:	000c0012 ffd300cc ffd9ffc8 00a3ffec     ................
 23feb88:	ffe1ffc2 0042ff8d ffb7ffb7 ff2bffb9     ......B.......+.
 23feb98:	008fffe2 001e003f fff400d0 ffeeffe7     ....?...........
 23feba8:	00c60001 ffffffed 0010ffd3 ffedffdc     ................
 23febb8:	ffa30011 004affbf 0019ffe2 002e00aa     ......J.........
 23febc8:	0061002a 00b10059 0017000f 0046fff1     *.a.Y.........F.
 23febd8:	00050015 ffb1ffce 00470006 001b0004     ..........G.....
 23febe8:	ffe30096 fffeffd8 00a9fff5 0001ffdd     ................
 23febf8:	0054ffc8 ffd1ffd8 fffcfff1 0030ffe5     ..T...........0.
 23fec08:	00170018 000f00ad ffe5ffe5 0066001a     ..............f.
 23fec18:	0012ffe2 00730004 fff3ffee 005d003a     ......s.....:.].
 23fec28:	ffe2ffc9 0004000d ffe70096 ffefffcd     ................
 23fec38:	00660066 fff5ffd9 00a2ffef ffcaffdf     f.f.............
 23fec48:	0029ff95 ffe00066 ffe2001d ff9400b3     ..).f...........
 23fec58:	ff91ff86 007dffdd ffb6ff8f 0066ff7f     ......}.......f.
 23fec68:	ff85ff95 ffe3ffd0 0042002e ffd0ffe6     ..........B.....
 23fec78:	ffc500a6 ffa8ffb9 007dffdf ffc5ffbd     ..........}.....
 23fec88:	0065ffae ffabffbd ffe2fff0 001dffd8     ..e.............
 23fec98:	002d004f 00020098 ffdaffe0 00820027     O.-.........'...
 23feca8:	fff3ffd6 0082ffe0 ffe70002 0010ffb2     ................
 23fecb8:	ffdd003b 001e002c ffba00af ffb0ffab     ;...,...........
 23fecc8:	007d0009 ffe9ffb0 00aeff8d ff9bffbb     ..}.............
 23fecd8:	ffe1ffbc 0028001b 00240054 ffc100c8     ......(.T.$.....
 23fece8:	ffb8ffbb 008f000c fff4ffc2 009effd0     ................
 23fecf8:	ffafffcc ff80003d 0037ff51 00710023     ....=...Q.7.#.q.
 23fed08:	007100a2 006d004d 008c00a4 00540044     ..q.M.m.....D.T.
 23fed18:	0064004f 00610057 003cffd5 002d000c     O.d.W.a...<...-.
 23fed28:	002b000e 000400cb fff5ffd4 007d002b     ..+.........+.}.
 23fed38:	002cffd1 006bffa5 ffe3fffc 0017ff8d     ..,...k.........
 23fed48:	00180055 00160010 ffc400a1 ffa2ffad     U...............
 23fed58:	0071001a ffecffb1 00abffb1 ffa6ffcc     ..q.............
 23fed68:	ff98fff5 001fffcd 00260029 001c00b1     ........).&.....
 23fed78:	000a0006 00890048 000c0018 004afffe     ....H.........J.
 23fed88:	00070004 0049ff8b 002a00a3 ffadffd1     ......I...*.....
 23fed98:	ffc400ec ff9aff9c 00a3ffd8 ffa4ff9a     ................
 23feda8:	0033ff64 ff98ffa9 ffe0ff85 006f0059     d.3.........Y.o.
 23fedb8:	ffdd003e ffbd00c2 ffa6ffa8 003affaf     >.............:.
 23fedc8:	ff9fff99 0077ff74 ff92ffa9 0008ffe2     ....t.w.........
 23fedd8:	0016ffe7 00510033 ffe900c0 0004ffdd     ....3.Q.........
 23fede8:	00740035 fffaffe3 0062ffc9 ffe1ffe7     5.t.......b.....
 23fedf8:	001cffca 00420001 002c004d fff000d7     ......B.M.,.....
 23fee08:	ffdcffcc 00840002 ffe2ffc6 002affa2     ..............*.
 23fee18:	ffd2ffd7 001affbd 007e0027 fff0000a     ........'.~.....
 23fee28:	ffed00dd ffcfffda 007dfffb ffdbffcd     ..........}.....
 23fee38:	0038ff94 ffcbffd0 fff40029 0040ff5e     ..8.....)...^.@.
 23fee48:	0080001d 009f0069 003d0051 00910072     ....i...Q.=.r...
 23fee58:	005600b6 0074007d 003a0064 0085ff97     ..V.}.t.d.:.....
 23fee68:	00860058 ffa6ffc9 00c0ffd9 ffc1ffdd     X...............
 23fee78:	0024ffcb ffd600d5 fff30041 ffc9006e     ..$.....A...n...
 23fee88:	00fdffee 000efff8 00500038 00aaffd7     ........8.P.....
 23fee98:	fff90004 0070fffe fff10117 ffeeffee     ......p.........
 23feea8:	ffcd006b fff10007 002dffbc 002bfffe     k.........-...+.
 23feeb8:	00bf0021 002e0036 0068004a 001700c9     !...6...J.h.....
 23feec8:	0021004d 00160060 0066ffcf fff30012     M.!.`.....f.....
 23feed8:	00230019 00bdffe5 ffd2fff1 0044ffed     ..#...........D.
 23feee8:	fff600e8 ffdb0051 ffd00055 0038ffc6     ....Q...U.....8.
 23feef8:	002d0019 001e0009 00eeffde ffb3ffdb     ..-.............
 23fef08:	0021ffcc ffc000dc ffccffff ffc50044     ..!.........D...
 23fef18:	0012ffbd 003efff4 0056004c 00b8fff6     ......>.L.V.....
 23fef28:	ffc4fffc 002dffd6 ffe300c4 fff7ffe4     ......-.........
 23fef38:	ffe50077 0017ff9f 00710019 00220053     w.........q.S.".
 23fef48:	00b8ffd8 ffb9ffd6 0032ffd2 ffe4010f     ..........2.....
 23fef58:	ffcc000a ffb50049 001cff5b 00ab0069     ....I...[...i...
 23fef68:	0023002a 009affc5 ff95ffc1 0018ff99     *.#.............
 23fef78:	ffbe010a ffc8ffec ff9d0079 ffe1ffc0     ........y.......
 23fef88:	0082ffdd 0016001f 009b0021 fffc001b     ........!.......
 23fef98:	003b001c 000100b2 00230056 00110065     ..;.....V.#.e...
 23fefa8:	0019ffc0 006bfff2 00560040 00beffff     ......k.@.V.....
 23fefb8:	ffc8fff9 0047ffe0 ffe90109 ffecffe8     ......G.........
 23fefc8:	ffd50055 003cffcc 00160000 008e0030     U.....<.....0...
 23fefd8:	00e7ffed ffcfffe3 0020ffdf ffd200ed     .......... .....
 23fefe8:	ffd6ffd6 ffca0035 ff8bffe2 0029ffc9     ....5.........).
 23feff8:	00760047 00a9fffc ffcffff6 0032fff1     G.v...........2.
 23ff008:	fff2008d 00030025 fffc0071 fff5ffd6     ....%...q.......
 23ff018:	ffcb000c 009d003f 00a4ffbe ffa8ffc3     ....?...........
 23ff028:	0031ffc5 ffc000c4 ffbc0016 ffae0090     ..1.............
 23ff038:	ffe3ffc5 ffcc0010 009f005c 007cffbf     ........\.....|.
 23ff048:	ffadffcf 0046ffd0 ffc500d0 ffb7001e     ......F.........
 23ff058:	ffaf007d 0058ffe7 ffde000e 00030003     }.....X.........
 23ff068:	00cffff3 ffd5fffc 0043ffe8 fff300e6     ..........C.....
 23ff078:	ffe70014 ffe60058 0078ff93 ffff0067     ....X.....x.g...
 23ff088:	ffdd0029 00acffad ff89ffba 0018ffa8     )...............
 23ff098:	ffc1010d ffae0005 ff870034 ffccff8b     ........4.......
 23ff0a8:	0077003f fff40009 0095ffbf ff94ffbd     ?.w.............
 23ff0b8:	0007ffa3 ffb900ec ffb2ffb2 ffa40016     ................
 23ff0c8:	0049ffbe 0023000f 0040fffc 00b2ffef     ..I...#...@.....
 23ff0d8:	ffe7ffe7 0043000c 000900cc fff70051     ......C.....Q...
 23ff0e8:	ffdf0061 0082ffa3 00360038 00120026     a.......8.6.&...
 23ff0f8:	00c3ffcb ffb9ffda 0027ffe9 ffc100eb     ..........'.....
 23ff108:	ffb5fffb ffad0056 00a7ff99 00060050     ....V.......P...
 23ff118:	001affec 009affc2 ffa5ffc7 000dffeb     ................
 23ff128:	ffd00117 ffc0ffcc ffae0055 ff57fff1     ........U.....W.
 23ff138:	0072ffb7 001e001c 00b20023 00250036     ..r.....#...6.%.
 23ff148:	0065003b 002800bb 0025003a 000a0058     ;.e...(.:.%.X...
 23ff158:	ff6bff83 00b2002f fff20037 00c3ffe5     ..k./...7.......
 23ff168:	ffbbffe4 002effca ffe200e6 ffe00031     ............1...
 23ff178:	ffc9004f 0007ffed ffdcfffd 00740049     O...........I.t.
 23ff188:	00ddffdb ffd0ffe2 004cfffb ffda00d7     ..........L.....
 23ff198:	ffcdfff5 ffba0060 fffc000a 0060ffa7     ....`.........`.
 23ff1a8:	00310015 0055002c 004b0098 004e0063     ..1.,.U...K.c.N.
 23ff1b8:	00c00048 002d003b 005b002a 004ffffd     H...;.-.*.[...O.
 23ff1c8:	00260009 ffc0ff98 ffd8ffd4 ffd700a7     ..&.............
 23ff1d8:	ffcdffc8 00bb000b ffd9ffca 009fffd2     ................
 23ff1e8:	006cffe1 00320028 ffb0ffad ffc0ffc1     ..l.(.2.........
 23ff1f8:	ffbc009d ffbbffaf 00a7fffd ffd1ffb6     ................
 23ff208:	00a9ffb1 ffd1fff8 0006fffb ffe5ffa3     ................
 23ff218:	fffdfffe 00020085 fffe0000 00bb0028     ............(...
 23ff228:	fff90005 0076ffe0 0028ff64 001200cf     ......v.d.(.....
 23ff238:	ff8eff5d ff79ff8c ff79006f ff70ff52     ].....y.o.y.R.p.
 23ff248:	00f1ffc8 ff9affb8 0065ff72 ffbeffcb     ........r.e.....
 23ff258:	00260032 0000ffb1 ffccffc8 ffc7007a     2.&.........z...
 23ff268:	ffc1ffcb 00c3fffb ffd3ffbf 009bffb6     ................
 23ff278:	0025ffac 0045001e 002bffd4 0003fffe     ..%...E...+.....
 23ff288:	ffe9006b fff2fff3 00a20021 000c0020     k.......!... ...
 23ff298:	005efff3 0075ffa7 004d0052 ffc0ff98     ..^...u.R.M.....
 23ff2a8:	ffc4ffc4 ffb30075 ffadffb3 0095fffa     ....u...........
 23ff2b8:	ffe3ffd9 009bffc5 0052ffa3 004f005d     ..........R.].O.
 23ff2c8:	ffbfff92 ffadffbb ffba0071 ffb3ffb5     ........q.......
 23ff2d8:	00d3ffeb ffc0ffc7 0068ffaa ffd3ffbe     ..........h.....
 23ff2e8:	00560032 ffdcffc2 ffdeffdb ffe00051     2.V.........Q...
 23ff2f8:	ffe1ffe4 00ea000c ffe9fff0 005cffce     ..............\.
 23ff308:	0029ff8b 004e0090 ff8bff87 ff9affa5     ..)...N.........
 23ff318:	ff870050 ff87ff7f 00a6ffcc ffafff96     P...............
 23ff328:	00a5ff8b 002cffa3 00430057 ffc3ffe6     ......,.W.C.....
 23ff338:	ffacffae ffaa007b ffa3ffaf 00e1ffef     ....{...........
 23ff348:	ffc6fff4 0097ff9e ffc7ffbc 0028000e     ..............(.
 23ff358:	0024ffdc ffe4fff2 ffda0057 ffdcffda     ..$.....W.......
 23ff368:	00a7001e 000c0008 00a5ffd8 003dffae     ..............=.
 23ff378:	fff10052 002affd4 ffacffb3 ffb7007c     R.....*.....|...
 23ff388:	ffa8ffb4 00c30024 fff1ffee 00a8ffa0     ....$...........
 23ff398:	fff7ffc3 ffed003a fffbff9a ff99ffaa     ....:...........
 23ff3a8:	ff890041 ff83ff81 0068fff4 ffb1ff84     A.........h.....
 23ff3b8:	00b7ff96 ffadffef fff4ffe5 002bffe7     ..............+.
 23ff3c8:	ffeafff2 ffe80078 ffe5fff4 00ac0026     ....x.......&...
 23ff3d8:	0010001e 0091ffdc 0008ffb2 00050062     ............b...
 23ff3e8:	ffb3ffb1 ff9cffa6 ff900070 ff8bff82     ........p.......
 23ff3f8:	00a4fff6 ffd1ffb8 00a1ff8f 0003ffde     ................
 23ff408:	ffc9002f ffd2ffa0 ffb7ffb3 ffc00088     /...............
 23ff418:	ffa8ffbb 00a5fff4 ffecffc0 00b8ffa4     ................
 23ff428:	000cfffd 0060ffa7 0029fffc 00260027     ......`...).'.&.
 23ff438:	001a008b 0011001f 00b60038 00320034     ........8...4.2.
 23ff448:	0052000d 0077ffbb 001b004a ffd3ff59     ..R...w.J...Y...
 23ff458:	ffb7ffbb ffa90083 ffacffa0 00aaffd6     ................
 23ff468:	ffd3ffb6 005bffa5 0072ffb6 00340054     ......[...r.T.4.
 23ff478:	ff99ff5d ffb5ffc2 ff9d0069 ffa5ff9b     ].......i.......
 23ff488:	0095ffea ffcaffaa 0090ffa9 ffba0016     ................
 23ff498:	000cffde 003bffe5 fff8fff0 fffe00a2     ......;.........
 23ff4a8:	fff6000d 00d8002b 0006000b 0073ffe3     ....+.........s.
 23ff4b8:	ffdcff7d 000d0098 002dffac ffb5ffc9     }.........-.....
 23ff4c8:	ffc40076 ffb1ffaa 00ea0013 ffe3ffe5     v...............
 23ff4d8:	0086ffa0 fffdffb0 fffc0061 fffdffd1     ........a.......
 23ff4e8:	ffbbffc5 ffd5009e ffbbffa4 010afffa     ................
 23ff4f8:	ffe8ffac 0059ffa7 fffb000c 0010000c     ......Y.........
 23ff508:	ffadff84 ffcc0005 0030ffd6 ffc0ffc5     ..........0.....
 23ff518:	ffdeffd9 ffe500a9 ffb7ffd5 0030ffc4     ..............0.
 23ff528:	000d0084 ff1cff28 ff73ffd2 0029ff84     ....(.....s...).
 23ff538:	ff62ff63 ff85ff7e ff8c00b4 ff5bff92     c.b.~.........[.
 23ff548:	0062fff0 fffc007a ff21ff10 ff6dffc6     ..b.z.....!...m.
 23ff558:	002bff7c ff5eff68 ff91ff79 ff7a00b4     |.+.h.^.y.....z.
 23ff568:	ff4fff80 ffb4ffdb 001a0000 ffb0ffc3     ..O.............
 23ff578:	ffbffffa 004effc5 ffb0ffc4 ffccffbd     ......N.........
 23ff588:	ffd200ac ffaaffc0 ffe8ffba 00130058     ............X...
 23ff598:	ffc9ff9e ff8cffe4 005cff94 ff83ff97     ..........\.....
 23ff5a8:	ffb8ff91 ffa500b4 ff6cff9f ffeeffa2     ..........l.....
 23ff5b8:	0019007f ffc2ff76 ff70ffbe 0006ff7c     ....v.....p.|...
 23ff5c8:	ff6cff70 ff9bff7f ff8f00b4 ff5aff88     p.l...........Z.
 23ff5d8:	ffaaffee 0043ffea fff7ffda ffe90039     ......C.....9...
 23ff5e8:	0061ffe7 ffd7ffef fff5ffdf ffff00aa     ..a.............
 23ff5f8:	ffd3ffee ffc9ffc8 00340043 ff8fff89     ........C.4.....
 23ff608:	ff9dfff2 0079ffa5 ff9effba ffbcffaf     ......y.........
 23ff618:	ffb900b3 ff8cffa9 0008ffa9 00300078     ............x.0.
 23ff628:	ff94ffb3 ff7effd7 0043ff86 ff75ff8a     ......~...C...u.
 23ff638:	ffa9ff8b ffa700b4 ff65ff8c ff7bffe4     ..........e...{.
 23ff648:	004affea ffe3ffef fff80026 0071fff7     ..J.....&.....q.
 23ff658:	ffe2ffee fff3ffee fffe00a9 ffeffff0     ................
 23ff668:	0076fff2 fffd0067 ff78ff63 ff6effd1     ..v.g...c.x...n.
 23ff678:	0017ff80 ff5cff6a ff89ff74 ff8200b4     ....j.\.t.......
 23ff688:	ff50ff7c 0007ffa3 00300084 ff64ffa0     |.P.......0...d.
 23ff698:	ff6cffda 0009ff80 ff60ff6a ff8cff77     ..l.....j.`.w...
 23ff6a8:	ff8f00b4 ff5eff81 ffd0fffd 001d0013     ......^.........
 23ff6b8:	ffafff75 ffde001e 009bffea ffeb000b     u...............
 23ff6c8:	ffdeffd9 ffde0096 ffc7ffde ffebff92     ................
 23ff6d8:	0044007a ff80ffae ff74ffcf ffe9ff82     z.D.......t.....
 23ff6e8:	ff66ff6b ff9bff8d ffa600b4 ff68ff87     k.f...........h.
 23ff6f8:	002cffcc 00430069 ff4dff90 ff6effcf     ..,.i.C...M...n.
 23ff708:	002aff81 ff67ff69 ff9dff7f ff9000ab     ..*.i.g.........
 23ff718:	ff5dff82 ff82002d 002cffa8 ffe1ffd0     ..].-.....,.....
 23ff728:	00150051 00820011 fffe0019 000e0017     Q...............
 23ff738:	001f0073 00030008 ffb6ff93 00320077     s...........w.2.
 23ff748:	ff9cff98 ff83fff0 0032ff8c ff75ff7f     ..........2...u.
 23ff758:	ff99ff8e ff9a00b4 ff73ff8f ffb5ff8a     ..........s.....
 23ff768:	00260072 ffd5ffe5 ff7dffd9 0039ff84     r.&.......}...9.
 23ff778:	ff70ff71 ff99ff87 ff9c00ad ff6aff93     q.p...........j.
 23ff788:	ffcf0029 fff7ffde 000fffaa fffe0019     )...............
 23ff798:	007afffe ffee000e 0025fffd fffc00a0     ..z.......%.....
 23ff7a8:	ffd2fff2 00880003 ffe40067 ffe6ff2c     ........g...,...
 23ff7b8:	ff850021 0073ff89 ff7aff86 0003ff9a     !.....s...z.....
 23ff7c8:	ffa600b4 ff69ffa6 0036ff7d 002000c0     ......i.}.6... .
 23ff7d8:	ffb8ff43 ff75000c 0032ff7b ff5dff68     C.....u.{.2.h.].
 23ff7e8:	ffd5ff7e ff8700b2 ff61ff94 ffbeffca     ~.........a.....
 23ff7f8:	002f0020 ffc9ffd9 ffb1ffdf 0061ffb3      ./...........a.
 23ff808:	ffb1ffc9 ffc8ffb4 ffcc00ad ff9bffc6     ................
 23ff818:	0003ffd1 000a004e ff68ff86 ff91fff1     ....N.....h.....
 23ff828:	00a4ff98 ff78ff8c ffa3ff95 ff9100ac     ......x.........
 23ff838:	ff6dffb6 0035ffb5 006c0097 feeaff40     ..m...5...l.@...
 23ff848:	ff5effb8 fff2ff6e ff4eff45 ff7dff6c     ..^.n...E.N.l.}.
 23ff858:	ff8200b4 ff48ff6e                       ....n.H.

023ff860 <_ZL15CHORD_KNN_SCALE>:
 23ff860:	42733a73 4149da57 407636b1 404dc926     s:sBW.IA.6v@&.M@
 23ff870:	401ef201 401d363b 3e54d386 3e42077c     ...@;6.@..T>|.B>
 23ff880:	3e4dfebf 3e12c21d 3e021fbe 3e3a563f     ..M>...>...>?V:>
 23ff890:	3e398a1e 3e305912 3e2b849b 3e5a7b5d     ..9>.Y0>..+>]{Z>
 23ff8a0:	3e694380 3e578262                       .Ci>b.W>

023ff8a8 <_ZL16chord_knn_labels>:
	...
 23ff8d8:	00010001 00010001 00010001 00010001     ................
 23ff8e8:	00010001 00010001 00010001 00010001     ................
 23ff8f8:	00010001 00010001 00010001 00010001     ................
 23ff908:	00020002 00020002 00020002 00020002     ................
 23ff918:	00020002 00020002 00020002 00020002     ................
 23ff928:	00020002 00020002 00020002 00020002     ................
 23ff938:	00030003 00030003 00030003 00030003     ................
 23ff948:	00030003 00030003 00030003 00030003     ................
 23ff958:	00030003 00030003 00030003 00030003     ................
 23ff968:	00040004 00040004 00040004 00040004     ................
 23ff978:	00040004 00040004 00040004 00040004     ................
 23ff988:	00040004 00040004 00040004 00040004     ................
 23ff998:	00050005 00050005 00050005 00050005     ................
 23ff9a8:	00050005 00050005 00050005 00050005     ................
 23ff9b8:	00050005 00050005 00050005 00050005     ................
 23ff9c8:	00050005 00060005 00060006 00060006     ................
 23ff9d8:	00060006 00060006 00060006 00060006     ................
 23ff9e8:	00060006 00060006 00060006 00060006     ................
 23ff9f8:	00060006 00060006 00060006 00070007     ................
 23ffa08:	00070007 00070007 00070007 00070007     ................
 23ffa18:	00070007 00070007 00070007 00070007     ................
 23ffa28:	00070007 00070007 00070007 00080008     ................
 23ffa38:	00080008 00080008 00080008 00080008     ................
 23ffa48:	00080008 00080008 00080008 00080008     ................
 23ffa58:	00080008 00080008 00080008 00090009     ................
 23ffa68:	00090009 00090009 00090009 00090009     ................
 23ffa78:	00090009 00090009 00090009 00090009     ................
 23ffa88:	00090009 00090009 00090009 000a000a     ................
 23ffa98:	000a000a 000a000a 000a000a 000a000a     ................
 23ffaa8:	000a000a 000a000a 000a000a 000a000a     ................
 23ffab8:	000a000a 000a000a 000a000a 000b000b     ................
 23ffac8:	000b000b 000b000b 000b000b 000b000b     ................
 23ffad8:	000b000b 000b000b 000b000b 000b000b     ................
 23ffae8:	000b000b 000b000b 000b000b              ............

023ffaf4 <_ZTV22Microphone_PDM_RTL872x>:
	...
 23ffafc:	023f85ff 023f8609 023f85f5 023f8617     ..?...?...?...?.
 23ffb0c:	023f85f9 023f863f 023f8601 023f864f     ..?.?.?...?.O.?.
 23ffb1c:	023f8661 023f868f                       a.?...?.

023ffb24 <_ZTV18Microphone_PDM_MCU>:
	...
 23ffb2c:	023f871d 023f8731 023f85f5 023f8617     ..?.1.?...?...?.
 23ffb3c:	023f85f9 023f863f 023f8601 023f864f     ..?.?.?...?.O.?.
 23ffb4c:	023f8661 023f868f                       a.?...?.

023ffb54 <_ZTV14Microphone_PDM>:
	...
 23ffb5c:	023f8745 023f8759 023f85f5 023f8707     E.?.Y.?...?...?.
 23ffb6c:	023f8701 023f870b 023f870f 023f8713     ..?...?...?...?.
 23ffb7c:	023f8717 023f877f                       ..?...?.

023ffb84 <_ZTVN5spark13EthernetClassE>:
	...
 23ffb8c:	023f8f6b 023f8f61 023f8f57 023f8f4d     k.?.a.?.W.?.M.?.
 23ffb9c:	023f8f41 023f8f35 023f9611 023f9619     A.?.5.?...?...?.
 23ffbac:	023f8f29 023f8f21 023f8f17 023f8f0d     ).?.!.?...?...?.
 23ffbbc:	023f9741 023f9649 023f9651 00707061     A.?.I.?.Q.?.app.
 23ffbcc:	252d5925 64252d6d 3a482554 253a4d25     %Y-%m-%dT%H:%M:%
 23ffbdc:	007a2553 74637361 00656d69              S%z.asctime.

023ffbe8 <_ZTV9IPAddress>:
	...
 23ffbf0:	023f9231 023f9221 023f9223              1.?.!.?.#.?.

023ffbfc <_ZTV9USBSerial>:
	...
 23ffc04:	023f9317 023f937f 023f9355 023f8fd1     ..?...?.U.?...?.
 23ffc14:	023f9347 023f9319 023f9329 023f9379     G.?...?.).?.y.?.
 23ffc24:	023f9339 023f9311                       9.?...?.

023ffc2c <_ZTV11USARTSerial>:
	...
 23ffc34:	023f9415 023f9481 023f9459 023f8fd1     ..?...?.Y.?...?.
 23ffc44:	023f9429 023f9445 023f9437 023f9453     ).?.E.?.7.?.S.?.
 23ffc54:	023f9417 023f941b                       ..?...?.

023ffc5c <_ZTV7TwoWire>:
	...
 23ffc64:	023f94bf 023f9509 023f94e1 023f94c1     ..?...?...?...?.
 23ffc74:	023f94e9 023f94f1 023f94f9 023f9501     ..?...?...?...?.

023ffc84 <_ZTVN5spark9WiFiClassE>:
	...
 23ffc8c:	023f95b3 023f95a9 023f959f 023f9555     ..?...?...?.U.?.
 23ffc9c:	023f9593 023f9587 023f9611 023f9619     ..?...?...?...?.
 23ffcac:	023f957b 023f9573 023f9569 023f955f     {.?.s.?.i.?._.?.
 23ffcbc:	023f9741 023f9649 023f9651              A.?.I.?.Q.?.

023ffcc8 <CSWTCH.109>:
 23ffcc8:	1007ae8c 1007aee0 1007aee8              ............

023ffcd4 <_ZTVN5spark12NetworkClassE>:
	...
 23ffcdc:	023f95d1 023f95db 023f95e5 023f95ef     ..?...?...?...?.
 23ffcec:	023f95f9 023f9605 023f9611 023f9619     ..?...?...?...?.
 23ffcfc:	023f9621 023f962d 023f9635 023f963f     !.?.-.?.5.?.?.?.
 23ffd0c:	023f9741 023f9649 023f9651              A.?.I.?.Q.?.

023ffd18 <AUDIO_DEV_TABLE>:
 23ffd18:	40010800 0000000a 0000000b              ...@........

023ffd24 <__FUNCTION__.0>:
 23ffd24:	49445541 50535f4f 4758525f 5f414d44     AUDIO_SP_RXGDMA_
 23ffd34:	74696e49                                 Init.

023ffd39 <__FUNCTION__.4>:
 23ffd39:	49445541 50535f4f 696e495f               AUDIO_SP_Init.

023ffd47 <_ZSt7nothrow>:
 23ffd47:	00000000                                 .....

023ffd4c <npio2_hw>:
 23ffd4c:	3ff921fb 400921fb 4012d97c 401921fb     .!.?.!.@|..@.!.@
 23ffd5c:	401f6a7a 4022d97c 4025fdbb 402921fb     zj.@|."@..%@.!)@
 23ffd6c:	402c463a 402f6a7a 4031475c 4032d97c     :F,@zj/@\G1@|.2@
 23ffd7c:	40346b9c 4035fdbb 40378fdb 403921fb     .k4@..5@..7@.!9@
 23ffd8c:	403ab41b 403c463a 403dd85a 403f6a7a     ..:@:F<@Z.=@zj?@
 23ffd9c:	40407e4c 4041475c 4042106c 4042d97c     L~@@\GA@l.B@|.B@
 23ffdac:	4043a28c 40446b9c 404534ac 4045fdbb     ..C@.kD@.4E@..E@
 23ffdbc:	4046c6cb 40478fdb 404858eb 404921fb     ..F@..G@.XH@.!I@

023ffdcc <two_over_pi>:
 23ffdcc:	00a2f983 006e4e44 001529fc 002757d1     ....DNn..)...W'.
 23ffddc:	00f534dd 00c0db62 0095993c 00439041     .4..b...<...A.C.
 23ffdec:	00fe5163 00abdebb 00c561b7 00246e3a     cQ.......a..:n$.
 23ffdfc:	00424dd2 00e00649 002eea09 00d1921c     .MB.I...........
 23ffe0c:	00fe1deb 001cb129 00a73ee8 008235f5     ....)....>...5..
 23ffe1c:	002ebb44 0084e99c 007026b4 005f7e41     D........&p.A~_.
 23ffe2c:	003991d6 00398353 0039f49c 00845f8b     ..9.S.9...9.._..
 23ffe3c:	00bdf928 003b1ff8 0097ffde 0005980f     (.....;.........
 23ffe4c:	00ef2f11 008b5a0a 006d1f6d 00367ecf     ./...Z..m.m..~6.
 23ffe5c:	0027cb09 00b74f46 003f669e 005fea2d     ..'.FO...f?.-._.
 23ffe6c:	007527ba 00c7ebe5 00f17b3d 000739f7     .'u.....={...9..
 23ffe7c:	008a5292 00ea6bfb 005fb11f 008d5d08     .R...k...._..]..
 23ffe8c:	00560330 0046fc7b 006babf0 00cfbc20     0.V.{.F...k. ...
 23ffe9c:	009af436 001da9e3 0091615e 00e61b08     6.......^a......
 23ffeac:	00659985 005f14a0 0068408d 00ffd880     ..e..._..@h.....
 23ffebc:	004d7327 00310606 001556ca 0073a8c9     'sM...1..V....s.
 23ffecc:	0060e27b 00c08c6b 00000000              {.`.k.......

023ffed8 <PIo2>:
 23ffed8:	40000000 3ff921fb 00000000 3e74442d     ...@.!.?....-Dt>
 23ffee8:	80000000 3cf84698 60000000 3b78cc51     .....F.<...`Q.x;
 23ffef8:	80000000 39f01b83 40000000 387a2520     .......9...@ %z8
 23fff08:	80000000 36e38222 00000000 3569f31d     ...."..6......i5

023fff18 <init_jk>:
 23fff18:	00000002 00000003 00000004 00000006     ................

023fff28 <TWO52>:
 23fff28:	00000000 43300000 00000000 c3300000     ......0C......0.
 23fff38:	4e454552 616d2054 636f6c6c 63757320     REENT malloc suc
 23fff48:	64656563 2f006465 2f746e6d 6b726f77     ceeded./mnt/work
 23fff58:	63617073 6f772f65 70736b72 2f656361     space/workspace/
 23fff68:	2d434347 702d3031 6c657069 2f656e69     GCC-10-pipeline/
 23fff78:	6b6e656a 2d736e69 2d434347 702d3031     jenkins-GCC-10-p
 23fff88:	6c657069 2d656e69 325f3834 31303230     ipeline-48_20201
 23fff98:	5f343231 36303631 36303831 732f3134     124_1606180641/s
 23fffa8:	6e2f6372 696c7765 656e2f62 62696c77     rc/newlib/newlib
 23fffb8:	62696c2f 74732f63 62696c64 6e61722f     /libc/stdlib/ran
 23fffc8:	00632e64                                d.c.

023fffcc <link_const_data_end>:
 23fffcc:	023f85dd 	.word	0x023f85dd
 23fffd0:	023f8f75 	.word	0x023f8f75
 23fffd4:	023f8f9d 	.word	0x023f8f9d
 23fffd8:	023f8fc1 	.word	0x023f8fc1
 23fffdc:	023f9099 	.word	0x023f9099
 23fffe0:	023f90a9 	.word	0x023f90a9
 23fffe4:	023f90c5 	.word	0x023f90c5
 23fffe8:	023f95bd 	.word	0x023f95bd
 23fffec:	023f9755 	.word	0x023f9755
